ARM GAS  /var/folders/2w/5wbrmvx534s_vk8svtxz852c0000gn/T//cccje1sL.s 			page 1


   1              		.cpu cortex-m3
   2              		.arch armv7-m
   3              		.fpu softvfp
   4              		.eabi_attribute 20, 1
   5              		.eabi_attribute 21, 1
   6              		.eabi_attribute 23, 3
   7              		.eabi_attribute 24, 1
   8              		.eabi_attribute 25, 1
   9              		.eabi_attribute 26, 1
  10              		.eabi_attribute 30, 1
  11              		.eabi_attribute 34, 1
  12              		.eabi_attribute 18, 4
  13              		.file	"BLDC_controller.c"
  14              		.text
  15              	.Ltext0:
  16              		.cfi_sections	.debug_frame
  17              		.section	.text.plook_u8s16_evencka,"ax",%progbits
  18              		.align	1
  19              		.global	plook_u8s16_evencka
  20              		.syntax unified
  21              		.thumb
  22              		.thumb_func
  24              	plook_u8s16_evencka:
  25              	.LVL0:
  26              	.LFB0:
  27              		.file 1 "Src/BLDC_controller.c"
   1:Src/BLDC_controller.c **** /*
   2:Src/BLDC_controller.c ****  * File: BLDC_controller.c
   3:Src/BLDC_controller.c ****  *
   4:Src/BLDC_controller.c ****  * Code generated for Simulink model 'BLDC_controller'.
   5:Src/BLDC_controller.c ****  *
   6:Src/BLDC_controller.c ****  * Model version                  : 1.1297
   7:Src/BLDC_controller.c ****  * Simulink Coder version         : 8.13 (R2017b) 24-Jul-2017
   8:Src/BLDC_controller.c ****  * C/C++ source code generated on : Sun Mar  6 11:02:11 2022
   9:Src/BLDC_controller.c ****  *
  10:Src/BLDC_controller.c ****  * Target selection: ert.tlc
  11:Src/BLDC_controller.c ****  * Embedded hardware selection: ARM Compatible->ARM Cortex
  12:Src/BLDC_controller.c ****  * Emulation hardware selection:
  13:Src/BLDC_controller.c ****  *    Differs from embedded hardware (MATLAB Host)
  14:Src/BLDC_controller.c ****  * Code generation objectives:
  15:Src/BLDC_controller.c ****  *    1. Execution efficiency
  16:Src/BLDC_controller.c ****  *    2. RAM efficiency
  17:Src/BLDC_controller.c ****  * Validation result: Not run
  18:Src/BLDC_controller.c ****  */
  19:Src/BLDC_controller.c **** 
  20:Src/BLDC_controller.c **** #include "BLDC_controller.h"
  21:Src/BLDC_controller.c **** 
  22:Src/BLDC_controller.c **** /* Named constants for Chart: '<S5>/F03_02_Control_Mode_Manager' */
  23:Src/BLDC_controller.c **** #define IN_ACTIVE                      ((uint8_T)1U)
  24:Src/BLDC_controller.c **** #define IN_NO_ACTIVE_CHILD             ((uint8_T)0U)
  25:Src/BLDC_controller.c **** #define IN_OPEN                        ((uint8_T)2U)
  26:Src/BLDC_controller.c **** #define IN_SPEED_MODE                  ((uint8_T)1U)
  27:Src/BLDC_controller.c **** #define IN_TORQUE_MODE                 ((uint8_T)2U)
  28:Src/BLDC_controller.c **** #define IN_VOLTAGE_MODE                ((uint8_T)3U)
  29:Src/BLDC_controller.c **** #define OPEN_MODE                      ((uint8_T)0U)
  30:Src/BLDC_controller.c **** #define SPD_MODE                       ((uint8_T)2U)
  31:Src/BLDC_controller.c **** #define TRQ_MODE                       ((uint8_T)3U)
ARM GAS  /var/folders/2w/5wbrmvx534s_vk8svtxz852c0000gn/T//cccje1sL.s 			page 2


  32:Src/BLDC_controller.c **** #define VLT_MODE                       ((uint8_T)1U)
  33:Src/BLDC_controller.c **** #ifndef UCHAR_MAX
  34:Src/BLDC_controller.c **** #include <limits.h>
  35:Src/BLDC_controller.c **** #endif
  36:Src/BLDC_controller.c **** 
  37:Src/BLDC_controller.c **** #if ( UCHAR_MAX != (0xFFU) ) || ( SCHAR_MAX != (0x7F) )
  38:Src/BLDC_controller.c **** #error Code was generated for compiler with different sized uchar/char. \
  39:Src/BLDC_controller.c **** Consider adjusting Test hardware word size settings on the \
  40:Src/BLDC_controller.c **** Hardware Implementation pane to match your compiler word sizes as \
  41:Src/BLDC_controller.c **** defined in limits.h of the compiler. Alternatively, you can \
  42:Src/BLDC_controller.c **** select the Test hardware is the same as production hardware option and \
  43:Src/BLDC_controller.c **** select the Enable portable word sizes option on the Code Generation > \
  44:Src/BLDC_controller.c **** Verification pane for ERT based targets, which will disable the \
  45:Src/BLDC_controller.c **** preprocessor word size checks.
  46:Src/BLDC_controller.c **** #endif
  47:Src/BLDC_controller.c **** 
  48:Src/BLDC_controller.c **** #if ( USHRT_MAX != (0xFFFFU) ) || ( SHRT_MAX != (0x7FFF) )
  49:Src/BLDC_controller.c **** #error Code was generated for compiler with different sized ushort/short. \
  50:Src/BLDC_controller.c **** Consider adjusting Test hardware word size settings on the \
  51:Src/BLDC_controller.c **** Hardware Implementation pane to match your compiler word sizes as \
  52:Src/BLDC_controller.c **** defined in limits.h of the compiler. Alternatively, you can \
  53:Src/BLDC_controller.c **** select the Test hardware is the same as production hardware option and \
  54:Src/BLDC_controller.c **** select the Enable portable word sizes option on the Code Generation > \
  55:Src/BLDC_controller.c **** Verification pane for ERT based targets, which will disable the \
  56:Src/BLDC_controller.c **** preprocessor word size checks.
  57:Src/BLDC_controller.c **** #endif
  58:Src/BLDC_controller.c **** 
  59:Src/BLDC_controller.c **** #if ( UINT_MAX != (0xFFFFFFFFU) ) || ( INT_MAX != (0x7FFFFFFF) )
  60:Src/BLDC_controller.c **** #error Code was generated for compiler with different sized uint/int. \
  61:Src/BLDC_controller.c **** Consider adjusting Test hardware word size settings on the \
  62:Src/BLDC_controller.c **** Hardware Implementation pane to match your compiler word sizes as \
  63:Src/BLDC_controller.c **** defined in limits.h of the compiler. Alternatively, you can \
  64:Src/BLDC_controller.c **** select the Test hardware is the same as production hardware option and \
  65:Src/BLDC_controller.c **** select the Enable portable word sizes option on the Code Generation > \
  66:Src/BLDC_controller.c **** Verification pane for ERT based targets, which will disable the \
  67:Src/BLDC_controller.c **** preprocessor word size checks.
  68:Src/BLDC_controller.c **** #endif
  69:Src/BLDC_controller.c **** 
  70:Src/BLDC_controller.c **** #if ( ULONG_MAX != (0xFFFFFFFFU) ) || ( LONG_MAX != (0x7FFFFFFF) )
  71:Src/BLDC_controller.c **** #error Code was generated for compiler with different sized ulong/long. \
  72:Src/BLDC_controller.c **** Consider adjusting Test hardware word size settings on the \
  73:Src/BLDC_controller.c **** Hardware Implementation pane to match your compiler word sizes as \
  74:Src/BLDC_controller.c **** defined in limits.h of the compiler. Alternatively, you can \
  75:Src/BLDC_controller.c **** select the Test hardware is the same as production hardware option and \
  76:Src/BLDC_controller.c **** select the Enable portable word sizes option on the Code Generation > \
  77:Src/BLDC_controller.c **** Verification pane for ERT based targets, which will disable the \
  78:Src/BLDC_controller.c **** preprocessor word size checks.
  79:Src/BLDC_controller.c **** #endif
  80:Src/BLDC_controller.c **** 
  81:Src/BLDC_controller.c **** #if 0
  82:Src/BLDC_controller.c **** 
  83:Src/BLDC_controller.c **** /* Skip this size verification because of preprocessor limitation */
  84:Src/BLDC_controller.c **** #if ( ULLONG_MAX != (0xFFFFFFFFFFFFFFFFULL) ) || ( LLONG_MAX != (0x7FFFFFFFFFFFFFFFLL) )
  85:Src/BLDC_controller.c **** #error Code was generated for compiler with different sized ulong_long/long_long. \
  86:Src/BLDC_controller.c **** Consider adjusting Test hardware word size settings on the \
  87:Src/BLDC_controller.c **** Hardware Implementation pane to match your compiler word sizes as \
  88:Src/BLDC_controller.c **** defined in limits.h of the compiler. Alternatively, you can \
ARM GAS  /var/folders/2w/5wbrmvx534s_vk8svtxz852c0000gn/T//cccje1sL.s 			page 3


  89:Src/BLDC_controller.c **** select the Test hardware is the same as production hardware option and \
  90:Src/BLDC_controller.c **** select the Enable portable word sizes option on the Code Generation > \
  91:Src/BLDC_controller.c **** Verification pane for ERT based targets, which will disable the \
  92:Src/BLDC_controller.c **** preprocessor word size checks.
  93:Src/BLDC_controller.c **** #endif
  94:Src/BLDC_controller.c **** #endif
  95:Src/BLDC_controller.c **** 
  96:Src/BLDC_controller.c **** uint8_T plook_u8s16_evencka(int16_T u, int16_T bp0, uint16_T bpSpace, uint32_T
  97:Src/BLDC_controller.c ****   maxIndex);
  98:Src/BLDC_controller.c **** uint8_T plook_u8u16_evencka(uint16_T u, uint16_T bp0, uint16_T bpSpace, uint32_T
  99:Src/BLDC_controller.c ****   maxIndex);
 100:Src/BLDC_controller.c **** int32_T div_nde_s32_floor(int32_T numerator, int32_T denominator);
 101:Src/BLDC_controller.c **** extern void Counter_Init(DW_Counter *localDW, int16_T rtp_z_cntInit);
 102:Src/BLDC_controller.c **** extern int16_T Counter(int16_T rtu_inc, int16_T rtu_max, boolean_T rtu_rst,
 103:Src/BLDC_controller.c ****   DW_Counter *localDW);
 104:Src/BLDC_controller.c **** extern void Low_Pass_Filter_Reset(DW_Low_Pass_Filter *localDW);
 105:Src/BLDC_controller.c **** extern void Low_Pass_Filter(const int16_T rtu_u[2], uint16_T rtu_coef, int16_T
 106:Src/BLDC_controller.c ****   rty_y[2], DW_Low_Pass_Filter *localDW);
 107:Src/BLDC_controller.c **** extern void Counter_b_Init(DW_Counter_b *localDW, uint16_T rtp_z_cntInit);
 108:Src/BLDC_controller.c **** extern void Counter_n(uint16_T rtu_inc, uint16_T rtu_max, boolean_T rtu_rst,
 109:Src/BLDC_controller.c ****                       uint16_T *rty_cnt, DW_Counter_b *localDW);
 110:Src/BLDC_controller.c **** extern void either_edge(boolean_T rtu_u, boolean_T *rty_y, DW_either_edge
 111:Src/BLDC_controller.c ****   *localDW);
 112:Src/BLDC_controller.c **** extern void Debounce_Filter_Init(DW_Debounce_Filter *localDW);
 113:Src/BLDC_controller.c **** extern void Debounce_Filter(boolean_T rtu_u, uint16_T rtu_tAcv, uint16_T
 114:Src/BLDC_controller.c ****   rtu_tDeacv, boolean_T *rty_y, DW_Debounce_Filter *localDW);
 115:Src/BLDC_controller.c **** extern void I_backCalc_fixdt_Init(DW_I_backCalc_fixdt *localDW, int32_T
 116:Src/BLDC_controller.c ****   rtp_yInit);
 117:Src/BLDC_controller.c **** extern void I_backCalc_fixdt_Reset(DW_I_backCalc_fixdt *localDW, int32_T
 118:Src/BLDC_controller.c ****   rtp_yInit);
 119:Src/BLDC_controller.c **** extern void I_backCalc_fixdt(int16_T rtu_err, uint16_T rtu_I, uint16_T rtu_Kb,
 120:Src/BLDC_controller.c ****   int16_T rtu_satMax, int16_T rtu_satMin, int16_T *rty_out, DW_I_backCalc_fixdt *
 121:Src/BLDC_controller.c ****   localDW);
 122:Src/BLDC_controller.c **** extern void PI_clamp_fixdt_Init(DW_PI_clamp_fixdt *localDW);
 123:Src/BLDC_controller.c **** extern void PI_clamp_fixdt_Reset(DW_PI_clamp_fixdt *localDW);
 124:Src/BLDC_controller.c **** extern void PI_clamp_fixdt(int16_T rtu_err, uint16_T rtu_P, uint16_T rtu_I,
 125:Src/BLDC_controller.c ****   int32_T rtu_init, int16_T rtu_satMax, int16_T rtu_satMin, int32_T
 126:Src/BLDC_controller.c ****   rtu_ext_limProt, int16_T *rty_out, DW_PI_clamp_fixdt *localDW);
 127:Src/BLDC_controller.c **** extern void PI_clamp_fixdt_d_Init(DW_PI_clamp_fixdt_m *localDW);
 128:Src/BLDC_controller.c **** extern void PI_clamp_fixdt_b_Reset(DW_PI_clamp_fixdt_m *localDW);
 129:Src/BLDC_controller.c **** extern void PI_clamp_fixdt_l(int16_T rtu_err, uint16_T rtu_P, uint16_T rtu_I,
 130:Src/BLDC_controller.c ****   int16_T rtu_init, int16_T rtu_satMax, int16_T rtu_satMin, int32_T
 131:Src/BLDC_controller.c ****   rtu_ext_limProt, int16_T *rty_out, DW_PI_clamp_fixdt_m *localDW);
 132:Src/BLDC_controller.c **** extern void PI_clamp_fixdt_f_Init(DW_PI_clamp_fixdt_g *localDW);
 133:Src/BLDC_controller.c **** extern void PI_clamp_fixdt_g_Reset(DW_PI_clamp_fixdt_g *localDW);
 134:Src/BLDC_controller.c **** extern void PI_clamp_fixdt_k(int16_T rtu_err, uint16_T rtu_P, uint16_T rtu_I,
 135:Src/BLDC_controller.c ****   int16_T rtu_init, int16_T rtu_satMax, int16_T rtu_satMin, int32_T
 136:Src/BLDC_controller.c ****   rtu_ext_limProt, int16_T *rty_out, DW_PI_clamp_fixdt_g *localDW);
 137:Src/BLDC_controller.c **** uint8_T plook_u8s16_evencka(int16_T u, int16_T bp0, uint16_T bpSpace, uint32_T
 138:Src/BLDC_controller.c ****   maxIndex)
 139:Src/BLDC_controller.c **** {
  28              		.loc 1 139 1 view -0
  29              		.cfi_startproc
  30              		@ args = 0, pretend = 0, frame = 0
  31              		@ frame_needed = 0, uses_anonymous_args = 0
  32              		@ link register save eliminated.
 140:Src/BLDC_controller.c ****   uint8_T bpIndex;
ARM GAS  /var/folders/2w/5wbrmvx534s_vk8svtxz852c0000gn/T//cccje1sL.s 			page 4


  33              		.loc 1 140 3 view .LVU1
 141:Src/BLDC_controller.c ****   uint16_T fbpIndex;
  34              		.loc 1 141 3 view .LVU2
 142:Src/BLDC_controller.c **** 
 143:Src/BLDC_controller.c ****   /* Prelookup - Index only
 144:Src/BLDC_controller.c ****      Index Search method: 'even'
 145:Src/BLDC_controller.c ****      Extrapolation method: 'Clip'
 146:Src/BLDC_controller.c ****      Use previous index: 'off'
 147:Src/BLDC_controller.c ****      Use last breakpoint for index at or above upper limit: 'on'
 148:Src/BLDC_controller.c ****      Remove protection against out-of-range input in generated code: 'off'
 149:Src/BLDC_controller.c ****    */
 150:Src/BLDC_controller.c ****   if (u <= bp0) {
  35              		.loc 1 150 3 view .LVU3
  36              		.loc 1 150 6 is_stmt 0 view .LVU4
  37 0000 8842     		cmp	r0, r1
  38 0002 09DD     		ble	.L4
 151:Src/BLDC_controller.c ****     bpIndex = 0U;
 152:Src/BLDC_controller.c ****   } else {
 153:Src/BLDC_controller.c ****     fbpIndex = (uint16_T)((uint32_T)(uint16_T)(u - bp0) / bpSpace);
  39              		.loc 1 153 5 is_stmt 1 view .LVU5
  40              		.loc 1 153 37 is_stmt 0 view .LVU6
  41 0004 401A     		subs	r0, r0, r1
  42              	.LVL1:
  43              		.loc 1 153 37 view .LVU7
  44 0006 80B2     		uxth	r0, r0
  45              		.loc 1 153 14 view .LVU8
  46 0008 B0FBF2F0 		udiv	r0, r0, r2
  47              	.LVL2:
 154:Src/BLDC_controller.c ****     if (fbpIndex < maxIndex) {
  48              		.loc 1 154 5 is_stmt 1 view .LVU9
  49              		.loc 1 154 8 is_stmt 0 view .LVU10
  50 000c 9842     		cmp	r0, r3
  51 000e 01D2     		bcs	.L3
 155:Src/BLDC_controller.c ****       bpIndex = (uint8_T)fbpIndex;
  52              		.loc 1 155 7 is_stmt 1 view .LVU11
  53              		.loc 1 155 15 is_stmt 0 view .LVU12
  54 0010 C0B2     		uxtb	r0, r0
  55              	.LVL3:
  56              		.loc 1 155 15 view .LVU13
  57 0012 7047     		bx	lr
  58              	.LVL4:
  59              	.L3:
 156:Src/BLDC_controller.c ****     } else {
 157:Src/BLDC_controller.c ****       bpIndex = (uint8_T)maxIndex;
  60              		.loc 1 157 7 is_stmt 1 view .LVU14
  61              		.loc 1 157 15 is_stmt 0 view .LVU15
  62 0014 D8B2     		uxtb	r0, r3
  63              	.LVL5:
  64              		.loc 1 157 15 view .LVU16
  65 0016 7047     		bx	lr
  66              	.LVL6:
  67              	.L4:
 151:Src/BLDC_controller.c ****   } else {
  68              		.loc 1 151 13 view .LVU17
  69 0018 0020     		movs	r0, #0
  70              	.LVL7:
 158:Src/BLDC_controller.c ****     }
ARM GAS  /var/folders/2w/5wbrmvx534s_vk8svtxz852c0000gn/T//cccje1sL.s 			page 5


 159:Src/BLDC_controller.c ****   }
 160:Src/BLDC_controller.c **** 
 161:Src/BLDC_controller.c ****   return bpIndex;
  71              		.loc 1 161 3 is_stmt 1 view .LVU18
 162:Src/BLDC_controller.c **** }
  72              		.loc 1 162 1 is_stmt 0 view .LVU19
  73 001a 7047     		bx	lr
  74              		.cfi_endproc
  75              	.LFE0:
  77              		.section	.text.plook_u8u16_evencka,"ax",%progbits
  78              		.align	1
  79              		.global	plook_u8u16_evencka
  80              		.syntax unified
  81              		.thumb
  82              		.thumb_func
  84              	plook_u8u16_evencka:
  85              	.LVL8:
  86              	.LFB1:
 163:Src/BLDC_controller.c **** 
 164:Src/BLDC_controller.c **** uint8_T plook_u8u16_evencka(uint16_T u, uint16_T bp0, uint16_T bpSpace, uint32_T
 165:Src/BLDC_controller.c ****   maxIndex)
 166:Src/BLDC_controller.c **** {
  87              		.loc 1 166 1 is_stmt 1 view -0
  88              		.cfi_startproc
  89              		@ args = 0, pretend = 0, frame = 0
  90              		@ frame_needed = 0, uses_anonymous_args = 0
  91              		@ link register save eliminated.
 167:Src/BLDC_controller.c ****   uint8_T bpIndex;
  92              		.loc 1 167 3 view .LVU21
 168:Src/BLDC_controller.c ****   uint16_T fbpIndex;
  93              		.loc 1 168 3 view .LVU22
 169:Src/BLDC_controller.c **** 
 170:Src/BLDC_controller.c ****   /* Prelookup - Index only
 171:Src/BLDC_controller.c ****      Index Search method: 'even'
 172:Src/BLDC_controller.c ****      Extrapolation method: 'Clip'
 173:Src/BLDC_controller.c ****      Use previous index: 'off'
 174:Src/BLDC_controller.c ****      Use last breakpoint for index at or above upper limit: 'on'
 175:Src/BLDC_controller.c ****      Remove protection against out-of-range input in generated code: 'off'
 176:Src/BLDC_controller.c ****    */
 177:Src/BLDC_controller.c ****   if (u <= bp0) {
  94              		.loc 1 177 3 view .LVU23
  95              		.loc 1 177 6 is_stmt 0 view .LVU24
  96 0000 8842     		cmp	r0, r1
  97 0002 09D9     		bls	.L8
 178:Src/BLDC_controller.c ****     bpIndex = 0U;
 179:Src/BLDC_controller.c ****   } else {
 180:Src/BLDC_controller.c ****     fbpIndex = (uint16_T)((uint32_T)(uint16_T)((uint32_T)u - bp0) / bpSpace);
  98              		.loc 1 180 5 is_stmt 1 view .LVU25
  99              		.loc 1 180 37 is_stmt 0 view .LVU26
 100 0004 401A     		subs	r0, r0, r1
 101              	.LVL9:
 102              		.loc 1 180 37 view .LVU27
 103 0006 80B2     		uxth	r0, r0
 104              		.loc 1 180 14 view .LVU28
 105 0008 B0FBF2F0 		udiv	r0, r0, r2
 106              	.LVL10:
 181:Src/BLDC_controller.c ****     if (fbpIndex < maxIndex) {
ARM GAS  /var/folders/2w/5wbrmvx534s_vk8svtxz852c0000gn/T//cccje1sL.s 			page 6


 107              		.loc 1 181 5 is_stmt 1 view .LVU29
 108              		.loc 1 181 8 is_stmt 0 view .LVU30
 109 000c 9842     		cmp	r0, r3
 110 000e 01D2     		bcs	.L7
 182:Src/BLDC_controller.c ****       bpIndex = (uint8_T)fbpIndex;
 111              		.loc 1 182 7 is_stmt 1 view .LVU31
 112              		.loc 1 182 15 is_stmt 0 view .LVU32
 113 0010 C0B2     		uxtb	r0, r0
 114              	.LVL11:
 115              		.loc 1 182 15 view .LVU33
 116 0012 7047     		bx	lr
 117              	.LVL12:
 118              	.L7:
 183:Src/BLDC_controller.c ****     } else {
 184:Src/BLDC_controller.c ****       bpIndex = (uint8_T)maxIndex;
 119              		.loc 1 184 7 is_stmt 1 view .LVU34
 120              		.loc 1 184 15 is_stmt 0 view .LVU35
 121 0014 D8B2     		uxtb	r0, r3
 122              	.LVL13:
 123              		.loc 1 184 15 view .LVU36
 124 0016 7047     		bx	lr
 125              	.LVL14:
 126              	.L8:
 178:Src/BLDC_controller.c ****   } else {
 127              		.loc 1 178 13 view .LVU37
 128 0018 0020     		movs	r0, #0
 129              	.LVL15:
 185:Src/BLDC_controller.c ****     }
 186:Src/BLDC_controller.c ****   }
 187:Src/BLDC_controller.c **** 
 188:Src/BLDC_controller.c ****   return bpIndex;
 130              		.loc 1 188 3 is_stmt 1 view .LVU38
 189:Src/BLDC_controller.c **** }
 131              		.loc 1 189 1 is_stmt 0 view .LVU39
 132 001a 7047     		bx	lr
 133              		.cfi_endproc
 134              	.LFE1:
 136              		.section	.text.div_nde_s32_floor,"ax",%progbits
 137              		.align	1
 138              		.global	div_nde_s32_floor
 139              		.syntax unified
 140              		.thumb
 141              		.thumb_func
 143              	div_nde_s32_floor:
 144              	.LVL16:
 145              	.LFB2:
 190:Src/BLDC_controller.c **** 
 191:Src/BLDC_controller.c **** int32_T div_nde_s32_floor(int32_T numerator, int32_T denominator)
 192:Src/BLDC_controller.c **** {
 146              		.loc 1 192 1 is_stmt 1 view -0
 147              		.cfi_startproc
 148              		@ args = 0, pretend = 0, frame = 0
 149              		@ frame_needed = 0, uses_anonymous_args = 0
 150              		@ link register save eliminated.
 193:Src/BLDC_controller.c ****   return (((numerator < 0) != (denominator < 0)) && (numerator % denominator !=
 151              		.loc 1 193 3 view .LVU41
 152              		.loc 1 193 28 is_stmt 0 view .LVU42
ARM GAS  /var/folders/2w/5wbrmvx534s_vk8svtxz852c0000gn/T//cccje1sL.s 			page 7


 153 0000 CB0F     		lsrs	r3, r1, #31
 194:Src/BLDC_controller.c ****            0) ? -1 : 0) + numerator / denominator;
 154              		.loc 1 194 20 view .LVU43
 155 0002 B3EBD07F 		cmp	r3, r0, lsr #31
 156 0006 07D0     		beq	.L11
 193:Src/BLDC_controller.c ****   return (((numerator < 0) != (denominator < 0)) && (numerator % denominator !=
 157              		.loc 1 193 64 view .LVU44
 158 0008 90FBF1F3 		sdiv	r3, r0, r1
 159 000c 01FB1303 		mls	r3, r1, r3, r0
 193:Src/BLDC_controller.c ****   return (((numerator < 0) != (denominator < 0)) && (numerator % denominator !=
 160              		.loc 1 193 50 view .LVU45
 161 0010 1BB1     		cbz	r3, .L10
 162              		.loc 1 194 20 view .LVU46
 163 0012 4FF0FF33 		mov	r3, #-1
 164 0016 00E0     		b	.L10
 165              	.L11:
 166 0018 0023     		movs	r3, #0
 167              	.L10:
 168              		.loc 1 194 37 discriminator 3 view .LVU47
 169 001a 90FBF1F0 		sdiv	r0, r0, r1
 170              	.LVL17:
 195:Src/BLDC_controller.c **** }
 171              		.loc 1 195 1 discriminator 3 view .LVU48
 172 001e 1844     		add	r0, r0, r3
 173 0020 7047     		bx	lr
 174              		.cfi_endproc
 175              	.LFE2:
 177              		.section	.text.Counter_Init,"ax",%progbits
 178              		.align	1
 179              		.global	Counter_Init
 180              		.syntax unified
 181              		.thumb
 182              		.thumb_func
 184              	Counter_Init:
 185              	.LVL18:
 186              	.LFB3:
 196:Src/BLDC_controller.c **** 
 197:Src/BLDC_controller.c **** /* System initialize for atomic system: '<S13>/Counter' */
 198:Src/BLDC_controller.c **** void Counter_Init(DW_Counter *localDW, int16_T rtp_z_cntInit)
 199:Src/BLDC_controller.c **** {
 187              		.loc 1 199 1 is_stmt 1 view -0
 188              		.cfi_startproc
 189              		@ args = 0, pretend = 0, frame = 0
 190              		@ frame_needed = 0, uses_anonymous_args = 0
 191              		@ link register save eliminated.
 200:Src/BLDC_controller.c ****   /* InitializeConditions for UnitDelay: '<S18>/UnitDelay' */
 201:Src/BLDC_controller.c ****   localDW->UnitDelay_DSTATE = rtp_z_cntInit;
 192              		.loc 1 201 3 view .LVU50
 193              		.loc 1 201 29 is_stmt 0 view .LVU51
 194 0000 0180     		strh	r1, [r0]	@ movhi
 202:Src/BLDC_controller.c **** }
 195              		.loc 1 202 1 view .LVU52
 196 0002 7047     		bx	lr
 197              		.cfi_endproc
 198              	.LFE3:
 200              		.section	.text.Counter,"ax",%progbits
 201              		.align	1
ARM GAS  /var/folders/2w/5wbrmvx534s_vk8svtxz852c0000gn/T//cccje1sL.s 			page 8


 202              		.global	Counter
 203              		.syntax unified
 204              		.thumb
 205              		.thumb_func
 207              	Counter:
 208              	.LVL19:
 209              	.LFB4:
 203:Src/BLDC_controller.c **** 
 204:Src/BLDC_controller.c **** /* Output and update for atomic system: '<S13>/Counter' */
 205:Src/BLDC_controller.c **** int16_T Counter(int16_T rtu_inc, int16_T rtu_max, boolean_T rtu_rst, DW_Counter *
 206:Src/BLDC_controller.c ****                 localDW)
 207:Src/BLDC_controller.c **** {
 210              		.loc 1 207 1 is_stmt 1 view -0
 211              		.cfi_startproc
 212              		@ args = 0, pretend = 0, frame = 0
 213              		@ frame_needed = 0, uses_anonymous_args = 0
 214              		@ link register save eliminated.
 208:Src/BLDC_controller.c ****   int16_T rtu_rst_0;
 215              		.loc 1 208 3 view .LVU54
 209:Src/BLDC_controller.c ****   int16_T rty_cnt_0;
 216              		.loc 1 209 3 view .LVU55
 210:Src/BLDC_controller.c **** 
 211:Src/BLDC_controller.c ****   /* Switch: '<S18>/Switch1' incorporates:
 212:Src/BLDC_controller.c ****    *  Constant: '<S18>/Constant23'
 213:Src/BLDC_controller.c ****    *  UnitDelay: '<S18>/UnitDelay'
 214:Src/BLDC_controller.c ****    */
 215:Src/BLDC_controller.c ****   if (rtu_rst) {
 217              		.loc 1 215 3 view .LVU56
 218              		.loc 1 215 6 is_stmt 0 view .LVU57
 219 0000 3AB9     		cbnz	r2, .L18
 216:Src/BLDC_controller.c ****     rtu_rst_0 = 0;
 217:Src/BLDC_controller.c ****   } else {
 218:Src/BLDC_controller.c ****     rtu_rst_0 = localDW->UnitDelay_DSTATE;
 220              		.loc 1 218 5 is_stmt 1 view .LVU58
 221              		.loc 1 218 15 is_stmt 0 view .LVU59
 222 0002 B3F90020 		ldrsh	r2, [r3]
 223              	.LVL20:
 224              	.L15:
 219:Src/BLDC_controller.c ****   }
 220:Src/BLDC_controller.c **** 
 221:Src/BLDC_controller.c ****   /* End of Switch: '<S18>/Switch1' */
 222:Src/BLDC_controller.c **** 
 223:Src/BLDC_controller.c ****   /* Sum: '<S16>/Sum1' */
 224:Src/BLDC_controller.c ****   rty_cnt_0 = (int16_T)(rtu_inc + rtu_rst_0);
 225              		.loc 1 224 3 is_stmt 1 view .LVU60
 226              		.loc 1 224 33 is_stmt 0 view .LVU61
 227 0006 1044     		add	r0, r0, r2
 228              	.LVL21:
 229              		.loc 1 224 13 view .LVU62
 230 0008 00B2     		sxth	r0, r0
 231              	.LVL22:
 225:Src/BLDC_controller.c **** 
 226:Src/BLDC_controller.c ****   /* MinMax: '<S16>/MinMax' */
 227:Src/BLDC_controller.c ****   if (rty_cnt_0 < rtu_max) {
 232              		.loc 1 227 3 is_stmt 1 view .LVU63
 233              		.loc 1 227 6 is_stmt 0 view .LVU64
 234 000a 8842     		cmp	r0, r1
ARM GAS  /var/folders/2w/5wbrmvx534s_vk8svtxz852c0000gn/T//cccje1sL.s 			page 9


 235 000c 03DA     		bge	.L16
 228:Src/BLDC_controller.c ****     /* Update for UnitDelay: '<S18>/UnitDelay' */
 229:Src/BLDC_controller.c ****     localDW->UnitDelay_DSTATE = rty_cnt_0;
 236              		.loc 1 229 5 is_stmt 1 view .LVU65
 237              		.loc 1 229 31 is_stmt 0 view .LVU66
 238 000e 1880     		strh	r0, [r3]	@ movhi
 239 0010 7047     		bx	lr
 240              	.LVL23:
 241              	.L18:
 216:Src/BLDC_controller.c ****   } else {
 242              		.loc 1 216 15 view .LVU67
 243 0012 0022     		movs	r2, #0
 244              	.LVL24:
 216:Src/BLDC_controller.c ****   } else {
 245              		.loc 1 216 15 view .LVU68
 246 0014 F7E7     		b	.L15
 247              	.LVL25:
 248              	.L16:
 230:Src/BLDC_controller.c ****   } else {
 231:Src/BLDC_controller.c ****     /* Update for UnitDelay: '<S18>/UnitDelay' */
 232:Src/BLDC_controller.c ****     localDW->UnitDelay_DSTATE = rtu_max;
 249              		.loc 1 232 5 is_stmt 1 view .LVU69
 250              		.loc 1 232 31 is_stmt 0 view .LVU70
 251 0016 1980     		strh	r1, [r3]	@ movhi
 233:Src/BLDC_controller.c ****   }
 234:Src/BLDC_controller.c **** 
 235:Src/BLDC_controller.c ****   /* End of MinMax: '<S16>/MinMax' */
 236:Src/BLDC_controller.c ****   return rty_cnt_0;
 252              		.loc 1 236 3 is_stmt 1 view .LVU71
 237:Src/BLDC_controller.c **** }
 253              		.loc 1 237 1 is_stmt 0 view .LVU72
 254 0018 7047     		bx	lr
 255              		.cfi_endproc
 256              	.LFE4:
 258              		.section	.text.Low_Pass_Filter_Reset,"ax",%progbits
 259              		.align	1
 260              		.global	Low_Pass_Filter_Reset
 261              		.syntax unified
 262              		.thumb
 263              		.thumb_func
 265              	Low_Pass_Filter_Reset:
 266              	.LVL26:
 267              	.LFB5:
 238:Src/BLDC_controller.c **** 
 239:Src/BLDC_controller.c **** /* System reset for atomic system: '<S50>/Low_Pass_Filter' */
 240:Src/BLDC_controller.c **** void Low_Pass_Filter_Reset(DW_Low_Pass_Filter *localDW)
 241:Src/BLDC_controller.c **** {
 268              		.loc 1 241 1 is_stmt 1 view -0
 269              		.cfi_startproc
 270              		@ args = 0, pretend = 0, frame = 0
 271              		@ frame_needed = 0, uses_anonymous_args = 0
 272              		@ link register save eliminated.
 242:Src/BLDC_controller.c ****   /* InitializeConditions for UnitDelay: '<S56>/UnitDelay1' */
 243:Src/BLDC_controller.c ****   localDW->UnitDelay1_DSTATE[0] = 0;
 273              		.loc 1 243 3 view .LVU74
 274              		.loc 1 243 33 is_stmt 0 view .LVU75
 275 0000 0023     		movs	r3, #0
ARM GAS  /var/folders/2w/5wbrmvx534s_vk8svtxz852c0000gn/T//cccje1sL.s 			page 10


 276 0002 0360     		str	r3, [r0]
 244:Src/BLDC_controller.c ****   localDW->UnitDelay1_DSTATE[1] = 0;
 277              		.loc 1 244 3 is_stmt 1 view .LVU76
 278              		.loc 1 244 33 is_stmt 0 view .LVU77
 279 0004 4360     		str	r3, [r0, #4]
 245:Src/BLDC_controller.c **** }
 280              		.loc 1 245 1 view .LVU78
 281 0006 7047     		bx	lr
 282              		.cfi_endproc
 283              	.LFE5:
 285              		.section	.text.Low_Pass_Filter,"ax",%progbits
 286              		.align	1
 287              		.global	Low_Pass_Filter
 288              		.syntax unified
 289              		.thumb
 290              		.thumb_func
 292              	Low_Pass_Filter:
 293              	.LVL27:
 294              	.LFB6:
 246:Src/BLDC_controller.c **** 
 247:Src/BLDC_controller.c **** /* Output and update for atomic system: '<S50>/Low_Pass_Filter' */
 248:Src/BLDC_controller.c **** void Low_Pass_Filter(const int16_T rtu_u[2], uint16_T rtu_coef, int16_T rty_y[2],
 249:Src/BLDC_controller.c ****                      DW_Low_Pass_Filter *localDW)
 250:Src/BLDC_controller.c **** {
 295              		.loc 1 250 1 is_stmt 1 view -0
 296              		.cfi_startproc
 297              		@ args = 0, pretend = 0, frame = 0
 298              		@ frame_needed = 0, uses_anonymous_args = 0
 299              		@ link register save eliminated.
 300              		.loc 1 250 1 is_stmt 0 view .LVU80
 301 0000 30B4     		push	{r4, r5}
 302              	.LCFI0:
 303              		.cfi_def_cfa_offset 8
 304              		.cfi_offset 4, -8
 305              		.cfi_offset 5, -4
 306 0002 8446     		mov	ip, r0
 251:Src/BLDC_controller.c ****   int32_T rtb_Sum3_g;
 307              		.loc 1 251 3 is_stmt 1 view .LVU81
 252:Src/BLDC_controller.c **** 
 253:Src/BLDC_controller.c ****   /* Sum: '<S56>/Sum2' incorporates:
 254:Src/BLDC_controller.c ****    *  UnitDelay: '<S56>/UnitDelay1'
 255:Src/BLDC_controller.c ****    */
 256:Src/BLDC_controller.c ****   rtb_Sum3_g = rtu_u[0] - (localDW->UnitDelay1_DSTATE[0] >> 16);
 308              		.loc 1 256 3 view .LVU82
 309              		.loc 1 256 21 is_stmt 0 view .LVU83
 310 0004 B0F90040 		ldrsh	r4, [r0]
 311              		.loc 1 256 54 view .LVU84
 312 0008 1D68     		ldr	r5, [r3]
 313              		.loc 1 256 14 view .LVU85
 314 000a A4EB2544 		sub	r4, r4, r5, asr #16
 315              	.LVL28:
 257:Src/BLDC_controller.c ****   if (rtb_Sum3_g > 32767) {
 316              		.loc 1 257 3 is_stmt 1 view .LVU86
 317              		.loc 1 257 6 is_stmt 0 view .LVU87
 318 000e B4F5004F 		cmp	r4, #32768
 319 0012 04DA     		bge	.L23
 258:Src/BLDC_controller.c ****     rtb_Sum3_g = 32767;
ARM GAS  /var/folders/2w/5wbrmvx534s_vk8svtxz852c0000gn/T//cccje1sL.s 			page 11


 259:Src/BLDC_controller.c ****   } else {
 260:Src/BLDC_controller.c ****     if (rtb_Sum3_g < -32768) {
 320              		.loc 1 260 5 is_stmt 1 view .LVU88
 321              		.loc 1 260 8 is_stmt 0 view .LVU89
 322 0014 14F5004F 		cmn	r4, #32768
 323 0018 03DA     		bge	.L21
 261:Src/BLDC_controller.c ****       rtb_Sum3_g = -32768;
 324              		.loc 1 261 18 view .LVU90
 325 001a 0F4C     		ldr	r4, .L28
 326              	.LVL29:
 327              		.loc 1 261 18 view .LVU91
 328 001c 01E0     		b	.L21
 329              	.LVL30:
 330              	.L23:
 258:Src/BLDC_controller.c ****     rtb_Sum3_g = 32767;
 331              		.loc 1 258 16 view .LVU92
 332 001e 47F6FF74 		movw	r4, #32767
 333              	.LVL31:
 334              	.L21:
 262:Src/BLDC_controller.c ****     }
 263:Src/BLDC_controller.c ****   }
 264:Src/BLDC_controller.c **** 
 265:Src/BLDC_controller.c ****   /* Sum: '<S56>/Sum3' incorporates:
 266:Src/BLDC_controller.c ****    *  Product: '<S56>/Divide3'
 267:Src/BLDC_controller.c ****    *  Sum: '<S56>/Sum2'
 268:Src/BLDC_controller.c ****    *  UnitDelay: '<S56>/UnitDelay1'
 269:Src/BLDC_controller.c ****    */
 270:Src/BLDC_controller.c ****   rtb_Sum3_g = rtu_coef * rtb_Sum3_g + localDW->UnitDelay1_DSTATE[0];
 335              		.loc 1 270 3 is_stmt 1 view .LVU93
 336              		.loc 1 270 14 is_stmt 0 view .LVU94
 337 0022 04FB0154 		mla	r4, r4, r1, r5
 338              	.LVL32:
 271:Src/BLDC_controller.c **** 
 272:Src/BLDC_controller.c ****   /* DataTypeConversion: '<S56>/Data Type Conversion' */
 273:Src/BLDC_controller.c ****   rty_y[0] = (int16_T)(rtb_Sum3_g >> 16);
 339              		.loc 1 273 3 is_stmt 1 view .LVU95
 340              		.loc 1 273 14 is_stmt 0 view .LVU96
 341 0026 2014     		asrs	r0, r4, #16
 342              	.LVL33:
 343              		.loc 1 273 12 view .LVU97
 344 0028 1080     		strh	r0, [r2]	@ movhi
 274:Src/BLDC_controller.c **** 
 275:Src/BLDC_controller.c ****   /* Update for UnitDelay: '<S56>/UnitDelay1' */
 276:Src/BLDC_controller.c ****   localDW->UnitDelay1_DSTATE[0] = rtb_Sum3_g;
 345              		.loc 1 276 3 is_stmt 1 view .LVU98
 346              		.loc 1 276 33 is_stmt 0 view .LVU99
 347 002a 1C60     		str	r4, [r3]
 277:Src/BLDC_controller.c **** 
 278:Src/BLDC_controller.c ****   /* Sum: '<S56>/Sum2' incorporates:
 279:Src/BLDC_controller.c ****    *  UnitDelay: '<S56>/UnitDelay1'
 280:Src/BLDC_controller.c ****    */
 281:Src/BLDC_controller.c ****   rtb_Sum3_g = rtu_u[1] - (localDW->UnitDelay1_DSTATE[1] >> 16);
 348              		.loc 1 281 3 is_stmt 1 view .LVU100
 349              		.loc 1 281 21 is_stmt 0 view .LVU101
 350 002c BCF90200 		ldrsh	r0, [ip, #2]
 351              		.loc 1 281 54 view .LVU102
 352 0030 5C68     		ldr	r4, [r3, #4]
ARM GAS  /var/folders/2w/5wbrmvx534s_vk8svtxz852c0000gn/T//cccje1sL.s 			page 12


 353              	.LVL34:
 354              		.loc 1 281 14 view .LVU103
 355 0032 A0EB2440 		sub	r0, r0, r4, asr #16
 356              	.LVL35:
 282:Src/BLDC_controller.c ****   if (rtb_Sum3_g > 32767) {
 357              		.loc 1 282 3 is_stmt 1 view .LVU104
 358              		.loc 1 282 6 is_stmt 0 view .LVU105
 359 0036 B0F5004F 		cmp	r0, #32768
 360 003a 04DA     		bge	.L25
 283:Src/BLDC_controller.c ****     rtb_Sum3_g = 32767;
 284:Src/BLDC_controller.c ****   } else {
 285:Src/BLDC_controller.c ****     if (rtb_Sum3_g < -32768) {
 361              		.loc 1 285 5 is_stmt 1 view .LVU106
 362              		.loc 1 285 8 is_stmt 0 view .LVU107
 363 003c 10F5004F 		cmn	r0, #32768
 364 0040 03DA     		bge	.L22
 286:Src/BLDC_controller.c ****       rtb_Sum3_g = -32768;
 365              		.loc 1 286 18 view .LVU108
 366 0042 0548     		ldr	r0, .L28
 367              	.LVL36:
 368              		.loc 1 286 18 view .LVU109
 369 0044 01E0     		b	.L22
 370              	.LVL37:
 371              	.L25:
 283:Src/BLDC_controller.c ****     rtb_Sum3_g = 32767;
 372              		.loc 1 283 16 view .LVU110
 373 0046 47F6FF70 		movw	r0, #32767
 374              	.LVL38:
 375              	.L22:
 287:Src/BLDC_controller.c ****     }
 288:Src/BLDC_controller.c ****   }
 289:Src/BLDC_controller.c **** 
 290:Src/BLDC_controller.c ****   /* Sum: '<S56>/Sum3' incorporates:
 291:Src/BLDC_controller.c ****    *  Product: '<S56>/Divide3'
 292:Src/BLDC_controller.c ****    *  Sum: '<S56>/Sum2'
 293:Src/BLDC_controller.c ****    *  UnitDelay: '<S56>/UnitDelay1'
 294:Src/BLDC_controller.c ****    */
 295:Src/BLDC_controller.c ****   rtb_Sum3_g = rtu_coef * rtb_Sum3_g + localDW->UnitDelay1_DSTATE[1];
 376              		.loc 1 295 3 is_stmt 1 view .LVU111
 377              		.loc 1 295 14 is_stmt 0 view .LVU112
 378 004a 00FB0140 		mla	r0, r0, r1, r4
 379              	.LVL39:
 296:Src/BLDC_controller.c **** 
 297:Src/BLDC_controller.c ****   /* DataTypeConversion: '<S56>/Data Type Conversion' */
 298:Src/BLDC_controller.c ****   rty_y[1] = (int16_T)(rtb_Sum3_g >> 16);
 380              		.loc 1 298 3 is_stmt 1 view .LVU113
 381              		.loc 1 298 14 is_stmt 0 view .LVU114
 382 004e 0114     		asrs	r1, r0, #16
 383              	.LVL40:
 384              		.loc 1 298 12 view .LVU115
 385 0050 5180     		strh	r1, [r2, #2]	@ movhi
 299:Src/BLDC_controller.c **** 
 300:Src/BLDC_controller.c ****   /* Update for UnitDelay: '<S56>/UnitDelay1' */
 301:Src/BLDC_controller.c ****   localDW->UnitDelay1_DSTATE[1] = rtb_Sum3_g;
 386              		.loc 1 301 3 is_stmt 1 view .LVU116
 387              		.loc 1 301 33 is_stmt 0 view .LVU117
 388 0052 5860     		str	r0, [r3, #4]
ARM GAS  /var/folders/2w/5wbrmvx534s_vk8svtxz852c0000gn/T//cccje1sL.s 			page 13


 302:Src/BLDC_controller.c **** }
 389              		.loc 1 302 1 view .LVU118
 390 0054 30BC     		pop	{r4, r5}
 391              	.LCFI1:
 392              		.cfi_restore 5
 393              		.cfi_restore 4
 394              		.cfi_def_cfa_offset 0
 395 0056 7047     		bx	lr
 396              	.L29:
 397              		.align	2
 398              	.L28:
 399 0058 0080FFFF 		.word	-32768
 400              		.cfi_endproc
 401              	.LFE6:
 403              		.section	.text.Counter_b_Init,"ax",%progbits
 404              		.align	1
 405              		.global	Counter_b_Init
 406              		.syntax unified
 407              		.thumb
 408              		.thumb_func
 410              	Counter_b_Init:
 411              	.LVL41:
 412              	.LFB7:
 303:Src/BLDC_controller.c **** 
 304:Src/BLDC_controller.c **** /*
 305:Src/BLDC_controller.c ****  * System initialize for atomic system:
 306:Src/BLDC_controller.c ****  *    '<S25>/Counter'
 307:Src/BLDC_controller.c ****  *    '<S24>/Counter'
 308:Src/BLDC_controller.c ****  */
 309:Src/BLDC_controller.c **** void Counter_b_Init(DW_Counter_b *localDW, uint16_T rtp_z_cntInit)
 310:Src/BLDC_controller.c **** {
 413              		.loc 1 310 1 is_stmt 1 view -0
 414              		.cfi_startproc
 415              		@ args = 0, pretend = 0, frame = 0
 416              		@ frame_needed = 0, uses_anonymous_args = 0
 417              		@ link register save eliminated.
 311:Src/BLDC_controller.c ****   /* InitializeConditions for UnitDelay: '<S30>/UnitDelay' */
 312:Src/BLDC_controller.c ****   localDW->UnitDelay_DSTATE = rtp_z_cntInit;
 418              		.loc 1 312 3 view .LVU120
 419              		.loc 1 312 29 is_stmt 0 view .LVU121
 420 0000 0180     		strh	r1, [r0]	@ movhi
 313:Src/BLDC_controller.c **** }
 421              		.loc 1 313 1 view .LVU122
 422 0002 7047     		bx	lr
 423              		.cfi_endproc
 424              	.LFE7:
 426              		.section	.text.Counter_n,"ax",%progbits
 427              		.align	1
 428              		.global	Counter_n
 429              		.syntax unified
 430              		.thumb
 431              		.thumb_func
 433              	Counter_n:
 434              	.LVL42:
 435              	.LFB8:
 314:Src/BLDC_controller.c **** 
 315:Src/BLDC_controller.c **** /*
ARM GAS  /var/folders/2w/5wbrmvx534s_vk8svtxz852c0000gn/T//cccje1sL.s 			page 14


 316:Src/BLDC_controller.c ****  * Output and update for atomic system:
 317:Src/BLDC_controller.c ****  *    '<S25>/Counter'
 318:Src/BLDC_controller.c ****  *    '<S24>/Counter'
 319:Src/BLDC_controller.c ****  */
 320:Src/BLDC_controller.c **** void Counter_n(uint16_T rtu_inc, uint16_T rtu_max, boolean_T rtu_rst, uint16_T
 321:Src/BLDC_controller.c ****                *rty_cnt, DW_Counter_b *localDW)
 322:Src/BLDC_controller.c **** {
 436              		.loc 1 322 1 is_stmt 1 view -0
 437              		.cfi_startproc
 438              		@ args = 4, pretend = 0, frame = 0
 439              		@ frame_needed = 0, uses_anonymous_args = 0
 440              		@ link register save eliminated.
 441              		.loc 1 322 1 is_stmt 0 view .LVU124
 442 0000 10B4     		push	{r4}
 443              	.LCFI2:
 444              		.cfi_def_cfa_offset 4
 445              		.cfi_offset 4, -4
 446 0002 019C     		ldr	r4, [sp, #4]
 323:Src/BLDC_controller.c ****   uint16_T rtu_rst_0;
 447              		.loc 1 323 3 is_stmt 1 view .LVU125
 324:Src/BLDC_controller.c **** 
 325:Src/BLDC_controller.c ****   /* Switch: '<S30>/Switch1' incorporates:
 326:Src/BLDC_controller.c ****    *  Constant: '<S30>/Constant23'
 327:Src/BLDC_controller.c ****    *  UnitDelay: '<S30>/UnitDelay'
 328:Src/BLDC_controller.c ****    */
 329:Src/BLDC_controller.c ****   if (rtu_rst) {
 448              		.loc 1 329 3 view .LVU126
 449              		.loc 1 329 6 is_stmt 0 view .LVU127
 450 0004 42B9     		cbnz	r2, .L35
 330:Src/BLDC_controller.c ****     rtu_rst_0 = 0U;
 331:Src/BLDC_controller.c ****   } else {
 332:Src/BLDC_controller.c ****     rtu_rst_0 = localDW->UnitDelay_DSTATE;
 451              		.loc 1 332 5 is_stmt 1 view .LVU128
 452              		.loc 1 332 15 is_stmt 0 view .LVU129
 453 0006 2288     		ldrh	r2, [r4]
 454              	.LVL43:
 455              	.L32:
 333:Src/BLDC_controller.c ****   }
 334:Src/BLDC_controller.c **** 
 335:Src/BLDC_controller.c ****   /* End of Switch: '<S30>/Switch1' */
 336:Src/BLDC_controller.c **** 
 337:Src/BLDC_controller.c ****   /* Sum: '<S29>/Sum1' */
 338:Src/BLDC_controller.c ****   *rty_cnt = (uint16_T)((uint32_T)rtu_inc + rtu_rst_0);
 456              		.loc 1 338 3 is_stmt 1 view .LVU130
 457              		.loc 1 338 14 is_stmt 0 view .LVU131
 458 0008 1044     		add	r0, r0, r2
 459              	.LVL44:
 460              		.loc 1 338 14 view .LVU132
 461 000a 80B2     		uxth	r0, r0
 462              		.loc 1 338 12 view .LVU133
 463 000c 1880     		strh	r0, [r3]	@ movhi
 339:Src/BLDC_controller.c **** 
 340:Src/BLDC_controller.c ****   /* MinMax: '<S29>/MinMax' */
 341:Src/BLDC_controller.c ****   if (*rty_cnt < rtu_max) {
 464              		.loc 1 341 3 is_stmt 1 view .LVU134
 465              		.loc 1 341 6 is_stmt 0 view .LVU135
 466 000e 8842     		cmp	r0, r1
ARM GAS  /var/folders/2w/5wbrmvx534s_vk8svtxz852c0000gn/T//cccje1sL.s 			page 15


 467 0010 04D2     		bcs	.L33
 342:Src/BLDC_controller.c ****     /* Update for UnitDelay: '<S30>/UnitDelay' */
 343:Src/BLDC_controller.c ****     localDW->UnitDelay_DSTATE = *rty_cnt;
 468              		.loc 1 343 5 is_stmt 1 view .LVU136
 469              		.loc 1 343 31 is_stmt 0 view .LVU137
 470 0012 2080     		strh	r0, [r4]	@ movhi
 471              	.L31:
 344:Src/BLDC_controller.c ****   } else {
 345:Src/BLDC_controller.c ****     /* Update for UnitDelay: '<S30>/UnitDelay' */
 346:Src/BLDC_controller.c ****     localDW->UnitDelay_DSTATE = rtu_max;
 347:Src/BLDC_controller.c ****   }
 348:Src/BLDC_controller.c **** 
 349:Src/BLDC_controller.c ****   /* End of MinMax: '<S29>/MinMax' */
 350:Src/BLDC_controller.c **** }
 472              		.loc 1 350 1 view .LVU138
 473 0014 10BC     		pop	{r4}
 474              	.LCFI3:
 475              		.cfi_remember_state
 476              		.cfi_restore 4
 477              		.cfi_def_cfa_offset 0
 478              	.LVL45:
 479              		.loc 1 350 1 view .LVU139
 480 0016 7047     		bx	lr
 481              	.LVL46:
 482              	.L35:
 483              	.LCFI4:
 484              		.cfi_restore_state
 330:Src/BLDC_controller.c ****   } else {
 485              		.loc 1 330 15 view .LVU140
 486 0018 0022     		movs	r2, #0
 487              	.LVL47:
 330:Src/BLDC_controller.c ****   } else {
 488              		.loc 1 330 15 view .LVU141
 489 001a F5E7     		b	.L32
 490              	.LVL48:
 491              	.L33:
 346:Src/BLDC_controller.c ****   }
 492              		.loc 1 346 5 is_stmt 1 view .LVU142
 346:Src/BLDC_controller.c ****   }
 493              		.loc 1 346 31 is_stmt 0 view .LVU143
 494 001c 2180     		strh	r1, [r4]	@ movhi
 495              		.loc 1 350 1 view .LVU144
 496 001e F9E7     		b	.L31
 497              		.cfi_endproc
 498              	.LFE8:
 500              		.section	.text.either_edge,"ax",%progbits
 501              		.align	1
 502              		.global	either_edge
 503              		.syntax unified
 504              		.thumb
 505              		.thumb_func
 507              	either_edge:
 508              	.LVL49:
 509              	.LFB9:
 351:Src/BLDC_controller.c **** 
 352:Src/BLDC_controller.c **** /*
 353:Src/BLDC_controller.c ****  * Output and update for atomic system:
ARM GAS  /var/folders/2w/5wbrmvx534s_vk8svtxz852c0000gn/T//cccje1sL.s 			page 16


 354:Src/BLDC_controller.c ****  *    '<S21>/either_edge'
 355:Src/BLDC_controller.c ****  *    '<S20>/either_edge'
 356:Src/BLDC_controller.c ****  */
 357:Src/BLDC_controller.c **** void either_edge(boolean_T rtu_u, boolean_T *rty_y, DW_either_edge *localDW)
 358:Src/BLDC_controller.c **** {
 510              		.loc 1 358 1 is_stmt 1 view -0
 511              		.cfi_startproc
 512              		@ args = 0, pretend = 0, frame = 0
 513              		@ frame_needed = 0, uses_anonymous_args = 0
 514              		@ link register save eliminated.
 359:Src/BLDC_controller.c ****   /* RelationalOperator: '<S26>/Relational Operator' incorporates:
 360:Src/BLDC_controller.c ****    *  UnitDelay: '<S26>/UnitDelay'
 361:Src/BLDC_controller.c ****    */
 362:Src/BLDC_controller.c ****   *rty_y = (rtu_u != localDW->UnitDelay_DSTATE);
 515              		.loc 1 362 3 view .LVU146
 516              		.loc 1 362 29 is_stmt 0 view .LVU147
 517 0000 1378     		ldrb	r3, [r2]	@ zero_extendqisi2
 518              		.loc 1 362 19 view .LVU148
 519 0002 1B1A     		subs	r3, r3, r0
 520 0004 18BF     		it	ne
 521 0006 0123     		movne	r3, #1
 522              		.loc 1 362 10 view .LVU149
 523 0008 0B70     		strb	r3, [r1]
 363:Src/BLDC_controller.c **** 
 364:Src/BLDC_controller.c ****   /* Update for UnitDelay: '<S26>/UnitDelay' */
 365:Src/BLDC_controller.c ****   localDW->UnitDelay_DSTATE = rtu_u;
 524              		.loc 1 365 3 is_stmt 1 view .LVU150
 525              		.loc 1 365 29 is_stmt 0 view .LVU151
 526 000a 1070     		strb	r0, [r2]
 366:Src/BLDC_controller.c **** }
 527              		.loc 1 366 1 view .LVU152
 528 000c 7047     		bx	lr
 529              		.cfi_endproc
 530              	.LFE9:
 532              		.section	.text.Debounce_Filter_Init,"ax",%progbits
 533              		.align	1
 534              		.global	Debounce_Filter_Init
 535              		.syntax unified
 536              		.thumb
 537              		.thumb_func
 539              	Debounce_Filter_Init:
 540              	.LVL50:
 541              	.LFB10:
 367:Src/BLDC_controller.c **** 
 368:Src/BLDC_controller.c **** /* System initialize for atomic system: '<S20>/Debounce_Filter' */
 369:Src/BLDC_controller.c **** void Debounce_Filter_Init(DW_Debounce_Filter *localDW)
 370:Src/BLDC_controller.c **** {
 542              		.loc 1 370 1 is_stmt 1 view -0
 543              		.cfi_startproc
 544              		@ args = 0, pretend = 0, frame = 0
 545              		@ frame_needed = 0, uses_anonymous_args = 0
 546              		.loc 1 370 1 is_stmt 0 view .LVU154
 547 0000 10B5     		push	{r4, lr}
 548              	.LCFI5:
 549              		.cfi_def_cfa_offset 8
 550              		.cfi_offset 4, -8
 551              		.cfi_offset 14, -4
ARM GAS  /var/folders/2w/5wbrmvx534s_vk8svtxz852c0000gn/T//cccje1sL.s 			page 17


 552 0002 0446     		mov	r4, r0
 371:Src/BLDC_controller.c ****   /* SystemInitialize for IfAction SubSystem: '<S21>/Qualification' */
 372:Src/BLDC_controller.c **** 
 373:Src/BLDC_controller.c ****   /* SystemInitialize for Atomic SubSystem: '<S25>/Counter' */
 374:Src/BLDC_controller.c ****   Counter_b_Init(&localDW->Counter_n1, 0U);
 553              		.loc 1 374 3 is_stmt 1 view .LVU155
 554 0004 0021     		movs	r1, #0
 555 0006 0430     		adds	r0, r0, #4
 556              	.LVL51:
 557              		.loc 1 374 3 is_stmt 0 view .LVU156
 558 0008 FFF7FEFF 		bl	Counter_b_Init
 559              	.LVL52:
 375:Src/BLDC_controller.c **** 
 376:Src/BLDC_controller.c ****   /* End of SystemInitialize for SubSystem: '<S25>/Counter' */
 377:Src/BLDC_controller.c **** 
 378:Src/BLDC_controller.c ****   /* End of SystemInitialize for SubSystem: '<S21>/Qualification' */
 379:Src/BLDC_controller.c **** 
 380:Src/BLDC_controller.c ****   /* SystemInitialize for IfAction SubSystem: '<S21>/Dequalification' */
 381:Src/BLDC_controller.c **** 
 382:Src/BLDC_controller.c ****   /* SystemInitialize for Atomic SubSystem: '<S24>/Counter' */
 383:Src/BLDC_controller.c ****   Counter_b_Init(&localDW->Counter_e, 0U);
 560              		.loc 1 383 3 is_stmt 1 view .LVU157
 561 000c 0021     		movs	r1, #0
 562 000e A01C     		adds	r0, r4, #2
 563 0010 FFF7FEFF 		bl	Counter_b_Init
 564              	.LVL53:
 384:Src/BLDC_controller.c **** 
 385:Src/BLDC_controller.c ****   /* End of SystemInitialize for SubSystem: '<S24>/Counter' */
 386:Src/BLDC_controller.c **** 
 387:Src/BLDC_controller.c ****   /* End of SystemInitialize for SubSystem: '<S21>/Dequalification' */
 388:Src/BLDC_controller.c **** }
 565              		.loc 1 388 1 is_stmt 0 view .LVU158
 566 0014 10BD     		pop	{r4, pc}
 567              		.loc 1 388 1 view .LVU159
 568              		.cfi_endproc
 569              	.LFE10:
 571              		.section	.text.Debounce_Filter,"ax",%progbits
 572              		.align	1
 573              		.global	Debounce_Filter
 574              		.syntax unified
 575              		.thumb
 576              		.thumb_func
 578              	Debounce_Filter:
 579              	.LVL54:
 580              	.LFB11:
 389:Src/BLDC_controller.c **** 
 390:Src/BLDC_controller.c **** /* Output and update for atomic system: '<S20>/Debounce_Filter' */
 391:Src/BLDC_controller.c **** void Debounce_Filter(boolean_T rtu_u, uint16_T rtu_tAcv, uint16_T rtu_tDeacv,
 392:Src/BLDC_controller.c ****                      boolean_T *rty_y, DW_Debounce_Filter *localDW)
 393:Src/BLDC_controller.c **** {
 581              		.loc 1 393 1 is_stmt 1 view -0
 582              		.cfi_startproc
 583              		@ args = 4, pretend = 0, frame = 8
 584              		@ frame_needed = 0, uses_anonymous_args = 0
 585              		.loc 1 393 1 is_stmt 0 view .LVU161
 586 0000 2DE9F041 		push	{r4, r5, r6, r7, r8, lr}
 587              	.LCFI6:
ARM GAS  /var/folders/2w/5wbrmvx534s_vk8svtxz852c0000gn/T//cccje1sL.s 			page 18


 588              		.cfi_def_cfa_offset 24
 589              		.cfi_offset 4, -24
 590              		.cfi_offset 5, -20
 591              		.cfi_offset 6, -16
 592              		.cfi_offset 7, -12
 593              		.cfi_offset 8, -8
 594              		.cfi_offset 14, -4
 595 0004 84B0     		sub	sp, sp, #16
 596              	.LCFI7:
 597              		.cfi_def_cfa_offset 40
 598 0006 0646     		mov	r6, r0
 599 0008 8846     		mov	r8, r1
 600 000a 1746     		mov	r7, r2
 601 000c 1D46     		mov	r5, r3
 602 000e 0A9C     		ldr	r4, [sp, #40]
 394:Src/BLDC_controller.c ****   uint16_T rtb_Sum1_n;
 603              		.loc 1 394 3 is_stmt 1 view .LVU162
 395:Src/BLDC_controller.c ****   boolean_T rtb_RelationalOperator_g;
 604              		.loc 1 395 3 view .LVU163
 396:Src/BLDC_controller.c **** 
 397:Src/BLDC_controller.c ****   /* Outputs for Atomic SubSystem: '<S21>/either_edge' */
 398:Src/BLDC_controller.c ****   either_edge(rtu_u, &rtb_RelationalOperator_g, &localDW->either_edge_p);
 605              		.loc 1 398 3 view .LVU164
 606 0010 2246     		mov	r2, r4
 607              	.LVL55:
 608              		.loc 1 398 3 is_stmt 0 view .LVU165
 609 0012 0DF10D01 		add	r1, sp, #13
 610              	.LVL56:
 611              		.loc 1 398 3 view .LVU166
 612 0016 FFF7FEFF 		bl	either_edge
 613              	.LVL57:
 399:Src/BLDC_controller.c **** 
 400:Src/BLDC_controller.c ****   /* End of Outputs for SubSystem: '<S21>/either_edge' */
 401:Src/BLDC_controller.c **** 
 402:Src/BLDC_controller.c ****   /* If: '<S21>/If2' incorporates:
 403:Src/BLDC_controller.c ****    *  Constant: '<S24>/Constant6'
 404:Src/BLDC_controller.c ****    *  Constant: '<S25>/Constant6'
 405:Src/BLDC_controller.c ****    *  Inport: '<S23>/yPrev'
 406:Src/BLDC_controller.c ****    *  Logic: '<S21>/Logical Operator1'
 407:Src/BLDC_controller.c ****    *  Logic: '<S21>/Logical Operator2'
 408:Src/BLDC_controller.c ****    *  Logic: '<S21>/Logical Operator3'
 409:Src/BLDC_controller.c ****    *  Logic: '<S21>/Logical Operator4'
 410:Src/BLDC_controller.c ****    *  UnitDelay: '<S21>/UnitDelay'
 411:Src/BLDC_controller.c ****    */
 412:Src/BLDC_controller.c ****   if (rtu_u && (!localDW->UnitDelay_DSTATE)) {
 614              		.loc 1 412 3 is_stmt 1 view .LVU167
 615              		.loc 1 412 6 is_stmt 0 view .LVU168
 616 001a 0EB1     		cbz	r6, .L41
 617              		.loc 1 412 25 discriminator 1 view .LVU169
 618 001c A379     		ldrb	r3, [r4, #6]	@ zero_extendqisi2
 619              		.loc 1 412 13 discriminator 1 view .LVU170
 620 001e 4BB1     		cbz	r3, .L51
 621              	.L41:
 413:Src/BLDC_controller.c ****     /* Outputs for IfAction SubSystem: '<S21>/Qualification' incorporates:
 414:Src/BLDC_controller.c ****      *  ActionPort: '<S25>/Action Port'
 415:Src/BLDC_controller.c ****      */
 416:Src/BLDC_controller.c **** 
ARM GAS  /var/folders/2w/5wbrmvx534s_vk8svtxz852c0000gn/T//cccje1sL.s 			page 19


 417:Src/BLDC_controller.c ****     /* Outputs for Atomic SubSystem: '<S25>/Counter' */
 418:Src/BLDC_controller.c ****     Counter_n(1U, rtu_tAcv, rtb_RelationalOperator_g, &rtb_Sum1_n,
 419:Src/BLDC_controller.c ****               &localDW->Counter_n1);
 420:Src/BLDC_controller.c **** 
 421:Src/BLDC_controller.c ****     /* End of Outputs for SubSystem: '<S25>/Counter' */
 422:Src/BLDC_controller.c **** 
 423:Src/BLDC_controller.c ****     /* Switch: '<S25>/Switch2' incorporates:
 424:Src/BLDC_controller.c ****      *  Constant: '<S25>/Constant6'
 425:Src/BLDC_controller.c ****      *  RelationalOperator: '<S25>/Relational Operator2'
 426:Src/BLDC_controller.c ****      */
 427:Src/BLDC_controller.c ****     *rty_y = ((rtb_Sum1_n > rtu_tAcv) || localDW->UnitDelay_DSTATE);
 428:Src/BLDC_controller.c **** 
 429:Src/BLDC_controller.c ****     /* End of Outputs for SubSystem: '<S21>/Qualification' */
 430:Src/BLDC_controller.c ****   } else if ((!rtu_u) && localDW->UnitDelay_DSTATE) {
 622              		.loc 1 430 10 is_stmt 1 view .LVU171
 623              		.loc 1 430 13 is_stmt 0 view .LVU172
 624 0020 0EB9     		cbnz	r6, .L44
 625              		.loc 1 430 33 discriminator 1 view .LVU173
 626 0022 A379     		ldrb	r3, [r4, #6]	@ zero_extendqisi2
 627              		.loc 1 430 23 discriminator 1 view .LVU174
 628 0024 EBB9     		cbnz	r3, .L52
 629              	.L44:
 431:Src/BLDC_controller.c ****     /* Outputs for IfAction SubSystem: '<S21>/Dequalification' incorporates:
 432:Src/BLDC_controller.c ****      *  ActionPort: '<S24>/Action Port'
 433:Src/BLDC_controller.c ****      */
 434:Src/BLDC_controller.c **** 
 435:Src/BLDC_controller.c ****     /* Outputs for Atomic SubSystem: '<S24>/Counter' */
 436:Src/BLDC_controller.c ****     Counter_n(1U, rtu_tDeacv, rtb_RelationalOperator_g, &rtb_Sum1_n,
 437:Src/BLDC_controller.c ****               &localDW->Counter_e);
 438:Src/BLDC_controller.c **** 
 439:Src/BLDC_controller.c ****     /* End of Outputs for SubSystem: '<S24>/Counter' */
 440:Src/BLDC_controller.c **** 
 441:Src/BLDC_controller.c ****     /* Switch: '<S24>/Switch2' incorporates:
 442:Src/BLDC_controller.c ****      *  Constant: '<S24>/Constant6'
 443:Src/BLDC_controller.c ****      *  RelationalOperator: '<S24>/Relational Operator2'
 444:Src/BLDC_controller.c ****      */
 445:Src/BLDC_controller.c ****     *rty_y = ((!(rtb_Sum1_n > rtu_tDeacv)) && localDW->UnitDelay_DSTATE);
 446:Src/BLDC_controller.c **** 
 447:Src/BLDC_controller.c ****     /* End of Outputs for SubSystem: '<S21>/Dequalification' */
 448:Src/BLDC_controller.c ****   } else {
 449:Src/BLDC_controller.c ****     /* Outputs for IfAction SubSystem: '<S21>/Default' incorporates:
 450:Src/BLDC_controller.c ****      *  ActionPort: '<S23>/Action Port'
 451:Src/BLDC_controller.c ****      */
 452:Src/BLDC_controller.c ****     *rty_y = localDW->UnitDelay_DSTATE;
 630              		.loc 1 452 5 is_stmt 1 view .LVU175
 631              		.loc 1 452 21 is_stmt 0 view .LVU176
 632 0026 A379     		ldrb	r3, [r4, #6]	@ zero_extendqisi2
 633              		.loc 1 452 12 view .LVU177
 634 0028 2B70     		strb	r3, [r5]
 635              	.L43:
 453:Src/BLDC_controller.c **** 
 454:Src/BLDC_controller.c ****     /* End of Outputs for SubSystem: '<S21>/Default' */
 455:Src/BLDC_controller.c ****   }
 456:Src/BLDC_controller.c **** 
 457:Src/BLDC_controller.c ****   /* End of If: '<S21>/If2' */
 458:Src/BLDC_controller.c **** 
 459:Src/BLDC_controller.c ****   /* Update for UnitDelay: '<S21>/UnitDelay' */
ARM GAS  /var/folders/2w/5wbrmvx534s_vk8svtxz852c0000gn/T//cccje1sL.s 			page 20


 460:Src/BLDC_controller.c ****   localDW->UnitDelay_DSTATE = *rty_y;
 636              		.loc 1 460 3 is_stmt 1 view .LVU178
 637              		.loc 1 460 31 is_stmt 0 view .LVU179
 638 002a 2B78     		ldrb	r3, [r5]	@ zero_extendqisi2
 639              		.loc 1 460 29 view .LVU180
 640 002c A371     		strb	r3, [r4, #6]
 461:Src/BLDC_controller.c **** }
 641              		.loc 1 461 1 view .LVU181
 642 002e 04B0     		add	sp, sp, #16
 643              	.LCFI8:
 644              		.cfi_remember_state
 645              		.cfi_def_cfa_offset 24
 646              		@ sp needed
 647 0030 BDE8F081 		pop	{r4, r5, r6, r7, r8, pc}
 648              	.LVL58:
 649              	.L51:
 650              	.LCFI9:
 651              		.cfi_restore_state
 418:Src/BLDC_controller.c ****               &localDW->Counter_n1);
 652              		.loc 1 418 5 is_stmt 1 view .LVU182
 653 0034 231D     		adds	r3, r4, #4
 654 0036 0093     		str	r3, [sp]
 655 0038 0DF10E03 		add	r3, sp, #14
 656 003c 9DF80D20 		ldrb	r2, [sp, #13]	@ zero_extendqisi2
 657 0040 4146     		mov	r1, r8
 658 0042 0120     		movs	r0, #1
 659 0044 FFF7FEFF 		bl	Counter_n
 660              	.LVL59:
 427:Src/BLDC_controller.c **** 
 661              		.loc 1 427 5 view .LVU183
 427:Src/BLDC_controller.c **** 
 662              		.loc 1 427 27 is_stmt 0 view .LVU184
 663 0048 BDF80E30 		ldrh	r3, [sp, #14]
 427:Src/BLDC_controller.c **** 
 664              		.loc 1 427 39 view .LVU185
 665 004c 4345     		cmp	r3, r8
 666 004e 03D8     		bhi	.L46
 427:Src/BLDC_controller.c **** 
 667              		.loc 1 427 49 discriminator 2 view .LVU186
 668 0050 A379     		ldrb	r3, [r4, #6]	@ zero_extendqisi2
 427:Src/BLDC_controller.c **** 
 669              		.loc 1 427 39 discriminator 2 view .LVU187
 670 0052 23B1     		cbz	r3, .L47
 427:Src/BLDC_controller.c **** 
 671              		.loc 1 427 39 view .LVU188
 672 0054 0123     		movs	r3, #1
 673 0056 00E0     		b	.L42
 674              	.L46:
 675 0058 0123     		movs	r3, #1
 676              	.L42:
 427:Src/BLDC_controller.c **** 
 677              		.loc 1 427 12 discriminator 6 view .LVU189
 678 005a 2B70     		strb	r3, [r5]
 679 005c E5E7     		b	.L43
 680              	.L47:
 427:Src/BLDC_controller.c **** 
 681              		.loc 1 427 39 view .LVU190
ARM GAS  /var/folders/2w/5wbrmvx534s_vk8svtxz852c0000gn/T//cccje1sL.s 			page 21


 682 005e 0023     		movs	r3, #0
 683 0060 FBE7     		b	.L42
 684              	.L52:
 436:Src/BLDC_controller.c ****               &localDW->Counter_e);
 685              		.loc 1 436 5 is_stmt 1 view .LVU191
 686 0062 A31C     		adds	r3, r4, #2
 687 0064 0093     		str	r3, [sp]
 688 0066 0DF10E03 		add	r3, sp, #14
 689 006a 9DF80D20 		ldrb	r2, [sp, #13]	@ zero_extendqisi2
 690 006e 3946     		mov	r1, r7
 691 0070 0120     		movs	r0, #1
 692 0072 FFF7FEFF 		bl	Counter_n
 693              	.LVL60:
 445:Src/BLDC_controller.c **** 
 694              		.loc 1 445 5 view .LVU192
 445:Src/BLDC_controller.c **** 
 695              		.loc 1 445 16 is_stmt 0 view .LVU193
 696 0076 BDF80E30 		ldrh	r3, [sp, #14]
 445:Src/BLDC_controller.c **** 
 697              		.loc 1 445 44 view .LVU194
 698 007a BB42     		cmp	r3, r7
 699 007c 03D8     		bhi	.L48
 445:Src/BLDC_controller.c **** 
 700              		.loc 1 445 54 discriminator 1 view .LVU195
 701 007e A379     		ldrb	r3, [r4, #6]	@ zero_extendqisi2
 445:Src/BLDC_controller.c **** 
 702              		.loc 1 445 44 discriminator 1 view .LVU196
 703 0080 13B1     		cbz	r3, .L45
 445:Src/BLDC_controller.c **** 
 704              		.loc 1 445 44 view .LVU197
 705 0082 0123     		movs	r3, #1
 706 0084 00E0     		b	.L45
 707              	.L48:
 708 0086 0023     		movs	r3, #0
 709              	.L45:
 445:Src/BLDC_controller.c **** 
 710              		.loc 1 445 12 discriminator 6 view .LVU198
 711 0088 2B70     		strb	r3, [r5]
 712 008a CEE7     		b	.L43
 713              		.cfi_endproc
 714              	.LFE11:
 716              		.section	.text.I_backCalc_fixdt_Init,"ax",%progbits
 717              		.align	1
 718              		.global	I_backCalc_fixdt_Init
 719              		.syntax unified
 720              		.thumb
 721              		.thumb_func
 723              	I_backCalc_fixdt_Init:
 724              	.LVL61:
 725              	.LFB12:
 462:Src/BLDC_controller.c **** 
 463:Src/BLDC_controller.c **** /*
 464:Src/BLDC_controller.c ****  * System initialize for atomic system:
 465:Src/BLDC_controller.c ****  *    '<S83>/I_backCalc_fixdt'
 466:Src/BLDC_controller.c ****  *    '<S83>/I_backCalc_fixdt1'
 467:Src/BLDC_controller.c ****  *    '<S82>/I_backCalc_fixdt'
 468:Src/BLDC_controller.c ****  */
ARM GAS  /var/folders/2w/5wbrmvx534s_vk8svtxz852c0000gn/T//cccje1sL.s 			page 22


 469:Src/BLDC_controller.c **** void I_backCalc_fixdt_Init(DW_I_backCalc_fixdt *localDW, int32_T rtp_yInit)
 470:Src/BLDC_controller.c **** {
 726              		.loc 1 470 1 is_stmt 1 view -0
 727              		.cfi_startproc
 728              		@ args = 0, pretend = 0, frame = 0
 729              		@ frame_needed = 0, uses_anonymous_args = 0
 730              		@ link register save eliminated.
 471:Src/BLDC_controller.c ****   /* InitializeConditions for UnitDelay: '<S90>/UnitDelay' */
 472:Src/BLDC_controller.c ****   localDW->UnitDelay_DSTATE_m = rtp_yInit;
 731              		.loc 1 472 3 view .LVU200
 732              		.loc 1 472 31 is_stmt 0 view .LVU201
 733 0000 4160     		str	r1, [r0, #4]
 473:Src/BLDC_controller.c **** }
 734              		.loc 1 473 1 view .LVU202
 735 0002 7047     		bx	lr
 736              		.cfi_endproc
 737              	.LFE12:
 739              		.section	.text.I_backCalc_fixdt_Reset,"ax",%progbits
 740              		.align	1
 741              		.global	I_backCalc_fixdt_Reset
 742              		.syntax unified
 743              		.thumb
 744              		.thumb_func
 746              	I_backCalc_fixdt_Reset:
 747              	.LVL62:
 748              	.LFB13:
 474:Src/BLDC_controller.c **** 
 475:Src/BLDC_controller.c **** /*
 476:Src/BLDC_controller.c ****  * System reset for atomic system:
 477:Src/BLDC_controller.c ****  *    '<S83>/I_backCalc_fixdt'
 478:Src/BLDC_controller.c ****  *    '<S83>/I_backCalc_fixdt1'
 479:Src/BLDC_controller.c ****  *    '<S82>/I_backCalc_fixdt'
 480:Src/BLDC_controller.c ****  */
 481:Src/BLDC_controller.c **** void I_backCalc_fixdt_Reset(DW_I_backCalc_fixdt *localDW, int32_T rtp_yInit)
 482:Src/BLDC_controller.c **** {
 749              		.loc 1 482 1 is_stmt 1 view -0
 750              		.cfi_startproc
 751              		@ args = 0, pretend = 0, frame = 0
 752              		@ frame_needed = 0, uses_anonymous_args = 0
 753              		@ link register save eliminated.
 483:Src/BLDC_controller.c ****   /* InitializeConditions for UnitDelay: '<S88>/UnitDelay' */
 484:Src/BLDC_controller.c ****   localDW->UnitDelay_DSTATE = 0;
 754              		.loc 1 484 3 view .LVU204
 755              		.loc 1 484 29 is_stmt 0 view .LVU205
 756 0000 0023     		movs	r3, #0
 757 0002 0360     		str	r3, [r0]
 485:Src/BLDC_controller.c **** 
 486:Src/BLDC_controller.c ****   /* InitializeConditions for UnitDelay: '<S90>/UnitDelay' */
 487:Src/BLDC_controller.c ****   localDW->UnitDelay_DSTATE_m = rtp_yInit;
 758              		.loc 1 487 3 is_stmt 1 view .LVU206
 759              		.loc 1 487 31 is_stmt 0 view .LVU207
 760 0004 4160     		str	r1, [r0, #4]
 488:Src/BLDC_controller.c **** }
 761              		.loc 1 488 1 view .LVU208
 762 0006 7047     		bx	lr
 763              		.cfi_endproc
 764              	.LFE13:
ARM GAS  /var/folders/2w/5wbrmvx534s_vk8svtxz852c0000gn/T//cccje1sL.s 			page 23


 766              		.section	.text.I_backCalc_fixdt,"ax",%progbits
 767              		.align	1
 768              		.global	I_backCalc_fixdt
 769              		.syntax unified
 770              		.thumb
 771              		.thumb_func
 773              	I_backCalc_fixdt:
 774              	.LVL63:
 775              	.LFB14:
 489:Src/BLDC_controller.c **** 
 490:Src/BLDC_controller.c **** /*
 491:Src/BLDC_controller.c ****  * Output and update for atomic system:
 492:Src/BLDC_controller.c ****  *    '<S83>/I_backCalc_fixdt'
 493:Src/BLDC_controller.c ****  *    '<S83>/I_backCalc_fixdt1'
 494:Src/BLDC_controller.c ****  *    '<S82>/I_backCalc_fixdt'
 495:Src/BLDC_controller.c ****  */
 496:Src/BLDC_controller.c **** void I_backCalc_fixdt(int16_T rtu_err, uint16_T rtu_I, uint16_T rtu_Kb, int16_T
 497:Src/BLDC_controller.c ****                       rtu_satMax, int16_T rtu_satMin, int16_T *rty_out,
 498:Src/BLDC_controller.c ****                       DW_I_backCalc_fixdt *localDW)
 499:Src/BLDC_controller.c **** {
 776              		.loc 1 499 1 is_stmt 1 view -0
 777              		.cfi_startproc
 778              		@ args = 12, pretend = 0, frame = 0
 779              		@ frame_needed = 0, uses_anonymous_args = 0
 780              		.loc 1 499 1 is_stmt 0 view .LVU210
 781 0000 30B5     		push	{r4, r5, lr}
 782              	.LCFI10:
 783              		.cfi_def_cfa_offset 12
 784              		.cfi_offset 4, -12
 785              		.cfi_offset 5, -8
 786              		.cfi_offset 14, -4
 787 0002 BDF90CE0 		ldrsh	lr, [sp, #12]
 788 0006 049D     		ldr	r5, [sp, #16]
 789 0008 059C     		ldr	r4, [sp, #20]
 500:Src/BLDC_controller.c ****   int32_T rtb_Sum1_o;
 790              		.loc 1 500 3 is_stmt 1 view .LVU211
 501:Src/BLDC_controller.c ****   int16_T rtb_DataTypeConversion1_gf;
 791              		.loc 1 501 3 view .LVU212
 502:Src/BLDC_controller.c **** 
 503:Src/BLDC_controller.c ****   /* Sum: '<S88>/Sum2' incorporates:
 504:Src/BLDC_controller.c ****    *  Product: '<S88>/Divide2'
 505:Src/BLDC_controller.c ****    *  UnitDelay: '<S88>/UnitDelay'
 506:Src/BLDC_controller.c ****    */
 507:Src/BLDC_controller.c ****   rtb_Sum1_o = (rtu_err * rtu_I) >> 4;
 792              		.loc 1 507 3 view .LVU213
 793              		.loc 1 507 25 is_stmt 0 view .LVU214
 794 000a 00FB01F1 		mul	r1, r0, r1
 795              	.LVL64:
 508:Src/BLDC_controller.c ****   if ((rtb_Sum1_o < 0) && (localDW->UnitDelay_DSTATE < MIN_int32_T - rtb_Sum1_o))
 796              		.loc 1 508 3 is_stmt 1 view .LVU215
 797              		.loc 1 508 6 is_stmt 0 view .LVU216
 798 000e 0911     		asrs	r1, r1, #4
 799              	.LVL65:
 800              		.loc 1 508 6 view .LVU217
 801 0010 1CD4     		bmi	.L65
 802              	.LVL66:
 803              	.L56:
ARM GAS  /var/folders/2w/5wbrmvx534s_vk8svtxz852c0000gn/T//cccje1sL.s 			page 24


 509:Src/BLDC_controller.c ****   {
 510:Src/BLDC_controller.c ****     rtb_Sum1_o = MIN_int32_T;
 511:Src/BLDC_controller.c ****   } else if ((rtb_Sum1_o > 0) && (localDW->UnitDelay_DSTATE > MAX_int32_T
 804              		.loc 1 511 10 is_stmt 1 view .LVU218
 805              		.loc 1 511 13 is_stmt 0 view .LVU219
 806 0012 0029     		cmp	r1, #0
 807 0014 06DD     		ble	.L58
 512:Src/BLDC_controller.c ****               - rtb_Sum1_o)) {
 808              		.loc 1 512 15 discriminator 1 view .LVU220
 809 0016 6FF00040 		mvn	r0, #-2147483648
 810 001a 401A     		subs	r0, r0, r1
 511:Src/BLDC_controller.c ****               - rtb_Sum1_o)) {
 811              		.loc 1 511 31 discriminator 1 view .LVU221
 812 001c D4F800C0 		ldr	ip, [r4]
 813 0020 8445     		cmp	ip, r0
 814 0022 1CDC     		bgt	.L63
 815              	.L58:
 513:Src/BLDC_controller.c ****     rtb_Sum1_o = MAX_int32_T;
 514:Src/BLDC_controller.c ****   } else {
 515:Src/BLDC_controller.c ****     rtb_Sum1_o += localDW->UnitDelay_DSTATE;
 816              		.loc 1 515 5 is_stmt 1 view .LVU222
 817              		.loc 1 515 26 is_stmt 0 view .LVU223
 818 0024 2068     		ldr	r0, [r4]
 819              		.loc 1 515 16 view .LVU224
 820 0026 0844     		add	r0, r0, r1
 821              	.LVL67:
 822              	.L57:
 516:Src/BLDC_controller.c ****   }
 517:Src/BLDC_controller.c **** 
 518:Src/BLDC_controller.c ****   /* End of Sum: '<S88>/Sum2' */
 519:Src/BLDC_controller.c **** 
 520:Src/BLDC_controller.c ****   /* Sum: '<S90>/Sum1' incorporates:
 521:Src/BLDC_controller.c ****    *  UnitDelay: '<S90>/UnitDelay'
 522:Src/BLDC_controller.c ****    */
 523:Src/BLDC_controller.c ****   rtb_Sum1_o += localDW->UnitDelay_DSTATE_m;
 823              		.loc 1 523 3 is_stmt 1 view .LVU225
 824              		.loc 1 523 24 is_stmt 0 view .LVU226
 825 0028 6168     		ldr	r1, [r4, #4]
 826              		.loc 1 523 14 view .LVU227
 827 002a 0144     		add	r1, r1, r0
 828              	.LVL68:
 524:Src/BLDC_controller.c **** 
 525:Src/BLDC_controller.c ****   /* DataTypeConversion: '<S90>/Data Type Conversion1' */
 526:Src/BLDC_controller.c ****   rtb_DataTypeConversion1_gf = (int16_T)(rtb_Sum1_o >> 12);
 829              		.loc 1 526 3 is_stmt 1 view .LVU228
 830              		.loc 1 526 53 is_stmt 0 view .LVU229
 831 002c 4FEA213C 		asr	ip, r1, #12
 832              		.loc 1 526 30 view .LVU230
 833 0030 41F30F30 		sbfx	r0, r1, #12, #16
 834              	.LVL69:
 527:Src/BLDC_controller.c **** 
 528:Src/BLDC_controller.c ****   /* Switch: '<S91>/Switch2' incorporates:
 529:Src/BLDC_controller.c ****    *  RelationalOperator: '<S91>/LowerRelop1'
 530:Src/BLDC_controller.c ****    *  RelationalOperator: '<S91>/UpperRelop'
 531:Src/BLDC_controller.c ****    *  Switch: '<S91>/Switch'
 532:Src/BLDC_controller.c ****    */
 533:Src/BLDC_controller.c ****   if (rtb_DataTypeConversion1_gf > rtu_satMax) {
ARM GAS  /var/folders/2w/5wbrmvx534s_vk8svtxz852c0000gn/T//cccje1sL.s 			page 25


 835              		.loc 1 533 3 is_stmt 1 view .LVU231
 836              		.loc 1 533 6 is_stmt 0 view .LVU232
 837 0034 9842     		cmp	r0, r3
 838 0036 15DD     		ble	.L59
 534:Src/BLDC_controller.c ****     *rty_out = rtu_satMax;
 839              		.loc 1 534 5 is_stmt 1 view .LVU233
 840              		.loc 1 534 14 is_stmt 0 view .LVU234
 841 0038 2B80     		strh	r3, [r5]	@ movhi
 842              	.L60:
 535:Src/BLDC_controller.c ****   } else if (rtb_DataTypeConversion1_gf < rtu_satMin) {
 536:Src/BLDC_controller.c ****     /* Switch: '<S91>/Switch' */
 537:Src/BLDC_controller.c ****     *rty_out = rtu_satMin;
 538:Src/BLDC_controller.c ****   } else {
 539:Src/BLDC_controller.c ****     *rty_out = rtb_DataTypeConversion1_gf;
 540:Src/BLDC_controller.c ****   }
 541:Src/BLDC_controller.c **** 
 542:Src/BLDC_controller.c ****   /* End of Switch: '<S91>/Switch2' */
 543:Src/BLDC_controller.c **** 
 544:Src/BLDC_controller.c ****   /* Update for UnitDelay: '<S88>/UnitDelay' incorporates:
 545:Src/BLDC_controller.c ****    *  Product: '<S88>/Divide1'
 546:Src/BLDC_controller.c ****    *  Sum: '<S88>/Sum3'
 547:Src/BLDC_controller.c ****    */
 548:Src/BLDC_controller.c ****   localDW->UnitDelay_DSTATE = (int16_T)(*rty_out - rtb_DataTypeConversion1_gf) *
 843              		.loc 1 548 3 is_stmt 1 view .LVU235
 844              		.loc 1 548 41 is_stmt 0 view .LVU236
 845 003a 2B88     		ldrh	r3, [r5]
 846              	.LVL70:
 847              		.loc 1 548 50 view .LVU237
 848 003c A3EB0C03 		sub	r3, r3, ip
 849              		.loc 1 548 31 view .LVU238
 850 0040 1BB2     		sxth	r3, r3
 851              		.loc 1 548 80 view .LVU239
 852 0042 03FB02F2 		mul	r2, r3, r2
 853              	.LVL71:
 854              		.loc 1 548 29 view .LVU240
 855 0046 2260     		str	r2, [r4]
 549:Src/BLDC_controller.c ****     rtu_Kb;
 550:Src/BLDC_controller.c **** 
 551:Src/BLDC_controller.c ****   /* Update for UnitDelay: '<S90>/UnitDelay' */
 552:Src/BLDC_controller.c ****   localDW->UnitDelay_DSTATE_m = rtb_Sum1_o;
 856              		.loc 1 552 3 is_stmt 1 view .LVU241
 857              		.loc 1 552 31 is_stmt 0 view .LVU242
 858 0048 6160     		str	r1, [r4, #4]
 553:Src/BLDC_controller.c **** }
 859              		.loc 1 553 1 view .LVU243
 860 004a 30BD     		pop	{r4, r5, pc}
 861              	.LVL72:
 862              	.L65:
 508:Src/BLDC_controller.c ****   {
 863              		.loc 1 508 68 discriminator 1 view .LVU244
 864 004c C1F10040 		rsb	r0, r1, #-2147483648
 865              	.LVL73:
 508:Src/BLDC_controller.c ****   {
 866              		.loc 1 508 24 discriminator 1 view .LVU245
 867 0050 D4F800C0 		ldr	ip, [r4]
 868 0054 8445     		cmp	ip, r0
 869 0056 DCDA     		bge	.L56
ARM GAS  /var/folders/2w/5wbrmvx534s_vk8svtxz852c0000gn/T//cccje1sL.s 			page 26


 510:Src/BLDC_controller.c ****   } else if ((rtb_Sum1_o > 0) && (localDW->UnitDelay_DSTATE > MAX_int32_T
 870              		.loc 1 510 16 view .LVU246
 871 0058 4FF00040 		mov	r0, #-2147483648
 872 005c E4E7     		b	.L57
 873              	.L63:
 513:Src/BLDC_controller.c ****   } else {
 874              		.loc 1 513 16 view .LVU247
 875 005e 6FF00040 		mvn	r0, #-2147483648
 876 0062 E1E7     		b	.L57
 877              	.LVL74:
 878              	.L59:
 535:Src/BLDC_controller.c ****     /* Switch: '<S91>/Switch' */
 879              		.loc 1 535 10 is_stmt 1 view .LVU248
 535:Src/BLDC_controller.c ****     /* Switch: '<S91>/Switch' */
 880              		.loc 1 535 13 is_stmt 0 view .LVU249
 881 0064 7045     		cmp	r0, lr
 882 0066 02DA     		bge	.L61
 537:Src/BLDC_controller.c ****   } else {
 883              		.loc 1 537 5 is_stmt 1 view .LVU250
 537:Src/BLDC_controller.c ****   } else {
 884              		.loc 1 537 14 is_stmt 0 view .LVU251
 885 0068 A5F800E0 		strh	lr, [r5]	@ movhi
 886 006c E5E7     		b	.L60
 887              	.L61:
 539:Src/BLDC_controller.c ****   }
 888              		.loc 1 539 5 is_stmt 1 view .LVU252
 539:Src/BLDC_controller.c ****   }
 889              		.loc 1 539 14 is_stmt 0 view .LVU253
 890 006e 2880     		strh	r0, [r5]	@ movhi
 891 0070 E3E7     		b	.L60
 892              		.cfi_endproc
 893              	.LFE14:
 895              		.section	.text.PI_clamp_fixdt_Init,"ax",%progbits
 896              		.align	1
 897              		.global	PI_clamp_fixdt_Init
 898              		.syntax unified
 899              		.thumb
 900              		.thumb_func
 902              	PI_clamp_fixdt_Init:
 903              	.LVL75:
 904              	.LFB15:
 554:Src/BLDC_controller.c **** 
 555:Src/BLDC_controller.c **** /* System initialize for atomic system: '<S63>/PI_clamp_fixdt' */
 556:Src/BLDC_controller.c **** void PI_clamp_fixdt_Init(DW_PI_clamp_fixdt *localDW)
 557:Src/BLDC_controller.c **** {
 905              		.loc 1 557 1 is_stmt 1 view -0
 906              		.cfi_startproc
 907              		@ args = 0, pretend = 0, frame = 0
 908              		@ frame_needed = 0, uses_anonymous_args = 0
 909              		@ link register save eliminated.
 558:Src/BLDC_controller.c ****   /* InitializeConditions for Delay: '<S77>/Resettable Delay' */
 559:Src/BLDC_controller.c ****   localDW->icLoad = 1U;
 910              		.loc 1 559 3 view .LVU255
 911              		.loc 1 559 19 is_stmt 0 view .LVU256
 912 0000 0123     		movs	r3, #1
 913 0002 0371     		strb	r3, [r0, #4]
 560:Src/BLDC_controller.c **** }
ARM GAS  /var/folders/2w/5wbrmvx534s_vk8svtxz852c0000gn/T//cccje1sL.s 			page 27


 914              		.loc 1 560 1 view .LVU257
 915 0004 7047     		bx	lr
 916              		.cfi_endproc
 917              	.LFE15:
 919              		.section	.text.PI_clamp_fixdt_Reset,"ax",%progbits
 920              		.align	1
 921              		.global	PI_clamp_fixdt_Reset
 922              		.syntax unified
 923              		.thumb
 924              		.thumb_func
 926              	PI_clamp_fixdt_Reset:
 927              	.LVL76:
 928              	.LFB16:
 561:Src/BLDC_controller.c **** 
 562:Src/BLDC_controller.c **** /* System reset for atomic system: '<S63>/PI_clamp_fixdt' */
 563:Src/BLDC_controller.c **** void PI_clamp_fixdt_Reset(DW_PI_clamp_fixdt *localDW)
 564:Src/BLDC_controller.c **** {
 929              		.loc 1 564 1 is_stmt 1 view -0
 930              		.cfi_startproc
 931              		@ args = 0, pretend = 0, frame = 0
 932              		@ frame_needed = 0, uses_anonymous_args = 0
 933              		@ link register save eliminated.
 565:Src/BLDC_controller.c ****   /* InitializeConditions for UnitDelay: '<S74>/UnitDelay1' */
 566:Src/BLDC_controller.c ****   localDW->UnitDelay1_DSTATE = false;
 934              		.loc 1 566 3 view .LVU259
 935              		.loc 1 566 30 is_stmt 0 view .LVU260
 936 0000 0023     		movs	r3, #0
 937 0002 4371     		strb	r3, [r0, #5]
 567:Src/BLDC_controller.c **** 
 568:Src/BLDC_controller.c ****   /* InitializeConditions for Delay: '<S77>/Resettable Delay' */
 569:Src/BLDC_controller.c ****   localDW->icLoad = 1U;
 938              		.loc 1 569 3 is_stmt 1 view .LVU261
 939              		.loc 1 569 19 is_stmt 0 view .LVU262
 940 0004 0123     		movs	r3, #1
 941 0006 0371     		strb	r3, [r0, #4]
 570:Src/BLDC_controller.c **** }
 942              		.loc 1 570 1 view .LVU263
 943 0008 7047     		bx	lr
 944              		.cfi_endproc
 945              	.LFE16:
 947              		.section	.text.PI_clamp_fixdt,"ax",%progbits
 948              		.align	1
 949              		.global	PI_clamp_fixdt
 950              		.syntax unified
 951              		.thumb
 952              		.thumb_func
 954              	PI_clamp_fixdt:
 955              	.LVL77:
 956              	.LFB17:
 571:Src/BLDC_controller.c **** 
 572:Src/BLDC_controller.c **** /* Output and update for atomic system: '<S63>/PI_clamp_fixdt' */
 573:Src/BLDC_controller.c **** void PI_clamp_fixdt(int16_T rtu_err, uint16_T rtu_P, uint16_T rtu_I, int32_T
 574:Src/BLDC_controller.c ****                     rtu_init, int16_T rtu_satMax, int16_T rtu_satMin, int32_T
 575:Src/BLDC_controller.c ****                     rtu_ext_limProt, int16_T *rty_out, DW_PI_clamp_fixdt
 576:Src/BLDC_controller.c ****                     *localDW)
 577:Src/BLDC_controller.c **** {
 957              		.loc 1 577 1 is_stmt 1 view -0
ARM GAS  /var/folders/2w/5wbrmvx534s_vk8svtxz852c0000gn/T//cccje1sL.s 			page 28


 958              		.cfi_startproc
 959              		@ args = 20, pretend = 0, frame = 0
 960              		@ frame_needed = 0, uses_anonymous_args = 0
 961              		.loc 1 577 1 is_stmt 0 view .LVU265
 962 0000 70B5     		push	{r4, r5, r6, lr}
 963              	.LCFI11:
 964              		.cfi_def_cfa_offset 16
 965              		.cfi_offset 4, -16
 966              		.cfi_offset 5, -12
 967              		.cfi_offset 6, -8
 968              		.cfi_offset 14, -4
 969 0002 BDF910E0 		ldrsh	lr, [sp, #16]
 970 0006 BDF91460 		ldrsh	r6, [sp, #20]
 971 000a 069D     		ldr	r5, [sp, #24]
 972 000c 089C     		ldr	r4, [sp, #32]
 578:Src/BLDC_controller.c ****   boolean_T rtb_LowerRelop1_c0;
 973              		.loc 1 578 3 is_stmt 1 view .LVU266
 579:Src/BLDC_controller.c ****   boolean_T rtb_UpperRelop_f;
 974              		.loc 1 579 3 view .LVU267
 580:Src/BLDC_controller.c ****   int32_T rtb_Sum1_p0;
 975              		.loc 1 580 3 view .LVU268
 581:Src/BLDC_controller.c ****   int32_T q0;
 976              		.loc 1 581 3 view .LVU269
 582:Src/BLDC_controller.c ****   int32_T tmp;
 977              		.loc 1 582 3 view .LVU270
 583:Src/BLDC_controller.c ****   int16_T tmp_0;
 978              		.loc 1 583 3 view .LVU271
 584:Src/BLDC_controller.c **** 
 585:Src/BLDC_controller.c ****   /* Sum: '<S74>/Sum2' incorporates:
 586:Src/BLDC_controller.c ****    *  Product: '<S74>/Divide2'
 587:Src/BLDC_controller.c ****    */
 588:Src/BLDC_controller.c ****   q0 = rtu_err * rtu_I;
 979              		.loc 1 588 3 view .LVU272
 980              		.loc 1 588 6 is_stmt 0 view .LVU273
 981 000e 00FB02F2 		mul	r2, r0, r2
 982              	.LVL78:
 589:Src/BLDC_controller.c ****   if ((q0 < 0) && (rtu_ext_limProt < MIN_int32_T - q0)) {
 983              		.loc 1 589 3 is_stmt 1 view .LVU274
 984              		.loc 1 589 6 is_stmt 0 view .LVU275
 985 0012 002A     		cmp	r2, #0
 986 0014 1CDB     		blt	.L95
 987              	.L69:
 590:Src/BLDC_controller.c ****     q0 = MIN_int32_T;
 591:Src/BLDC_controller.c ****   } else if ((q0 > 0) && (rtu_ext_limProt > MAX_int32_T - q0)) {
 988              		.loc 1 591 10 is_stmt 1 view .LVU276
 989              		.loc 1 591 13 is_stmt 0 view .LVU277
 990 0016 002A     		cmp	r2, #0
 991 0018 05DD     		ble	.L71
 992              		.loc 1 591 57 discriminator 1 view .LVU278
 993 001a 6FF0004C 		mvn	ip, #-2147483648
 994 001e ACEB020C 		sub	ip, ip, r2
 995              		.loc 1 591 23 discriminator 1 view .LVU279
 996 0022 AC45     		cmp	ip, r5
 997 0024 1BDB     		blt	.L83
 998              	.L71:
 592:Src/BLDC_controller.c ****     q0 = MAX_int32_T;
 593:Src/BLDC_controller.c ****   } else {
ARM GAS  /var/folders/2w/5wbrmvx534s_vk8svtxz852c0000gn/T//cccje1sL.s 			page 29


 594:Src/BLDC_controller.c ****     q0 += rtu_ext_limProt;
 999              		.loc 1 594 5 is_stmt 1 view .LVU280
 1000              		.loc 1 594 8 is_stmt 0 view .LVU281
 1001 0026 02EB050C 		add	ip, r2, r5
 1002              	.LVL79:
 1003              	.L70:
 595:Src/BLDC_controller.c ****   }
 596:Src/BLDC_controller.c **** 
 597:Src/BLDC_controller.c ****   /* Delay: '<S77>/Resettable Delay' */
 598:Src/BLDC_controller.c ****   if (localDW->icLoad != 0) {
 1004              		.loc 1 598 3 is_stmt 1 view .LVU282
 1005              		.loc 1 598 14 is_stmt 0 view .LVU283
 1006 002a 2279     		ldrb	r2, [r4, #4]	@ zero_extendqisi2
 1007              		.loc 1 598 6 view .LVU284
 1008 002c 02B1     		cbz	r2, .L72
 599:Src/BLDC_controller.c ****     localDW->ResettableDelay_DSTATE = rtu_init;
 1009              		.loc 1 599 5 is_stmt 1 view .LVU285
 1010              		.loc 1 599 37 is_stmt 0 view .LVU286
 1011 002e 2360     		str	r3, [r4]
 1012              	.L72:
 600:Src/BLDC_controller.c ****   }
 601:Src/BLDC_controller.c **** 
 602:Src/BLDC_controller.c ****   /* Switch: '<S74>/Switch1' incorporates:
 603:Src/BLDC_controller.c ****    *  Constant: '<S74>/Constant'
 604:Src/BLDC_controller.c ****    *  Sum: '<S74>/Sum2'
 605:Src/BLDC_controller.c ****    *  UnitDelay: '<S74>/UnitDelay1'
 606:Src/BLDC_controller.c ****    */
 607:Src/BLDC_controller.c ****   if (localDW->UnitDelay1_DSTATE) {
 1013              		.loc 1 607 3 is_stmt 1 view .LVU287
 1014              		.loc 1 607 14 is_stmt 0 view .LVU288
 1015 0030 6379     		ldrb	r3, [r4, #5]	@ zero_extendqisi2
 1016              	.LVL80:
 1017              		.loc 1 607 6 view .LVU289
 1018 0032 BBB1     		cbz	r3, .L84
 608:Src/BLDC_controller.c ****     tmp = 0;
 1019              		.loc 1 608 9 view .LVU290
 1020 0034 0023     		movs	r3, #0
 1021              	.L73:
 1022              	.LVL81:
 609:Src/BLDC_controller.c ****   } else {
 610:Src/BLDC_controller.c ****     tmp = q0;
 611:Src/BLDC_controller.c ****   }
 612:Src/BLDC_controller.c **** 
 613:Src/BLDC_controller.c ****   /* End of Switch: '<S74>/Switch1' */
 614:Src/BLDC_controller.c **** 
 615:Src/BLDC_controller.c ****   /* Sum: '<S77>/Sum1' incorporates:
 616:Src/BLDC_controller.c ****    *  Delay: '<S77>/Resettable Delay'
 617:Src/BLDC_controller.c ****    */
 618:Src/BLDC_controller.c ****   rtb_Sum1_p0 = tmp + localDW->ResettableDelay_DSTATE;
 1023              		.loc 1 618 3 is_stmt 1 view .LVU291
 1024              		.loc 1 618 30 is_stmt 0 view .LVU292
 1025 0036 2568     		ldr	r5, [r4]
 1026              		.loc 1 618 15 view .LVU293
 1027 0038 1D44     		add	r5, r5, r3
 1028              	.LVL82:
 619:Src/BLDC_controller.c **** 
 620:Src/BLDC_controller.c ****   /* Product: '<S74>/Divide5' */
ARM GAS  /var/folders/2w/5wbrmvx534s_vk8svtxz852c0000gn/T//cccje1sL.s 			page 30


 621:Src/BLDC_controller.c ****   tmp = (rtu_err * rtu_P) >> 11;
 1029              		.loc 1 621 3 is_stmt 1 view .LVU294
 1030              		.loc 1 621 18 is_stmt 0 view .LVU295
 1031 003a 00FB01F1 		mul	r1, r0, r1
 1032              	.LVL83:
 1033              		.loc 1 621 7 view .LVU296
 1034 003e CB12     		asrs	r3, r1, #11
 1035              	.LVL84:
 622:Src/BLDC_controller.c ****   if (tmp > 32767) {
 1036              		.loc 1 622 3 is_stmt 1 view .LVU297
 1037              		.loc 1 622 6 is_stmt 0 view .LVU298
 1038 0040 B1F1806F 		cmp	r1, #67108864
 1039 0044 10DA     		bge	.L85
 623:Src/BLDC_controller.c ****     tmp = 32767;
 624:Src/BLDC_controller.c ****   } else {
 625:Src/BLDC_controller.c ****     if (tmp < -32768) {
 1040              		.loc 1 625 5 is_stmt 1 view .LVU299
 1041              		.loc 1 625 8 is_stmt 0 view .LVU300
 1042 0046 13F5004F 		cmn	r3, #32768
 1043 004a 0FDA     		bge	.L74
 626:Src/BLDC_controller.c ****       tmp = -32768;
 1044              		.loc 1 626 11 view .LVU301
 1045 004c 284B     		ldr	r3, .L97
 1046              	.LVL85:
 1047              		.loc 1 626 11 view .LVU302
 1048 004e 0DE0     		b	.L74
 1049              	.LVL86:
 1050              	.L95:
 589:Src/BLDC_controller.c ****     q0 = MIN_int32_T;
 1051              		.loc 1 589 50 discriminator 1 view .LVU303
 1052 0050 C2F1004C 		rsb	ip, r2, #-2147483648
 589:Src/BLDC_controller.c ****     q0 = MIN_int32_T;
 1053              		.loc 1 589 16 discriminator 1 view .LVU304
 1054 0054 AC45     		cmp	ip, r5
 1055 0056 DEDD     		ble	.L69
 590:Src/BLDC_controller.c ****   } else if ((q0 > 0) && (rtu_ext_limProt > MAX_int32_T - q0)) {
 1056              		.loc 1 590 8 view .LVU305
 1057 0058 4FF0004C 		mov	ip, #-2147483648
 1058 005c E5E7     		b	.L70
 1059              	.L83:
 592:Src/BLDC_controller.c ****   } else {
 1060              		.loc 1 592 8 view .LVU306
 1061 005e 6FF0004C 		mvn	ip, #-2147483648
 1062 0062 E2E7     		b	.L70
 1063              	.LVL87:
 1064              	.L84:
 610:Src/BLDC_controller.c ****   }
 1065              		.loc 1 610 9 view .LVU307
 1066 0064 6346     		mov	r3, ip
 1067 0066 E6E7     		b	.L73
 1068              	.LVL88:
 1069              	.L85:
 623:Src/BLDC_controller.c ****   } else {
 1070              		.loc 1 623 9 view .LVU308
 1071 0068 47F6FF73 		movw	r3, #32767
 1072              	.LVL89:
 1073              	.L74:
ARM GAS  /var/folders/2w/5wbrmvx534s_vk8svtxz852c0000gn/T//cccje1sL.s 			page 31


 627:Src/BLDC_controller.c ****     }
 628:Src/BLDC_controller.c ****   }
 629:Src/BLDC_controller.c **** 
 630:Src/BLDC_controller.c ****   /* Sum: '<S74>/Sum1' incorporates:
 631:Src/BLDC_controller.c ****    *  DataTypeConversion: '<S77>/Data Type Conversion1'
 632:Src/BLDC_controller.c ****    *  Product: '<S74>/Divide5'
 633:Src/BLDC_controller.c ****    */
 634:Src/BLDC_controller.c ****   tmp = (((rtb_Sum1_p0 >> 16) << 1) + tmp) >> 1;
 1074              		.loc 1 634 3 is_stmt 1 view .LVU309
 1075              		.loc 1 634 24 is_stmt 0 view .LVU310
 1076 006c 2A14     		asrs	r2, r5, #16
 1077              		.loc 1 634 37 view .LVU311
 1078 006e 03EB4202 		add	r2, r3, r2, lsl #1
 1079              		.loc 1 634 7 view .LVU312
 1080 0072 5310     		asrs	r3, r2, #1
 1081              	.LVL90:
 635:Src/BLDC_controller.c ****   if (tmp > 32767) {
 1082              		.loc 1 635 3 is_stmt 1 view .LVU313
 1083              		.loc 1 635 6 is_stmt 0 view .LVU314
 1084 0074 B2F5803F 		cmp	r2, #65536
 1085 0078 04DA     		bge	.L87
 636:Src/BLDC_controller.c ****     tmp = 32767;
 637:Src/BLDC_controller.c ****   } else {
 638:Src/BLDC_controller.c ****     if (tmp < -32768) {
 1086              		.loc 1 638 5 is_stmt 1 view .LVU315
 1087              		.loc 1 638 8 is_stmt 0 view .LVU316
 1088 007a 13F5004F 		cmn	r3, #32768
 1089 007e 03DA     		bge	.L75
 639:Src/BLDC_controller.c ****       tmp = -32768;
 1090              		.loc 1 639 11 view .LVU317
 1091 0080 1B4B     		ldr	r3, .L97
 1092              	.LVL91:
 1093              		.loc 1 639 11 view .LVU318
 1094 0082 01E0     		b	.L75
 1095              	.LVL92:
 1096              	.L87:
 636:Src/BLDC_controller.c ****     tmp = 32767;
 1097              		.loc 1 636 9 view .LVU319
 1098 0084 47F6FF73 		movw	r3, #32767
 1099              	.LVL93:
 1100              	.L75:
 640:Src/BLDC_controller.c ****     }
 641:Src/BLDC_controller.c ****   }
 642:Src/BLDC_controller.c **** 
 643:Src/BLDC_controller.c ****   /* RelationalOperator: '<S78>/LowerRelop1' incorporates:
 644:Src/BLDC_controller.c ****    *  Sum: '<S74>/Sum1'
 645:Src/BLDC_controller.c ****    */
 646:Src/BLDC_controller.c ****   rtb_LowerRelop1_c0 = ((int16_T)tmp > rtu_satMax);
 1101              		.loc 1 646 3 is_stmt 1 view .LVU320
 1102              		.loc 1 646 25 is_stmt 0 view .LVU321
 1103 0088 1BB2     		sxth	r3, r3
 1104              	.LVL94:
 647:Src/BLDC_controller.c **** 
 648:Src/BLDC_controller.c ****   /* RelationalOperator: '<S78>/UpperRelop' incorporates:
 649:Src/BLDC_controller.c ****    *  Sum: '<S74>/Sum1'
 650:Src/BLDC_controller.c ****    */
 651:Src/BLDC_controller.c ****   rtb_UpperRelop_f = ((int16_T)tmp < rtu_satMin);
ARM GAS  /var/folders/2w/5wbrmvx534s_vk8svtxz852c0000gn/T//cccje1sL.s 			page 32


 1105              		.loc 1 651 3 is_stmt 1 view .LVU322
 652:Src/BLDC_controller.c **** 
 653:Src/BLDC_controller.c ****   /* Switch: '<S78>/Switch1' incorporates:
 654:Src/BLDC_controller.c ****    *  Sum: '<S74>/Sum1'
 655:Src/BLDC_controller.c ****    *  Switch: '<S78>/Switch3'
 656:Src/BLDC_controller.c ****    */
 657:Src/BLDC_controller.c ****   if (rtb_LowerRelop1_c0) {
 1106              		.loc 1 657 3 view .LVU323
 1107              		.loc 1 657 6 is_stmt 0 view .LVU324
 1108 008a 7345     		cmp	r3, lr
 1109 008c 18DD     		ble	.L76
 658:Src/BLDC_controller.c ****     *rty_out = rtu_satMax;
 1110              		.loc 1 658 5 is_stmt 1 view .LVU325
 1111              		.loc 1 658 14 is_stmt 0 view .LVU326
 1112 008e 079A     		ldr	r2, [sp, #28]
 1113 0090 A2F800E0 		strh	lr, [r2]	@ movhi
 1114              	.L77:
 659:Src/BLDC_controller.c ****   } else if (rtb_UpperRelop_f) {
 660:Src/BLDC_controller.c ****     /* Switch: '<S78>/Switch3' */
 661:Src/BLDC_controller.c ****     *rty_out = rtu_satMin;
 662:Src/BLDC_controller.c ****   } else {
 663:Src/BLDC_controller.c ****     *rty_out = (int16_T)tmp;
 664:Src/BLDC_controller.c ****   }
 665:Src/BLDC_controller.c **** 
 666:Src/BLDC_controller.c ****   /* End of Switch: '<S78>/Switch1' */
 667:Src/BLDC_controller.c **** 
 668:Src/BLDC_controller.c ****   /* Signum: '<S76>/SignDeltaU2' incorporates:
 669:Src/BLDC_controller.c ****    *  Sum: '<S74>/Sum2'
 670:Src/BLDC_controller.c ****    */
 671:Src/BLDC_controller.c ****   if (q0 < 0) {
 1115              		.loc 1 671 3 is_stmt 1 view .LVU327
 1116              		.loc 1 671 6 is_stmt 0 view .LVU328
 1117 0094 BCF1000F 		cmp	ip, #0
 1118 0098 1ADB     		blt	.L89
 672:Src/BLDC_controller.c ****     q0 = -1;
 673:Src/BLDC_controller.c ****   } else {
 674:Src/BLDC_controller.c ****     q0 = (q0 > 0);
 1119              		.loc 1 674 5 is_stmt 1 view .LVU329
 1120              		.loc 1 674 14 is_stmt 0 view .LVU330
 1121 009a BCF1000F 		cmp	ip, #0
 1122 009e D4BF     		ite	le
 1123 00a0 0022     		movle	r2, #0
 1124 00a2 0122     		movgt	r2, #1
 1125              	.LVL95:
 1126              	.L79:
 675:Src/BLDC_controller.c ****   }
 676:Src/BLDC_controller.c **** 
 677:Src/BLDC_controller.c ****   /* End of Signum: '<S76>/SignDeltaU2' */
 678:Src/BLDC_controller.c **** 
 679:Src/BLDC_controller.c ****   /* Signum: '<S76>/SignDeltaU3' incorporates:
 680:Src/BLDC_controller.c ****    *  Sum: '<S74>/Sum1'
 681:Src/BLDC_controller.c ****    */
 682:Src/BLDC_controller.c ****   if ((int16_T)tmp < 0) {
 1127              		.loc 1 682 3 is_stmt 1 view .LVU331
 1128              		.loc 1 682 6 is_stmt 0 view .LVU332
 1129 00a4 002B     		cmp	r3, #0
 1130 00a6 16DB     		blt	.L90
ARM GAS  /var/folders/2w/5wbrmvx534s_vk8svtxz852c0000gn/T//cccje1sL.s 			page 33


 683:Src/BLDC_controller.c ****     tmp_0 = -1;
 684:Src/BLDC_controller.c ****   } else {
 685:Src/BLDC_controller.c ****     tmp_0 = (int16_T)((int16_T)tmp > 0);
 1131              		.loc 1 685 5 is_stmt 1 view .LVU333
 1132              		.loc 1 685 11 is_stmt 0 view .LVU334
 1133 00a8 002B     		cmp	r3, #0
 1134 00aa D4BF     		ite	le
 1135 00ac 0021     		movle	r1, #0
 1136 00ae 0121     		movgt	r1, #1
 1137              	.LVL96:
 1138              	.L80:
 686:Src/BLDC_controller.c ****   }
 687:Src/BLDC_controller.c **** 
 688:Src/BLDC_controller.c ****   /* End of Signum: '<S76>/SignDeltaU3' */
 689:Src/BLDC_controller.c **** 
 690:Src/BLDC_controller.c ****   /* Update for UnitDelay: '<S74>/UnitDelay1' incorporates:
 691:Src/BLDC_controller.c ****    *  DataTypeConversion: '<S76>/DataTypeConv4'
 692:Src/BLDC_controller.c ****    *  Logic: '<S74>/AND1'
 693:Src/BLDC_controller.c ****    *  Logic: '<S76>/AND1'
 694:Src/BLDC_controller.c ****    *  RelationalOperator: '<S76>/Equal1'
 695:Src/BLDC_controller.c ****    */
 696:Src/BLDC_controller.c ****   localDW->UnitDelay1_DSTATE = ((q0 == tmp_0) && (rtb_LowerRelop1_c0 ||
 1139              		.loc 1 696 3 is_stmt 1 view .LVU335
 1140              		.loc 1 696 47 is_stmt 0 view .LVU336
 1141 00b0 9142     		cmp	r1, r2
 1142 00b2 13D0     		beq	.L96
 1143 00b4 0023     		movs	r3, #0
 1144              	.LVL97:
 1145              	.L81:
 1146              		.loc 1 696 30 discriminator 8 view .LVU337
 1147 00b6 6371     		strb	r3, [r4, #5]
 697:Src/BLDC_controller.c ****     rtb_UpperRelop_f));
 698:Src/BLDC_controller.c **** 
 699:Src/BLDC_controller.c ****   /* Update for Delay: '<S77>/Resettable Delay' */
 700:Src/BLDC_controller.c ****   localDW->icLoad = 0U;
 1148              		.loc 1 700 3 is_stmt 1 discriminator 8 view .LVU338
 1149              		.loc 1 700 19 is_stmt 0 discriminator 8 view .LVU339
 1150 00b8 0023     		movs	r3, #0
 1151 00ba 2371     		strb	r3, [r4, #4]
 701:Src/BLDC_controller.c ****   localDW->ResettableDelay_DSTATE = rtb_Sum1_p0;
 1152              		.loc 1 701 3 is_stmt 1 discriminator 8 view .LVU340
 1153              		.loc 1 701 35 is_stmt 0 discriminator 8 view .LVU341
 1154 00bc 2560     		str	r5, [r4]
 702:Src/BLDC_controller.c **** }
 1155              		.loc 1 702 1 discriminator 8 view .LVU342
 1156 00be 70BD     		pop	{r4, r5, r6, pc}
 1157              	.LVL98:
 1158              	.L76:
 659:Src/BLDC_controller.c ****     /* Switch: '<S78>/Switch3' */
 1159              		.loc 1 659 10 is_stmt 1 view .LVU343
 659:Src/BLDC_controller.c ****     /* Switch: '<S78>/Switch3' */
 1160              		.loc 1 659 13 is_stmt 0 view .LVU344
 1161 00c0 B342     		cmp	r3, r6
 1162 00c2 02DA     		bge	.L78
 661:Src/BLDC_controller.c ****   } else {
 1163              		.loc 1 661 5 is_stmt 1 view .LVU345
 661:Src/BLDC_controller.c ****   } else {
ARM GAS  /var/folders/2w/5wbrmvx534s_vk8svtxz852c0000gn/T//cccje1sL.s 			page 34


 1164              		.loc 1 661 14 is_stmt 0 view .LVU346
 1165 00c4 079A     		ldr	r2, [sp, #28]
 1166 00c6 1680     		strh	r6, [r2]	@ movhi
 1167 00c8 E4E7     		b	.L77
 1168              	.L78:
 663:Src/BLDC_controller.c ****   }
 1169              		.loc 1 663 5 is_stmt 1 view .LVU347
 663:Src/BLDC_controller.c ****   }
 1170              		.loc 1 663 14 is_stmt 0 view .LVU348
 1171 00ca 079A     		ldr	r2, [sp, #28]
 1172 00cc 1380     		strh	r3, [r2]	@ movhi
 1173 00ce E1E7     		b	.L77
 1174              	.L89:
 672:Src/BLDC_controller.c ****   } else {
 1175              		.loc 1 672 8 view .LVU349
 1176 00d0 4FF0FF32 		mov	r2, #-1
 1177 00d4 E6E7     		b	.L79
 1178              	.LVL99:
 1179              	.L90:
 683:Src/BLDC_controller.c ****   } else {
 1180              		.loc 1 683 11 view .LVU350
 1181 00d6 4FF0FF31 		mov	r1, #-1
 1182 00da E9E7     		b	.L80
 1183              	.LVL100:
 1184              	.L96:
 696:Src/BLDC_controller.c ****     rtb_UpperRelop_f));
 1185              		.loc 1 696 47 discriminator 1 view .LVU351
 1186 00dc 7345     		cmp	r3, lr
 1187 00de 03DC     		bgt	.L92
 696:Src/BLDC_controller.c ****     rtb_UpperRelop_f));
 1188              		.loc 1 696 70 discriminator 4 view .LVU352
 1189 00e0 B342     		cmp	r3, r6
 1190 00e2 03DB     		blt	.L93
 696:Src/BLDC_controller.c ****     rtb_UpperRelop_f));
 1191              		.loc 1 696 47 view .LVU353
 1192 00e4 0023     		movs	r3, #0
 1193              	.LVL101:
 696:Src/BLDC_controller.c ****     rtb_UpperRelop_f));
 1194              		.loc 1 696 47 view .LVU354
 1195 00e6 E6E7     		b	.L81
 1196              	.LVL102:
 1197              	.L92:
 696:Src/BLDC_controller.c ****     rtb_UpperRelop_f));
 1198              		.loc 1 696 47 view .LVU355
 1199 00e8 0123     		movs	r3, #1
 1200              	.LVL103:
 696:Src/BLDC_controller.c ****     rtb_UpperRelop_f));
 1201              		.loc 1 696 47 view .LVU356
 1202 00ea E4E7     		b	.L81
 1203              	.LVL104:
 1204              	.L93:
 696:Src/BLDC_controller.c ****     rtb_UpperRelop_f));
 1205              		.loc 1 696 47 view .LVU357
 1206 00ec 0123     		movs	r3, #1
 1207              	.LVL105:
 696:Src/BLDC_controller.c ****     rtb_UpperRelop_f));
 1208              		.loc 1 696 47 view .LVU358
ARM GAS  /var/folders/2w/5wbrmvx534s_vk8svtxz852c0000gn/T//cccje1sL.s 			page 35


 1209 00ee E2E7     		b	.L81
 1210              	.L98:
 1211              		.align	2
 1212              	.L97:
 1213 00f0 0080FFFF 		.word	-32768
 1214              		.cfi_endproc
 1215              	.LFE17:
 1217              		.section	.text.PI_clamp_fixdt_d_Init,"ax",%progbits
 1218              		.align	1
 1219              		.global	PI_clamp_fixdt_d_Init
 1220              		.syntax unified
 1221              		.thumb
 1222              		.thumb_func
 1224              	PI_clamp_fixdt_d_Init:
 1225              	.LVL106:
 1226              	.LFB18:
 703:Src/BLDC_controller.c **** 
 704:Src/BLDC_controller.c **** /* System initialize for atomic system: '<S61>/PI_clamp_fixdt' */
 705:Src/BLDC_controller.c **** void PI_clamp_fixdt_d_Init(DW_PI_clamp_fixdt_m *localDW)
 706:Src/BLDC_controller.c **** {
 1227              		.loc 1 706 1 is_stmt 1 view -0
 1228              		.cfi_startproc
 1229              		@ args = 0, pretend = 0, frame = 0
 1230              		@ frame_needed = 0, uses_anonymous_args = 0
 1231              		@ link register save eliminated.
 707:Src/BLDC_controller.c ****   /* InitializeConditions for Delay: '<S67>/Resettable Delay' */
 708:Src/BLDC_controller.c ****   localDW->icLoad = 1U;
 1232              		.loc 1 708 3 view .LVU360
 1233              		.loc 1 708 19 is_stmt 0 view .LVU361
 1234 0000 0123     		movs	r3, #1
 1235 0002 0371     		strb	r3, [r0, #4]
 709:Src/BLDC_controller.c **** }
 1236              		.loc 1 709 1 view .LVU362
 1237 0004 7047     		bx	lr
 1238              		.cfi_endproc
 1239              	.LFE18:
 1241              		.section	.text.PI_clamp_fixdt_b_Reset,"ax",%progbits
 1242              		.align	1
 1243              		.global	PI_clamp_fixdt_b_Reset
 1244              		.syntax unified
 1245              		.thumb
 1246              		.thumb_func
 1248              	PI_clamp_fixdt_b_Reset:
 1249              	.LVL107:
 1250              	.LFB19:
 710:Src/BLDC_controller.c **** 
 711:Src/BLDC_controller.c **** /* System reset for atomic system: '<S61>/PI_clamp_fixdt' */
 712:Src/BLDC_controller.c **** void PI_clamp_fixdt_b_Reset(DW_PI_clamp_fixdt_m *localDW)
 713:Src/BLDC_controller.c **** {
 1251              		.loc 1 713 1 is_stmt 1 view -0
 1252              		.cfi_startproc
 1253              		@ args = 0, pretend = 0, frame = 0
 1254              		@ frame_needed = 0, uses_anonymous_args = 0
 1255              		@ link register save eliminated.
 714:Src/BLDC_controller.c ****   /* InitializeConditions for UnitDelay: '<S65>/UnitDelay1' */
 715:Src/BLDC_controller.c ****   localDW->UnitDelay1_DSTATE = false;
 1256              		.loc 1 715 3 view .LVU364
ARM GAS  /var/folders/2w/5wbrmvx534s_vk8svtxz852c0000gn/T//cccje1sL.s 			page 36


 1257              		.loc 1 715 30 is_stmt 0 view .LVU365
 1258 0000 0023     		movs	r3, #0
 1259 0002 4371     		strb	r3, [r0, #5]
 716:Src/BLDC_controller.c **** 
 717:Src/BLDC_controller.c ****   /* InitializeConditions for Delay: '<S67>/Resettable Delay' */
 718:Src/BLDC_controller.c ****   localDW->icLoad = 1U;
 1260              		.loc 1 718 3 is_stmt 1 view .LVU366
 1261              		.loc 1 718 19 is_stmt 0 view .LVU367
 1262 0004 0123     		movs	r3, #1
 1263 0006 0371     		strb	r3, [r0, #4]
 719:Src/BLDC_controller.c **** }
 1264              		.loc 1 719 1 view .LVU368
 1265 0008 7047     		bx	lr
 1266              		.cfi_endproc
 1267              	.LFE19:
 1269              		.section	.text.PI_clamp_fixdt_l,"ax",%progbits
 1270              		.align	1
 1271              		.global	PI_clamp_fixdt_l
 1272              		.syntax unified
 1273              		.thumb
 1274              		.thumb_func
 1276              	PI_clamp_fixdt_l:
 1277              	.LVL108:
 1278              	.LFB20:
 720:Src/BLDC_controller.c **** 
 721:Src/BLDC_controller.c **** /* Output and update for atomic system: '<S61>/PI_clamp_fixdt' */
 722:Src/BLDC_controller.c **** void PI_clamp_fixdt_l(int16_T rtu_err, uint16_T rtu_P, uint16_T rtu_I, int16_T
 723:Src/BLDC_controller.c ****                       rtu_init, int16_T rtu_satMax, int16_T rtu_satMin, int32_T
 724:Src/BLDC_controller.c ****                       rtu_ext_limProt, int16_T *rty_out, DW_PI_clamp_fixdt_m
 725:Src/BLDC_controller.c ****                       *localDW)
 726:Src/BLDC_controller.c **** {
 1279              		.loc 1 726 1 is_stmt 1 view -0
 1280              		.cfi_startproc
 1281              		@ args = 20, pretend = 0, frame = 0
 1282              		@ frame_needed = 0, uses_anonymous_args = 0
 1283              		.loc 1 726 1 is_stmt 0 view .LVU370
 1284 0000 70B5     		push	{r4, r5, r6, lr}
 1285              	.LCFI12:
 1286              		.cfi_def_cfa_offset 16
 1287              		.cfi_offset 4, -16
 1288              		.cfi_offset 5, -12
 1289              		.cfi_offset 6, -8
 1290              		.cfi_offset 14, -4
 1291 0002 BDF910E0 		ldrsh	lr, [sp, #16]
 1292 0006 BDF91460 		ldrsh	r6, [sp, #20]
 1293 000a 069D     		ldr	r5, [sp, #24]
 1294 000c 089C     		ldr	r4, [sp, #32]
 727:Src/BLDC_controller.c ****   boolean_T rtb_LowerRelop1_l;
 1295              		.loc 1 727 3 is_stmt 1 view .LVU371
 728:Src/BLDC_controller.c ****   boolean_T rtb_UpperRelop_l;
 1296              		.loc 1 728 3 view .LVU372
 729:Src/BLDC_controller.c ****   int32_T rtb_Sum1_ni;
 1297              		.loc 1 729 3 view .LVU373
 730:Src/BLDC_controller.c ****   int32_T q0;
 1298              		.loc 1 730 3 view .LVU374
 731:Src/BLDC_controller.c ****   int32_T tmp;
 1299              		.loc 1 731 3 view .LVU375
ARM GAS  /var/folders/2w/5wbrmvx534s_vk8svtxz852c0000gn/T//cccje1sL.s 			page 37


 732:Src/BLDC_controller.c ****   int16_T tmp_0;
 1300              		.loc 1 732 3 view .LVU376
 733:Src/BLDC_controller.c **** 
 734:Src/BLDC_controller.c ****   /* Sum: '<S65>/Sum2' incorporates:
 735:Src/BLDC_controller.c ****    *  Product: '<S65>/Divide2'
 736:Src/BLDC_controller.c ****    */
 737:Src/BLDC_controller.c ****   q0 = rtu_err * rtu_I;
 1301              		.loc 1 737 3 view .LVU377
 1302              		.loc 1 737 6 is_stmt 0 view .LVU378
 1303 000e 00FB02F2 		mul	r2, r0, r2
 1304              	.LVL109:
 738:Src/BLDC_controller.c ****   if ((q0 < 0) && (rtu_ext_limProt < MIN_int32_T - q0)) {
 1305              		.loc 1 738 3 is_stmt 1 view .LVU379
 1306              		.loc 1 738 6 is_stmt 0 view .LVU380
 1307 0012 002A     		cmp	r2, #0
 1308 0014 1DDB     		blt	.L128
 1309              	.L102:
 739:Src/BLDC_controller.c ****     q0 = MIN_int32_T;
 740:Src/BLDC_controller.c ****   } else if ((q0 > 0) && (rtu_ext_limProt > MAX_int32_T - q0)) {
 1310              		.loc 1 740 10 is_stmt 1 view .LVU381
 1311              		.loc 1 740 13 is_stmt 0 view .LVU382
 1312 0016 002A     		cmp	r2, #0
 1313 0018 05DD     		ble	.L104
 1314              		.loc 1 740 57 discriminator 1 view .LVU383
 1315 001a 6FF0004C 		mvn	ip, #-2147483648
 1316 001e ACEB020C 		sub	ip, ip, r2
 1317              		.loc 1 740 23 discriminator 1 view .LVU384
 1318 0022 AC45     		cmp	ip, r5
 1319 0024 1CDB     		blt	.L116
 1320              	.L104:
 741:Src/BLDC_controller.c ****     q0 = MAX_int32_T;
 742:Src/BLDC_controller.c ****   } else {
 743:Src/BLDC_controller.c ****     q0 += rtu_ext_limProt;
 1321              		.loc 1 743 5 is_stmt 1 view .LVU385
 1322              		.loc 1 743 8 is_stmt 0 view .LVU386
 1323 0026 02EB050C 		add	ip, r2, r5
 1324              	.LVL110:
 1325              	.L103:
 744:Src/BLDC_controller.c ****   }
 745:Src/BLDC_controller.c **** 
 746:Src/BLDC_controller.c ****   /* Delay: '<S67>/Resettable Delay' */
 747:Src/BLDC_controller.c ****   if (localDW->icLoad != 0) {
 1326              		.loc 1 747 3 is_stmt 1 view .LVU387
 1327              		.loc 1 747 14 is_stmt 0 view .LVU388
 1328 002a 2279     		ldrb	r2, [r4, #4]	@ zero_extendqisi2
 1329              		.loc 1 747 6 view .LVU389
 1330 002c 0AB1     		cbz	r2, .L105
 748:Src/BLDC_controller.c ****     localDW->ResettableDelay_DSTATE = rtu_init << 16;
 1331              		.loc 1 748 5 is_stmt 1 view .LVU390
 1332              		.loc 1 748 48 is_stmt 0 view .LVU391
 1333 002e 1B04     		lsls	r3, r3, #16
 1334              	.LVL111:
 1335              		.loc 1 748 37 view .LVU392
 1336 0030 2360     		str	r3, [r4]
 1337              	.L105:
 749:Src/BLDC_controller.c ****   }
 750:Src/BLDC_controller.c **** 
ARM GAS  /var/folders/2w/5wbrmvx534s_vk8svtxz852c0000gn/T//cccje1sL.s 			page 38


 751:Src/BLDC_controller.c ****   /* Switch: '<S65>/Switch1' incorporates:
 752:Src/BLDC_controller.c ****    *  Constant: '<S65>/Constant'
 753:Src/BLDC_controller.c ****    *  Sum: '<S65>/Sum2'
 754:Src/BLDC_controller.c ****    *  UnitDelay: '<S65>/UnitDelay1'
 755:Src/BLDC_controller.c ****    */
 756:Src/BLDC_controller.c ****   if (localDW->UnitDelay1_DSTATE) {
 1338              		.loc 1 756 3 is_stmt 1 view .LVU393
 1339              		.loc 1 756 14 is_stmt 0 view .LVU394
 1340 0032 6379     		ldrb	r3, [r4, #5]	@ zero_extendqisi2
 1341              		.loc 1 756 6 view .LVU395
 1342 0034 BBB1     		cbz	r3, .L117
 757:Src/BLDC_controller.c ****     tmp = 0;
 1343              		.loc 1 757 9 view .LVU396
 1344 0036 0023     		movs	r3, #0
 1345              	.L106:
 1346              	.LVL112:
 758:Src/BLDC_controller.c ****   } else {
 759:Src/BLDC_controller.c ****     tmp = q0;
 760:Src/BLDC_controller.c ****   }
 761:Src/BLDC_controller.c **** 
 762:Src/BLDC_controller.c ****   /* End of Switch: '<S65>/Switch1' */
 763:Src/BLDC_controller.c **** 
 764:Src/BLDC_controller.c ****   /* Sum: '<S67>/Sum1' incorporates:
 765:Src/BLDC_controller.c ****    *  Delay: '<S67>/Resettable Delay'
 766:Src/BLDC_controller.c ****    */
 767:Src/BLDC_controller.c ****   rtb_Sum1_ni = tmp + localDW->ResettableDelay_DSTATE;
 1347              		.loc 1 767 3 is_stmt 1 view .LVU397
 1348              		.loc 1 767 30 is_stmt 0 view .LVU398
 1349 0038 2568     		ldr	r5, [r4]
 1350              		.loc 1 767 15 view .LVU399
 1351 003a 1D44     		add	r5, r5, r3
 1352              	.LVL113:
 768:Src/BLDC_controller.c **** 
 769:Src/BLDC_controller.c ****   /* Product: '<S65>/Divide5' */
 770:Src/BLDC_controller.c ****   tmp = (rtu_err * rtu_P) >> 11;
 1353              		.loc 1 770 3 is_stmt 1 view .LVU400
 1354              		.loc 1 770 18 is_stmt 0 view .LVU401
 1355 003c 00FB01F1 		mul	r1, r0, r1
 1356              	.LVL114:
 1357              		.loc 1 770 7 view .LVU402
 1358 0040 CB12     		asrs	r3, r1, #11
 1359              	.LVL115:
 771:Src/BLDC_controller.c ****   if (tmp > 32767) {
 1360              		.loc 1 771 3 is_stmt 1 view .LVU403
 1361              		.loc 1 771 6 is_stmt 0 view .LVU404
 1362 0042 B1F1806F 		cmp	r1, #67108864
 1363 0046 10DA     		bge	.L118
 772:Src/BLDC_controller.c ****     tmp = 32767;
 773:Src/BLDC_controller.c ****   } else {
 774:Src/BLDC_controller.c ****     if (tmp < -32768) {
 1364              		.loc 1 774 5 is_stmt 1 view .LVU405
 1365              		.loc 1 774 8 is_stmt 0 view .LVU406
 1366 0048 13F5004F 		cmn	r3, #32768
 1367 004c 0FDA     		bge	.L107
 775:Src/BLDC_controller.c ****       tmp = -32768;
 1368              		.loc 1 775 11 view .LVU407
 1369 004e 294B     		ldr	r3, .L130
ARM GAS  /var/folders/2w/5wbrmvx534s_vk8svtxz852c0000gn/T//cccje1sL.s 			page 39


 1370              	.LVL116:
 1371              		.loc 1 775 11 view .LVU408
 1372 0050 0DE0     		b	.L107
 1373              	.LVL117:
 1374              	.L128:
 738:Src/BLDC_controller.c ****     q0 = MIN_int32_T;
 1375              		.loc 1 738 50 discriminator 1 view .LVU409
 1376 0052 C2F1004C 		rsb	ip, r2, #-2147483648
 738:Src/BLDC_controller.c ****     q0 = MIN_int32_T;
 1377              		.loc 1 738 16 discriminator 1 view .LVU410
 1378 0056 AC45     		cmp	ip, r5
 1379 0058 DDDD     		ble	.L102
 739:Src/BLDC_controller.c ****   } else if ((q0 > 0) && (rtu_ext_limProt > MAX_int32_T - q0)) {
 1380              		.loc 1 739 8 view .LVU411
 1381 005a 4FF0004C 		mov	ip, #-2147483648
 1382 005e E4E7     		b	.L103
 1383              	.L116:
 741:Src/BLDC_controller.c ****   } else {
 1384              		.loc 1 741 8 view .LVU412
 1385 0060 6FF0004C 		mvn	ip, #-2147483648
 1386 0064 E1E7     		b	.L103
 1387              	.LVL118:
 1388              	.L117:
 759:Src/BLDC_controller.c ****   }
 1389              		.loc 1 759 9 view .LVU413
 1390 0066 6346     		mov	r3, ip
 1391 0068 E6E7     		b	.L106
 1392              	.LVL119:
 1393              	.L118:
 772:Src/BLDC_controller.c ****   } else {
 1394              		.loc 1 772 9 view .LVU414
 1395 006a 47F6FF73 		movw	r3, #32767
 1396              	.LVL120:
 1397              	.L107:
 776:Src/BLDC_controller.c ****     }
 777:Src/BLDC_controller.c ****   }
 778:Src/BLDC_controller.c **** 
 779:Src/BLDC_controller.c ****   /* Sum: '<S65>/Sum1' incorporates:
 780:Src/BLDC_controller.c ****    *  DataTypeConversion: '<S67>/Data Type Conversion1'
 781:Src/BLDC_controller.c ****    *  Product: '<S65>/Divide5'
 782:Src/BLDC_controller.c ****    */
 783:Src/BLDC_controller.c ****   tmp = (((rtb_Sum1_ni >> 16) << 1) + tmp) >> 1;
 1398              		.loc 1 783 3 is_stmt 1 view .LVU415
 1399              		.loc 1 783 24 is_stmt 0 view .LVU416
 1400 006e 2A14     		asrs	r2, r5, #16
 1401              		.loc 1 783 37 view .LVU417
 1402 0070 03EB4202 		add	r2, r3, r2, lsl #1
 1403              		.loc 1 783 7 view .LVU418
 1404 0074 5310     		asrs	r3, r2, #1
 1405              	.LVL121:
 784:Src/BLDC_controller.c ****   if (tmp > 32767) {
 1406              		.loc 1 784 3 is_stmt 1 view .LVU419
 1407              		.loc 1 784 6 is_stmt 0 view .LVU420
 1408 0076 B2F5803F 		cmp	r2, #65536
 1409 007a 04DA     		bge	.L120
 785:Src/BLDC_controller.c ****     tmp = 32767;
 786:Src/BLDC_controller.c ****   } else {
ARM GAS  /var/folders/2w/5wbrmvx534s_vk8svtxz852c0000gn/T//cccje1sL.s 			page 40


 787:Src/BLDC_controller.c ****     if (tmp < -32768) {
 1410              		.loc 1 787 5 is_stmt 1 view .LVU421
 1411              		.loc 1 787 8 is_stmt 0 view .LVU422
 1412 007c 13F5004F 		cmn	r3, #32768
 1413 0080 03DA     		bge	.L108
 788:Src/BLDC_controller.c ****       tmp = -32768;
 1414              		.loc 1 788 11 view .LVU423
 1415 0082 1C4B     		ldr	r3, .L130
 1416              	.LVL122:
 1417              		.loc 1 788 11 view .LVU424
 1418 0084 01E0     		b	.L108
 1419              	.LVL123:
 1420              	.L120:
 785:Src/BLDC_controller.c ****     tmp = 32767;
 1421              		.loc 1 785 9 view .LVU425
 1422 0086 47F6FF73 		movw	r3, #32767
 1423              	.LVL124:
 1424              	.L108:
 789:Src/BLDC_controller.c ****     }
 790:Src/BLDC_controller.c ****   }
 791:Src/BLDC_controller.c **** 
 792:Src/BLDC_controller.c ****   /* RelationalOperator: '<S68>/LowerRelop1' incorporates:
 793:Src/BLDC_controller.c ****    *  Sum: '<S65>/Sum1'
 794:Src/BLDC_controller.c ****    */
 795:Src/BLDC_controller.c ****   rtb_LowerRelop1_l = ((int16_T)tmp > rtu_satMax);
 1425              		.loc 1 795 3 is_stmt 1 view .LVU426
 1426              		.loc 1 795 24 is_stmt 0 view .LVU427
 1427 008a 1BB2     		sxth	r3, r3
 1428              	.LVL125:
 796:Src/BLDC_controller.c **** 
 797:Src/BLDC_controller.c ****   /* RelationalOperator: '<S68>/UpperRelop' incorporates:
 798:Src/BLDC_controller.c ****    *  Sum: '<S65>/Sum1'
 799:Src/BLDC_controller.c ****    */
 800:Src/BLDC_controller.c ****   rtb_UpperRelop_l = ((int16_T)tmp < rtu_satMin);
 1429              		.loc 1 800 3 is_stmt 1 view .LVU428
 801:Src/BLDC_controller.c **** 
 802:Src/BLDC_controller.c ****   /* Switch: '<S68>/Switch1' incorporates:
 803:Src/BLDC_controller.c ****    *  Sum: '<S65>/Sum1'
 804:Src/BLDC_controller.c ****    *  Switch: '<S68>/Switch3'
 805:Src/BLDC_controller.c ****    */
 806:Src/BLDC_controller.c ****   if (rtb_LowerRelop1_l) {
 1430              		.loc 1 806 3 view .LVU429
 1431              		.loc 1 806 6 is_stmt 0 view .LVU430
 1432 008c 7345     		cmp	r3, lr
 1433 008e 18DD     		ble	.L109
 807:Src/BLDC_controller.c ****     *rty_out = rtu_satMax;
 1434              		.loc 1 807 5 is_stmt 1 view .LVU431
 1435              		.loc 1 807 14 is_stmt 0 view .LVU432
 1436 0090 079A     		ldr	r2, [sp, #28]
 1437 0092 A2F800E0 		strh	lr, [r2]	@ movhi
 1438              	.L110:
 808:Src/BLDC_controller.c ****   } else if (rtb_UpperRelop_l) {
 809:Src/BLDC_controller.c ****     /* Switch: '<S68>/Switch3' */
 810:Src/BLDC_controller.c ****     *rty_out = rtu_satMin;
 811:Src/BLDC_controller.c ****   } else {
 812:Src/BLDC_controller.c ****     *rty_out = (int16_T)tmp;
 813:Src/BLDC_controller.c ****   }
ARM GAS  /var/folders/2w/5wbrmvx534s_vk8svtxz852c0000gn/T//cccje1sL.s 			page 41


 814:Src/BLDC_controller.c **** 
 815:Src/BLDC_controller.c ****   /* End of Switch: '<S68>/Switch1' */
 816:Src/BLDC_controller.c **** 
 817:Src/BLDC_controller.c ****   /* Signum: '<S66>/SignDeltaU2' incorporates:
 818:Src/BLDC_controller.c ****    *  Sum: '<S65>/Sum2'
 819:Src/BLDC_controller.c ****    */
 820:Src/BLDC_controller.c ****   if (q0 < 0) {
 1439              		.loc 1 820 3 is_stmt 1 view .LVU433
 1440              		.loc 1 820 6 is_stmt 0 view .LVU434
 1441 0096 BCF1000F 		cmp	ip, #0
 1442 009a 1ADB     		blt	.L122
 821:Src/BLDC_controller.c ****     q0 = -1;
 822:Src/BLDC_controller.c ****   } else {
 823:Src/BLDC_controller.c ****     q0 = (q0 > 0);
 1443              		.loc 1 823 5 is_stmt 1 view .LVU435
 1444              		.loc 1 823 14 is_stmt 0 view .LVU436
 1445 009c BCF1000F 		cmp	ip, #0
 1446 00a0 D4BF     		ite	le
 1447 00a2 0022     		movle	r2, #0
 1448 00a4 0122     		movgt	r2, #1
 1449              	.LVL126:
 1450              	.L112:
 824:Src/BLDC_controller.c ****   }
 825:Src/BLDC_controller.c **** 
 826:Src/BLDC_controller.c ****   /* End of Signum: '<S66>/SignDeltaU2' */
 827:Src/BLDC_controller.c **** 
 828:Src/BLDC_controller.c ****   /* Signum: '<S66>/SignDeltaU3' incorporates:
 829:Src/BLDC_controller.c ****    *  Sum: '<S65>/Sum1'
 830:Src/BLDC_controller.c ****    */
 831:Src/BLDC_controller.c ****   if ((int16_T)tmp < 0) {
 1451              		.loc 1 831 3 is_stmt 1 view .LVU437
 1452              		.loc 1 831 6 is_stmt 0 view .LVU438
 1453 00a6 002B     		cmp	r3, #0
 1454 00a8 16DB     		blt	.L123
 832:Src/BLDC_controller.c ****     tmp_0 = -1;
 833:Src/BLDC_controller.c ****   } else {
 834:Src/BLDC_controller.c ****     tmp_0 = (int16_T)((int16_T)tmp > 0);
 1455              		.loc 1 834 5 is_stmt 1 view .LVU439
 1456              		.loc 1 834 11 is_stmt 0 view .LVU440
 1457 00aa 002B     		cmp	r3, #0
 1458 00ac D4BF     		ite	le
 1459 00ae 0021     		movle	r1, #0
 1460 00b0 0121     		movgt	r1, #1
 1461              	.LVL127:
 1462              	.L113:
 835:Src/BLDC_controller.c ****   }
 836:Src/BLDC_controller.c **** 
 837:Src/BLDC_controller.c ****   /* End of Signum: '<S66>/SignDeltaU3' */
 838:Src/BLDC_controller.c **** 
 839:Src/BLDC_controller.c ****   /* Update for UnitDelay: '<S65>/UnitDelay1' incorporates:
 840:Src/BLDC_controller.c ****    *  DataTypeConversion: '<S66>/DataTypeConv4'
 841:Src/BLDC_controller.c ****    *  Logic: '<S65>/AND1'
 842:Src/BLDC_controller.c ****    *  Logic: '<S66>/AND1'
 843:Src/BLDC_controller.c ****    *  RelationalOperator: '<S66>/Equal1'
 844:Src/BLDC_controller.c ****    */
 845:Src/BLDC_controller.c ****   localDW->UnitDelay1_DSTATE = ((q0 == tmp_0) && (rtb_LowerRelop1_l ||
 1463              		.loc 1 845 3 is_stmt 1 view .LVU441
ARM GAS  /var/folders/2w/5wbrmvx534s_vk8svtxz852c0000gn/T//cccje1sL.s 			page 42


 1464              		.loc 1 845 47 is_stmt 0 view .LVU442
 1465 00b2 9142     		cmp	r1, r2
 1466 00b4 13D0     		beq	.L129
 1467 00b6 0023     		movs	r3, #0
 1468              	.LVL128:
 1469              	.L114:
 1470              		.loc 1 845 30 discriminator 8 view .LVU443
 1471 00b8 6371     		strb	r3, [r4, #5]
 846:Src/BLDC_controller.c ****     rtb_UpperRelop_l));
 847:Src/BLDC_controller.c **** 
 848:Src/BLDC_controller.c ****   /* Update for Delay: '<S67>/Resettable Delay' */
 849:Src/BLDC_controller.c ****   localDW->icLoad = 0U;
 1472              		.loc 1 849 3 is_stmt 1 discriminator 8 view .LVU444
 1473              		.loc 1 849 19 is_stmt 0 discriminator 8 view .LVU445
 1474 00ba 0023     		movs	r3, #0
 1475 00bc 2371     		strb	r3, [r4, #4]
 850:Src/BLDC_controller.c ****   localDW->ResettableDelay_DSTATE = rtb_Sum1_ni;
 1476              		.loc 1 850 3 is_stmt 1 discriminator 8 view .LVU446
 1477              		.loc 1 850 35 is_stmt 0 discriminator 8 view .LVU447
 1478 00be 2560     		str	r5, [r4]
 851:Src/BLDC_controller.c **** }
 1479              		.loc 1 851 1 discriminator 8 view .LVU448
 1480 00c0 70BD     		pop	{r4, r5, r6, pc}
 1481              	.LVL129:
 1482              	.L109:
 808:Src/BLDC_controller.c ****     /* Switch: '<S68>/Switch3' */
 1483              		.loc 1 808 10 is_stmt 1 view .LVU449
 808:Src/BLDC_controller.c ****     /* Switch: '<S68>/Switch3' */
 1484              		.loc 1 808 13 is_stmt 0 view .LVU450
 1485 00c2 B342     		cmp	r3, r6
 1486 00c4 02DA     		bge	.L111
 810:Src/BLDC_controller.c ****   } else {
 1487              		.loc 1 810 5 is_stmt 1 view .LVU451
 810:Src/BLDC_controller.c ****   } else {
 1488              		.loc 1 810 14 is_stmt 0 view .LVU452
 1489 00c6 079A     		ldr	r2, [sp, #28]
 1490 00c8 1680     		strh	r6, [r2]	@ movhi
 1491 00ca E4E7     		b	.L110
 1492              	.L111:
 812:Src/BLDC_controller.c ****   }
 1493              		.loc 1 812 5 is_stmt 1 view .LVU453
 812:Src/BLDC_controller.c ****   }
 1494              		.loc 1 812 14 is_stmt 0 view .LVU454
 1495 00cc 079A     		ldr	r2, [sp, #28]
 1496 00ce 1380     		strh	r3, [r2]	@ movhi
 1497 00d0 E1E7     		b	.L110
 1498              	.L122:
 821:Src/BLDC_controller.c ****   } else {
 1499              		.loc 1 821 8 view .LVU455
 1500 00d2 4FF0FF32 		mov	r2, #-1
 1501 00d6 E6E7     		b	.L112
 1502              	.LVL130:
 1503              	.L123:
 832:Src/BLDC_controller.c ****   } else {
 1504              		.loc 1 832 11 view .LVU456
 1505 00d8 4FF0FF31 		mov	r1, #-1
 1506 00dc E9E7     		b	.L113
ARM GAS  /var/folders/2w/5wbrmvx534s_vk8svtxz852c0000gn/T//cccje1sL.s 			page 43


 1507              	.LVL131:
 1508              	.L129:
 845:Src/BLDC_controller.c ****     rtb_UpperRelop_l));
 1509              		.loc 1 845 47 discriminator 1 view .LVU457
 1510 00de 7345     		cmp	r3, lr
 1511 00e0 03DC     		bgt	.L125
 845:Src/BLDC_controller.c ****     rtb_UpperRelop_l));
 1512              		.loc 1 845 69 discriminator 4 view .LVU458
 1513 00e2 B342     		cmp	r3, r6
 1514 00e4 03DB     		blt	.L126
 845:Src/BLDC_controller.c ****     rtb_UpperRelop_l));
 1515              		.loc 1 845 47 view .LVU459
 1516 00e6 0023     		movs	r3, #0
 1517              	.LVL132:
 845:Src/BLDC_controller.c ****     rtb_UpperRelop_l));
 1518              		.loc 1 845 47 view .LVU460
 1519 00e8 E6E7     		b	.L114
 1520              	.LVL133:
 1521              	.L125:
 845:Src/BLDC_controller.c ****     rtb_UpperRelop_l));
 1522              		.loc 1 845 47 view .LVU461
 1523 00ea 0123     		movs	r3, #1
 1524              	.LVL134:
 845:Src/BLDC_controller.c ****     rtb_UpperRelop_l));
 1525              		.loc 1 845 47 view .LVU462
 1526 00ec E4E7     		b	.L114
 1527              	.LVL135:
 1528              	.L126:
 845:Src/BLDC_controller.c ****     rtb_UpperRelop_l));
 1529              		.loc 1 845 47 view .LVU463
 1530 00ee 0123     		movs	r3, #1
 1531              	.LVL136:
 845:Src/BLDC_controller.c ****     rtb_UpperRelop_l));
 1532              		.loc 1 845 47 view .LVU464
 1533 00f0 E2E7     		b	.L114
 1534              	.L131:
 1535 00f2 00BF     		.align	2
 1536              	.L130:
 1537 00f4 0080FFFF 		.word	-32768
 1538              		.cfi_endproc
 1539              	.LFE20:
 1541              		.section	.text.PI_clamp_fixdt_f_Init,"ax",%progbits
 1542              		.align	1
 1543              		.global	PI_clamp_fixdt_f_Init
 1544              		.syntax unified
 1545              		.thumb
 1546              		.thumb_func
 1548              	PI_clamp_fixdt_f_Init:
 1549              	.LVL137:
 1550              	.LFB21:
 852:Src/BLDC_controller.c **** 
 853:Src/BLDC_controller.c **** /* System initialize for atomic system: '<S62>/PI_clamp_fixdt' */
 854:Src/BLDC_controller.c **** void PI_clamp_fixdt_f_Init(DW_PI_clamp_fixdt_g *localDW)
 855:Src/BLDC_controller.c **** {
 1551              		.loc 1 855 1 is_stmt 1 view -0
 1552              		.cfi_startproc
 1553              		@ args = 0, pretend = 0, frame = 0
ARM GAS  /var/folders/2w/5wbrmvx534s_vk8svtxz852c0000gn/T//cccje1sL.s 			page 44


 1554              		@ frame_needed = 0, uses_anonymous_args = 0
 1555              		@ link register save eliminated.
 856:Src/BLDC_controller.c ****   /* InitializeConditions for Delay: '<S72>/Resettable Delay' */
 857:Src/BLDC_controller.c ****   localDW->icLoad = 1U;
 1556              		.loc 1 857 3 view .LVU466
 1557              		.loc 1 857 19 is_stmt 0 view .LVU467
 1558 0000 0123     		movs	r3, #1
 1559 0002 8370     		strb	r3, [r0, #2]
 858:Src/BLDC_controller.c **** }
 1560              		.loc 1 858 1 view .LVU468
 1561 0004 7047     		bx	lr
 1562              		.cfi_endproc
 1563              	.LFE21:
 1565              		.section	.text.PI_clamp_fixdt_g_Reset,"ax",%progbits
 1566              		.align	1
 1567              		.global	PI_clamp_fixdt_g_Reset
 1568              		.syntax unified
 1569              		.thumb
 1570              		.thumb_func
 1572              	PI_clamp_fixdt_g_Reset:
 1573              	.LVL138:
 1574              	.LFB22:
 859:Src/BLDC_controller.c **** 
 860:Src/BLDC_controller.c **** /* System reset for atomic system: '<S62>/PI_clamp_fixdt' */
 861:Src/BLDC_controller.c **** void PI_clamp_fixdt_g_Reset(DW_PI_clamp_fixdt_g *localDW)
 862:Src/BLDC_controller.c **** {
 1575              		.loc 1 862 1 is_stmt 1 view -0
 1576              		.cfi_startproc
 1577              		@ args = 0, pretend = 0, frame = 0
 1578              		@ frame_needed = 0, uses_anonymous_args = 0
 1579              		@ link register save eliminated.
 863:Src/BLDC_controller.c ****   /* InitializeConditions for UnitDelay: '<S69>/UnitDelay1' */
 864:Src/BLDC_controller.c ****   localDW->UnitDelay1_DSTATE = false;
 1580              		.loc 1 864 3 view .LVU470
 1581              		.loc 1 864 30 is_stmt 0 view .LVU471
 1582 0000 0023     		movs	r3, #0
 1583 0002 C370     		strb	r3, [r0, #3]
 865:Src/BLDC_controller.c **** 
 866:Src/BLDC_controller.c ****   /* InitializeConditions for Delay: '<S72>/Resettable Delay' */
 867:Src/BLDC_controller.c ****   localDW->icLoad = 1U;
 1584              		.loc 1 867 3 is_stmt 1 view .LVU472
 1585              		.loc 1 867 19 is_stmt 0 view .LVU473
 1586 0004 0123     		movs	r3, #1
 1587 0006 8370     		strb	r3, [r0, #2]
 868:Src/BLDC_controller.c **** }
 1588              		.loc 1 868 1 view .LVU474
 1589 0008 7047     		bx	lr
 1590              		.cfi_endproc
 1591              	.LFE22:
 1593              		.section	.text.PI_clamp_fixdt_k,"ax",%progbits
 1594              		.align	1
 1595              		.global	PI_clamp_fixdt_k
 1596              		.syntax unified
 1597              		.thumb
 1598              		.thumb_func
 1600              	PI_clamp_fixdt_k:
 1601              	.LVL139:
ARM GAS  /var/folders/2w/5wbrmvx534s_vk8svtxz852c0000gn/T//cccje1sL.s 			page 45


 1602              	.LFB23:
 869:Src/BLDC_controller.c **** 
 870:Src/BLDC_controller.c **** /* Output and update for atomic system: '<S62>/PI_clamp_fixdt' */
 871:Src/BLDC_controller.c **** void PI_clamp_fixdt_k(int16_T rtu_err, uint16_T rtu_P, uint16_T rtu_I, int16_T
 872:Src/BLDC_controller.c ****                       rtu_init, int16_T rtu_satMax, int16_T rtu_satMin, int32_T
 873:Src/BLDC_controller.c ****                       rtu_ext_limProt, int16_T *rty_out, DW_PI_clamp_fixdt_g
 874:Src/BLDC_controller.c ****                       *localDW)
 875:Src/BLDC_controller.c **** {
 1603              		.loc 1 875 1 is_stmt 1 view -0
 1604              		.cfi_startproc
 1605              		@ args = 20, pretend = 0, frame = 0
 1606              		@ frame_needed = 0, uses_anonymous_args = 0
 1607              		.loc 1 875 1 is_stmt 0 view .LVU476
 1608 0000 70B5     		push	{r4, r5, r6, lr}
 1609              	.LCFI13:
 1610              		.cfi_def_cfa_offset 16
 1611              		.cfi_offset 4, -16
 1612              		.cfi_offset 5, -12
 1613              		.cfi_offset 6, -8
 1614              		.cfi_offset 14, -4
 1615 0002 BDF910E0 		ldrsh	lr, [sp, #16]
 1616 0006 BDF91450 		ldrsh	r5, [sp, #20]
 1617 000a 069E     		ldr	r6, [sp, #24]
 1618 000c 089C     		ldr	r4, [sp, #32]
 876:Src/BLDC_controller.c ****   boolean_T rtb_LowerRelop1_i3;
 1619              		.loc 1 876 3 is_stmt 1 view .LVU477
 877:Src/BLDC_controller.c ****   boolean_T rtb_UpperRelop_i;
 1620              		.loc 1 877 3 view .LVU478
 878:Src/BLDC_controller.c ****   int16_T rtb_Sum1_bm;
 1621              		.loc 1 878 3 view .LVU479
 879:Src/BLDC_controller.c ****   int16_T tmp;
 1622              		.loc 1 879 3 view .LVU480
 880:Src/BLDC_controller.c ****   int32_T tmp_0;
 1623              		.loc 1 880 3 view .LVU481
 881:Src/BLDC_controller.c ****   int32_T q0;
 1624              		.loc 1 881 3 view .LVU482
 882:Src/BLDC_controller.c **** 
 883:Src/BLDC_controller.c ****   /* Sum: '<S69>/Sum2' incorporates:
 884:Src/BLDC_controller.c ****    *  Product: '<S69>/Divide2'
 885:Src/BLDC_controller.c ****    */
 886:Src/BLDC_controller.c ****   q0 = rtu_err * rtu_I;
 1625              		.loc 1 886 3 view .LVU483
 1626              		.loc 1 886 6 is_stmt 0 view .LVU484
 1627 000e 00FB02F2 		mul	r2, r0, r2
 1628              	.LVL140:
 887:Src/BLDC_controller.c ****   if ((q0 < 0) && (rtu_ext_limProt < MIN_int32_T - q0)) {
 1629              		.loc 1 887 3 is_stmt 1 view .LVU485
 1630              		.loc 1 887 6 is_stmt 0 view .LVU486
 1631 0012 002A     		cmp	r2, #0
 1632 0014 15DB     		blt	.L163
 1633              	.L135:
 888:Src/BLDC_controller.c ****     q0 = MIN_int32_T;
 889:Src/BLDC_controller.c ****   } else if ((q0 > 0) && (rtu_ext_limProt > MAX_int32_T - q0)) {
 1634              		.loc 1 889 10 is_stmt 1 view .LVU487
 1635              		.loc 1 889 13 is_stmt 0 view .LVU488
 1636 0016 002A     		cmp	r2, #0
 1637 0018 05DD     		ble	.L137
ARM GAS  /var/folders/2w/5wbrmvx534s_vk8svtxz852c0000gn/T//cccje1sL.s 			page 46


 1638              		.loc 1 889 57 discriminator 1 view .LVU489
 1639 001a 6FF0004C 		mvn	ip, #-2147483648
 1640 001e ACEB020C 		sub	ip, ip, r2
 1641              		.loc 1 889 23 discriminator 1 view .LVU490
 1642 0022 B445     		cmp	ip, r6
 1643 0024 14DB     		blt	.L150
 1644              	.L137:
 890:Src/BLDC_controller.c ****     q0 = MAX_int32_T;
 891:Src/BLDC_controller.c ****   } else {
 892:Src/BLDC_controller.c ****     q0 += rtu_ext_limProt;
 1645              		.loc 1 892 5 is_stmt 1 view .LVU491
 1646              		.loc 1 892 8 is_stmt 0 view .LVU492
 1647 0026 02EB060C 		add	ip, r2, r6
 1648              	.LVL141:
 1649              	.L136:
 893:Src/BLDC_controller.c ****   }
 894:Src/BLDC_controller.c **** 
 895:Src/BLDC_controller.c ****   /* Delay: '<S72>/Resettable Delay' */
 896:Src/BLDC_controller.c ****   if (localDW->icLoad != 0) {
 1650              		.loc 1 896 3 is_stmt 1 view .LVU493
 1651              		.loc 1 896 14 is_stmt 0 view .LVU494
 1652 002a A278     		ldrb	r2, [r4, #2]	@ zero_extendqisi2
 1653              		.loc 1 896 6 view .LVU495
 1654 002c 02B1     		cbz	r2, .L138
 897:Src/BLDC_controller.c ****     localDW->ResettableDelay_DSTATE = rtu_init;
 1655              		.loc 1 897 5 is_stmt 1 view .LVU496
 1656              		.loc 1 897 37 is_stmt 0 view .LVU497
 1657 002e 2380     		strh	r3, [r4]	@ movhi
 1658              	.L138:
 898:Src/BLDC_controller.c ****   }
 899:Src/BLDC_controller.c **** 
 900:Src/BLDC_controller.c ****   /* Switch: '<S69>/Switch1' incorporates:
 901:Src/BLDC_controller.c ****    *  Constant: '<S69>/Constant'
 902:Src/BLDC_controller.c ****    *  Sum: '<S69>/Sum2'
 903:Src/BLDC_controller.c ****    *  UnitDelay: '<S69>/UnitDelay1'
 904:Src/BLDC_controller.c ****    */
 905:Src/BLDC_controller.c ****   if (localDW->UnitDelay1_DSTATE) {
 1659              		.loc 1 905 3 is_stmt 1 view .LVU498
 1660              		.loc 1 905 14 is_stmt 0 view .LVU499
 1661 0030 E378     		ldrb	r3, [r4, #3]	@ zero_extendqisi2
 1662              	.LVL142:
 1663              		.loc 1 905 6 view .LVU500
 1664 0032 9BB9     		cbnz	r3, .L151
 906:Src/BLDC_controller.c ****     tmp = 0;
 907:Src/BLDC_controller.c ****   } else {
 908:Src/BLDC_controller.c ****     tmp = (int16_T)(((q0 < 0 ? 65535 : 0) + q0) >> 16);
 1665              		.loc 1 908 5 is_stmt 1 view .LVU501
 1666              		.loc 1 908 38 is_stmt 0 view .LVU502
 1667 0034 BCF1000F 		cmp	ip, #0
 1668 0038 0DDB     		blt	.L164
 1669 003a 0022     		movs	r2, #0
 1670              	.L140:
 1671              		.loc 1 908 43 discriminator 4 view .LVU503
 1672 003c 6244     		add	r2, r2, ip
 1673              		.loc 1 908 9 discriminator 4 view .LVU504
 1674 003e 1314     		asrs	r3, r2, #16
 1675              	.LVL143:
ARM GAS  /var/folders/2w/5wbrmvx534s_vk8svtxz852c0000gn/T//cccje1sL.s 			page 47


 1676              		.loc 1 908 9 discriminator 4 view .LVU505
 1677 0040 0DE0     		b	.L139
 1678              	.LVL144:
 1679              	.L163:
 887:Src/BLDC_controller.c ****     q0 = MIN_int32_T;
 1680              		.loc 1 887 50 discriminator 1 view .LVU506
 1681 0042 C2F1004C 		rsb	ip, r2, #-2147483648
 887:Src/BLDC_controller.c ****     q0 = MIN_int32_T;
 1682              		.loc 1 887 16 discriminator 1 view .LVU507
 1683 0046 B445     		cmp	ip, r6
 1684 0048 E5DD     		ble	.L135
 888:Src/BLDC_controller.c ****   } else if ((q0 > 0) && (rtu_ext_limProt > MAX_int32_T - q0)) {
 1685              		.loc 1 888 8 view .LVU508
 1686 004a 4FF0004C 		mov	ip, #-2147483648
 1687 004e ECE7     		b	.L136
 1688              	.L150:
 890:Src/BLDC_controller.c ****   } else {
 1689              		.loc 1 890 8 view .LVU509
 1690 0050 6FF0004C 		mvn	ip, #-2147483648
 1691 0054 E9E7     		b	.L136
 1692              	.LVL145:
 1693              	.L164:
 1694              		.loc 1 908 38 view .LVU510
 1695 0056 4FF6FF72 		movw	r2, #65535
 1696 005a EFE7     		b	.L140
 1697              	.L151:
 906:Src/BLDC_controller.c ****   } else {
 1698              		.loc 1 906 9 view .LVU511
 1699 005c 0023     		movs	r3, #0
 1700              	.L139:
 1701              	.LVL146:
 909:Src/BLDC_controller.c ****   }
 910:Src/BLDC_controller.c **** 
 911:Src/BLDC_controller.c ****   /* End of Switch: '<S69>/Switch1' */
 912:Src/BLDC_controller.c **** 
 913:Src/BLDC_controller.c ****   /* Sum: '<S72>/Sum1' incorporates:
 914:Src/BLDC_controller.c ****    *  Delay: '<S72>/Resettable Delay'
 915:Src/BLDC_controller.c ****    */
 916:Src/BLDC_controller.c ****   rtb_Sum1_bm = (int16_T)(tmp + localDW->ResettableDelay_DSTATE);
 1702              		.loc 1 916 3 is_stmt 1 view .LVU512
 1703              		.loc 1 916 40 is_stmt 0 view .LVU513
 1704 005e 2288     		ldrh	r2, [r4]
 1705              		.loc 1 916 31 view .LVU514
 1706 0060 1A44     		add	r2, r2, r3
 1707              		.loc 1 916 15 view .LVU515
 1708 0062 12B2     		sxth	r2, r2
 1709              	.LVL147:
 917:Src/BLDC_controller.c **** 
 918:Src/BLDC_controller.c ****   /* Product: '<S69>/Divide5' */
 919:Src/BLDC_controller.c ****   tmp_0 = (rtu_err * rtu_P) >> 11;
 1710              		.loc 1 919 3 is_stmt 1 view .LVU516
 1711              		.loc 1 919 20 is_stmt 0 view .LVU517
 1712 0064 00FB01F1 		mul	r1, r0, r1
 1713              	.LVL148:
 1714              		.loc 1 919 9 view .LVU518
 1715 0068 CB12     		asrs	r3, r1, #11
 1716              	.LVL149:
ARM GAS  /var/folders/2w/5wbrmvx534s_vk8svtxz852c0000gn/T//cccje1sL.s 			page 48


 920:Src/BLDC_controller.c ****   if (tmp_0 > 32767) {
 1717              		.loc 1 920 3 is_stmt 1 view .LVU519
 1718              		.loc 1 920 6 is_stmt 0 view .LVU520
 1719 006a B1F1806F 		cmp	r1, #67108864
 1720 006e 04DA     		bge	.L153
 921:Src/BLDC_controller.c ****     tmp_0 = 32767;
 922:Src/BLDC_controller.c ****   } else {
 923:Src/BLDC_controller.c ****     if (tmp_0 < -32768) {
 1721              		.loc 1 923 5 is_stmt 1 view .LVU521
 1722              		.loc 1 923 8 is_stmt 0 view .LVU522
 1723 0070 13F5004F 		cmn	r3, #32768
 1724 0074 03DA     		bge	.L141
 924:Src/BLDC_controller.c ****       tmp_0 = -32768;
 1725              		.loc 1 924 13 view .LVU523
 1726 0076 234B     		ldr	r3, .L166
 1727              	.LVL150:
 1728              		.loc 1 924 13 view .LVU524
 1729 0078 01E0     		b	.L141
 1730              	.LVL151:
 1731              	.L153:
 921:Src/BLDC_controller.c ****     tmp_0 = 32767;
 1732              		.loc 1 921 11 view .LVU525
 1733 007a 47F6FF73 		movw	r3, #32767
 1734              	.LVL152:
 1735              	.L141:
 925:Src/BLDC_controller.c ****     }
 926:Src/BLDC_controller.c ****   }
 927:Src/BLDC_controller.c **** 
 928:Src/BLDC_controller.c ****   /* Sum: '<S69>/Sum1' incorporates:
 929:Src/BLDC_controller.c ****    *  Product: '<S69>/Divide5'
 930:Src/BLDC_controller.c ****    */
 931:Src/BLDC_controller.c ****   tmp_0 = ((rtb_Sum1_bm << 1) + tmp_0) >> 1;
 1736              		.loc 1 931 3 is_stmt 1 view .LVU526
 1737              		.loc 1 931 31 is_stmt 0 view .LVU527
 1738 007e 03EB4201 		add	r1, r3, r2, lsl #1
 1739              		.loc 1 931 9 view .LVU528
 1740 0082 4B10     		asrs	r3, r1, #1
 1741              	.LVL153:
 932:Src/BLDC_controller.c ****   if (tmp_0 > 32767) {
 1742              		.loc 1 932 3 is_stmt 1 view .LVU529
 1743              		.loc 1 932 6 is_stmt 0 view .LVU530
 1744 0084 B1F5803F 		cmp	r1, #65536
 1745 0088 04DA     		bge	.L155
 933:Src/BLDC_controller.c ****     tmp_0 = 32767;
 934:Src/BLDC_controller.c ****   } else {
 935:Src/BLDC_controller.c ****     if (tmp_0 < -32768) {
 1746              		.loc 1 935 5 is_stmt 1 view .LVU531
 1747              		.loc 1 935 8 is_stmt 0 view .LVU532
 1748 008a 13F5004F 		cmn	r3, #32768
 1749 008e 03DA     		bge	.L142
 936:Src/BLDC_controller.c ****       tmp_0 = -32768;
 1750              		.loc 1 936 13 view .LVU533
 1751 0090 1C4B     		ldr	r3, .L166
 1752              	.LVL154:
 1753              		.loc 1 936 13 view .LVU534
 1754 0092 01E0     		b	.L142
 1755              	.LVL155:
ARM GAS  /var/folders/2w/5wbrmvx534s_vk8svtxz852c0000gn/T//cccje1sL.s 			page 49


 1756              	.L155:
 933:Src/BLDC_controller.c ****     tmp_0 = 32767;
 1757              		.loc 1 933 11 view .LVU535
 1758 0094 47F6FF73 		movw	r3, #32767
 1759              	.LVL156:
 1760              	.L142:
 937:Src/BLDC_controller.c ****     }
 938:Src/BLDC_controller.c ****   }
 939:Src/BLDC_controller.c **** 
 940:Src/BLDC_controller.c ****   /* RelationalOperator: '<S73>/LowerRelop1' incorporates:
 941:Src/BLDC_controller.c ****    *  Sum: '<S69>/Sum1'
 942:Src/BLDC_controller.c ****    */
 943:Src/BLDC_controller.c ****   rtb_LowerRelop1_i3 = ((int16_T)tmp_0 > rtu_satMax);
 1761              		.loc 1 943 3 is_stmt 1 view .LVU536
 1762              		.loc 1 943 25 is_stmt 0 view .LVU537
 1763 0098 1BB2     		sxth	r3, r3
 1764              	.LVL157:
 944:Src/BLDC_controller.c **** 
 945:Src/BLDC_controller.c ****   /* RelationalOperator: '<S73>/UpperRelop' incorporates:
 946:Src/BLDC_controller.c ****    *  Sum: '<S69>/Sum1'
 947:Src/BLDC_controller.c ****    */
 948:Src/BLDC_controller.c ****   rtb_UpperRelop_i = ((int16_T)tmp_0 < rtu_satMin);
 1765              		.loc 1 948 3 is_stmt 1 view .LVU538
 949:Src/BLDC_controller.c **** 
 950:Src/BLDC_controller.c ****   /* Switch: '<S73>/Switch1' incorporates:
 951:Src/BLDC_controller.c ****    *  Sum: '<S69>/Sum1'
 952:Src/BLDC_controller.c ****    *  Switch: '<S73>/Switch3'
 953:Src/BLDC_controller.c ****    */
 954:Src/BLDC_controller.c ****   if (rtb_LowerRelop1_i3) {
 1766              		.loc 1 954 3 view .LVU539
 1767              		.loc 1 954 6 is_stmt 0 view .LVU540
 1768 009a 7345     		cmp	r3, lr
 1769 009c 1ADD     		ble	.L143
 955:Src/BLDC_controller.c ****     *rty_out = rtu_satMax;
 1770              		.loc 1 955 5 is_stmt 1 view .LVU541
 1771              		.loc 1 955 14 is_stmt 0 view .LVU542
 1772 009e 0799     		ldr	r1, [sp, #28]
 1773 00a0 A1F800E0 		strh	lr, [r1]	@ movhi
 1774              	.L144:
 956:Src/BLDC_controller.c ****   } else if (rtb_UpperRelop_i) {
 957:Src/BLDC_controller.c ****     /* Switch: '<S73>/Switch3' */
 958:Src/BLDC_controller.c ****     *rty_out = rtu_satMin;
 959:Src/BLDC_controller.c ****   } else {
 960:Src/BLDC_controller.c ****     *rty_out = (int16_T)tmp_0;
 961:Src/BLDC_controller.c ****   }
 962:Src/BLDC_controller.c **** 
 963:Src/BLDC_controller.c ****   /* End of Switch: '<S73>/Switch1' */
 964:Src/BLDC_controller.c **** 
 965:Src/BLDC_controller.c ****   /* Signum: '<S71>/SignDeltaU2' incorporates:
 966:Src/BLDC_controller.c ****    *  Sum: '<S69>/Sum2'
 967:Src/BLDC_controller.c ****    */
 968:Src/BLDC_controller.c ****   if (q0 < 0) {
 1775              		.loc 1 968 3 is_stmt 1 view .LVU543
 1776              		.loc 1 968 6 is_stmt 0 view .LVU544
 1777 00a4 BCF1000F 		cmp	ip, #0
 1778 00a8 1CDB     		blt	.L157
 969:Src/BLDC_controller.c ****     q0 = -1;
ARM GAS  /var/folders/2w/5wbrmvx534s_vk8svtxz852c0000gn/T//cccje1sL.s 			page 50


 970:Src/BLDC_controller.c ****   } else {
 971:Src/BLDC_controller.c ****     q0 = (q0 > 0);
 1779              		.loc 1 971 5 is_stmt 1 view .LVU545
 1780              		.loc 1 971 14 is_stmt 0 view .LVU546
 1781 00aa BCF1000F 		cmp	ip, #0
 1782 00ae D4BF     		ite	le
 1783 00b0 4FF0000C 		movle	ip, #0
 1784              	.LVL158:
 1785              		.loc 1 971 14 view .LVU547
 1786 00b4 4FF0010C 		movgt	ip, #1
 1787              	.LVL159:
 1788              	.L146:
 972:Src/BLDC_controller.c ****   }
 973:Src/BLDC_controller.c **** 
 974:Src/BLDC_controller.c ****   /* End of Signum: '<S71>/SignDeltaU2' */
 975:Src/BLDC_controller.c **** 
 976:Src/BLDC_controller.c ****   /* Signum: '<S71>/SignDeltaU3' incorporates:
 977:Src/BLDC_controller.c ****    *  Sum: '<S69>/Sum1'
 978:Src/BLDC_controller.c ****    */
 979:Src/BLDC_controller.c ****   if ((int16_T)tmp_0 < 0) {
 1789              		.loc 1 979 3 is_stmt 1 view .LVU548
 1790              		.loc 1 979 6 is_stmt 0 view .LVU549
 1791 00b8 002B     		cmp	r3, #0
 1792 00ba 16DB     		blt	.L158
 980:Src/BLDC_controller.c ****     tmp = -1;
 981:Src/BLDC_controller.c ****   } else {
 982:Src/BLDC_controller.c ****     tmp = (int16_T)((int16_T)tmp_0 > 0);
 1793              		.loc 1 982 5 is_stmt 1 view .LVU550
 1794              		.loc 1 982 9 is_stmt 0 view .LVU551
 1795 00bc 002B     		cmp	r3, #0
 1796 00be D4BF     		ite	le
 1797 00c0 0021     		movle	r1, #0
 1798 00c2 0121     		movgt	r1, #1
 1799              	.LVL160:
 1800              	.L147:
 983:Src/BLDC_controller.c ****   }
 984:Src/BLDC_controller.c **** 
 985:Src/BLDC_controller.c ****   /* End of Signum: '<S71>/SignDeltaU3' */
 986:Src/BLDC_controller.c **** 
 987:Src/BLDC_controller.c ****   /* Update for UnitDelay: '<S69>/UnitDelay1' incorporates:
 988:Src/BLDC_controller.c ****    *  DataTypeConversion: '<S71>/DataTypeConv4'
 989:Src/BLDC_controller.c ****    *  Logic: '<S69>/AND1'
 990:Src/BLDC_controller.c ****    *  Logic: '<S71>/AND1'
 991:Src/BLDC_controller.c ****    *  RelationalOperator: '<S71>/Equal1'
 992:Src/BLDC_controller.c ****    */
 993:Src/BLDC_controller.c ****   localDW->UnitDelay1_DSTATE = ((q0 == tmp) && (rtb_LowerRelop1_i3 ||
 1801              		.loc 1 993 3 is_stmt 1 view .LVU552
 1802              		.loc 1 993 45 is_stmt 0 view .LVU553
 1803 00c4 6145     		cmp	r1, ip
 1804 00c6 13D0     		beq	.L165
 1805 00c8 0023     		movs	r3, #0
 1806              	.LVL161:
 1807              	.L148:
 1808              		.loc 1 993 30 discriminator 8 view .LVU554
 1809 00ca E370     		strb	r3, [r4, #3]
 994:Src/BLDC_controller.c ****     rtb_UpperRelop_i));
 995:Src/BLDC_controller.c **** 
ARM GAS  /var/folders/2w/5wbrmvx534s_vk8svtxz852c0000gn/T//cccje1sL.s 			page 51


 996:Src/BLDC_controller.c ****   /* Update for Delay: '<S72>/Resettable Delay' */
 997:Src/BLDC_controller.c ****   localDW->icLoad = 0U;
 1810              		.loc 1 997 3 is_stmt 1 discriminator 8 view .LVU555
 1811              		.loc 1 997 19 is_stmt 0 discriminator 8 view .LVU556
 1812 00cc 0023     		movs	r3, #0
 1813 00ce A370     		strb	r3, [r4, #2]
 998:Src/BLDC_controller.c ****   localDW->ResettableDelay_DSTATE = rtb_Sum1_bm;
 1814              		.loc 1 998 3 is_stmt 1 discriminator 8 view .LVU557
 1815              		.loc 1 998 35 is_stmt 0 discriminator 8 view .LVU558
 1816 00d0 2280     		strh	r2, [r4]	@ movhi
 999:Src/BLDC_controller.c **** }
 1817              		.loc 1 999 1 discriminator 8 view .LVU559
 1818 00d2 70BD     		pop	{r4, r5, r6, pc}
 1819              	.LVL162:
 1820              	.L143:
 956:Src/BLDC_controller.c ****     /* Switch: '<S73>/Switch3' */
 1821              		.loc 1 956 10 is_stmt 1 view .LVU560
 956:Src/BLDC_controller.c ****     /* Switch: '<S73>/Switch3' */
 1822              		.loc 1 956 13 is_stmt 0 view .LVU561
 1823 00d4 AB42     		cmp	r3, r5
 1824 00d6 02DA     		bge	.L145
 958:Src/BLDC_controller.c ****   } else {
 1825              		.loc 1 958 5 is_stmt 1 view .LVU562
 958:Src/BLDC_controller.c ****   } else {
 1826              		.loc 1 958 14 is_stmt 0 view .LVU563
 1827 00d8 0799     		ldr	r1, [sp, #28]
 1828 00da 0D80     		strh	r5, [r1]	@ movhi
 1829 00dc E2E7     		b	.L144
 1830              	.L145:
 960:Src/BLDC_controller.c ****   }
 1831              		.loc 1 960 5 is_stmt 1 view .LVU564
 960:Src/BLDC_controller.c ****   }
 1832              		.loc 1 960 14 is_stmt 0 view .LVU565
 1833 00de 0799     		ldr	r1, [sp, #28]
 1834 00e0 0B80     		strh	r3, [r1]	@ movhi
 1835 00e2 DFE7     		b	.L144
 1836              	.L157:
 969:Src/BLDC_controller.c ****   } else {
 1837              		.loc 1 969 8 view .LVU566
 1838 00e4 4FF0FF3C 		mov	ip, #-1
 1839              	.LVL163:
 969:Src/BLDC_controller.c ****   } else {
 1840              		.loc 1 969 8 view .LVU567
 1841 00e8 E6E7     		b	.L146
 1842              	.LVL164:
 1843              	.L158:
 980:Src/BLDC_controller.c ****   } else {
 1844              		.loc 1 980 9 view .LVU568
 1845 00ea 4FF0FF31 		mov	r1, #-1
 1846 00ee E9E7     		b	.L147
 1847              	.LVL165:
 1848              	.L165:
 993:Src/BLDC_controller.c ****     rtb_UpperRelop_i));
 1849              		.loc 1 993 45 discriminator 1 view .LVU569
 1850 00f0 7345     		cmp	r3, lr
 1851 00f2 03DC     		bgt	.L160
 993:Src/BLDC_controller.c ****     rtb_UpperRelop_i));
ARM GAS  /var/folders/2w/5wbrmvx534s_vk8svtxz852c0000gn/T//cccje1sL.s 			page 52


 1852              		.loc 1 993 68 discriminator 4 view .LVU570
 1853 00f4 AB42     		cmp	r3, r5
 1854 00f6 03DB     		blt	.L161
 993:Src/BLDC_controller.c ****     rtb_UpperRelop_i));
 1855              		.loc 1 993 45 view .LVU571
 1856 00f8 0023     		movs	r3, #0
 1857              	.LVL166:
 993:Src/BLDC_controller.c ****     rtb_UpperRelop_i));
 1858              		.loc 1 993 45 view .LVU572
 1859 00fa E6E7     		b	.L148
 1860              	.LVL167:
 1861              	.L160:
 993:Src/BLDC_controller.c ****     rtb_UpperRelop_i));
 1862              		.loc 1 993 45 view .LVU573
 1863 00fc 0123     		movs	r3, #1
 1864              	.LVL168:
 993:Src/BLDC_controller.c ****     rtb_UpperRelop_i));
 1865              		.loc 1 993 45 view .LVU574
 1866 00fe E4E7     		b	.L148
 1867              	.LVL169:
 1868              	.L161:
 993:Src/BLDC_controller.c ****     rtb_UpperRelop_i));
 1869              		.loc 1 993 45 view .LVU575
 1870 0100 0123     		movs	r3, #1
 1871              	.LVL170:
 993:Src/BLDC_controller.c ****     rtb_UpperRelop_i));
 1872              		.loc 1 993 45 view .LVU576
 1873 0102 E2E7     		b	.L148
 1874              	.L167:
 1875              		.align	2
 1876              	.L166:
 1877 0104 0080FFFF 		.word	-32768
 1878              		.cfi_endproc
 1879              	.LFE23:
 1881              		.section	.text.BLDC_controller_step,"ax",%progbits
 1882              		.align	1
 1883              		.global	BLDC_controller_step
 1884              		.syntax unified
 1885              		.thumb
 1886              		.thumb_func
 1888              	BLDC_controller_step:
 1889              	.LVL171:
 1890              	.LFB24:
1000:Src/BLDC_controller.c **** 
1001:Src/BLDC_controller.c **** /* Model step function */
1002:Src/BLDC_controller.c **** void BLDC_controller_step(RT_MODEL *const rtM)
1003:Src/BLDC_controller.c **** {
 1891              		.loc 1 1003 1 is_stmt 1 view -0
 1892              		.cfi_startproc
 1893              		@ args = 0, pretend = 0, frame = 56
 1894              		@ frame_needed = 0, uses_anonymous_args = 0
 1895              		.loc 1 1003 1 is_stmt 0 view .LVU578
 1896 0000 2DE9F04F 		push	{r4, r5, r6, r7, r8, r9, r10, fp, lr}
 1897              	.LCFI14:
 1898              		.cfi_def_cfa_offset 36
 1899              		.cfi_offset 4, -36
 1900              		.cfi_offset 5, -32
ARM GAS  /var/folders/2w/5wbrmvx534s_vk8svtxz852c0000gn/T//cccje1sL.s 			page 53


 1901              		.cfi_offset 6, -28
 1902              		.cfi_offset 7, -24
 1903              		.cfi_offset 8, -20
 1904              		.cfi_offset 9, -16
 1905              		.cfi_offset 10, -12
 1906              		.cfi_offset 11, -8
 1907              		.cfi_offset 14, -4
 1908 0004 95B0     		sub	sp, sp, #84
 1909              	.LCFI15:
 1910              		.cfi_def_cfa_offset 120
1004:Src/BLDC_controller.c ****   P *rtP = ((P *) rtM->defaultParam);
 1911              		.loc 1 1004 3 is_stmt 1 view .LVU579
 1912              		.loc 1 1004 6 is_stmt 0 view .LVU580
 1913 0006 0568     		ldr	r5, [r0]
 1914              	.LVL172:
1005:Src/BLDC_controller.c ****   DW *rtDW = ((DW *) rtM->dwork);
 1915              		.loc 1 1005 3 is_stmt 1 view .LVU581
 1916              		.loc 1 1005 7 is_stmt 0 view .LVU582
 1917 0008 C468     		ldr	r4, [r0, #12]
 1918              	.LVL173:
1006:Src/BLDC_controller.c ****   ExtU *rtU = (ExtU *) rtM->inputs;
 1919              		.loc 1 1006 3 is_stmt 1 view .LVU583
 1920              		.loc 1 1006 9 is_stmt 0 view .LVU584
 1921 000a 4668     		ldr	r6, [r0, #4]
 1922              	.LVL174:
1007:Src/BLDC_controller.c ****   ExtY *rtY = (ExtY *) rtM->outputs;
 1923              		.loc 1 1007 3 is_stmt 1 view .LVU585
 1924              		.loc 1 1007 9 is_stmt 0 view .LVU586
 1925 000c 8768     		ldr	r7, [r0, #8]
 1926              	.LVL175:
1008:Src/BLDC_controller.c ****   boolean_T rtb_LogicalOperator;
 1927              		.loc 1 1008 3 is_stmt 1 view .LVU587
1009:Src/BLDC_controller.c ****   int8_T rtb_Sum2_h;
 1928              		.loc 1 1009 3 view .LVU588
1010:Src/BLDC_controller.c ****   boolean_T rtb_RelationalOperator4_d;
 1929              		.loc 1 1010 3 view .LVU589
1011:Src/BLDC_controller.c ****   boolean_T rtb_UnitDelay5_e;
 1930              		.loc 1 1011 3 view .LVU590
1012:Src/BLDC_controller.c ****   uint8_T rtb_a_elecAngle_XA_g;
 1931              		.loc 1 1012 3 view .LVU591
1013:Src/BLDC_controller.c ****   boolean_T rtb_LogicalOperator1_j;
 1932              		.loc 1 1013 3 view .LVU592
1014:Src/BLDC_controller.c ****   boolean_T rtb_LogicalOperator2_p;
 1933              		.loc 1 1014 3 view .LVU593
1015:Src/BLDC_controller.c ****   boolean_T rtb_RelationalOperator1_mv;
 1934              		.loc 1 1015 3 view .LVU594
1016:Src/BLDC_controller.c ****   int16_T rtb_Switch1_l;
 1935              		.loc 1 1016 3 view .LVU595
1017:Src/BLDC_controller.c ****   int16_T rtb_Saturation;
 1936              		.loc 1 1017 3 view .LVU596
1018:Src/BLDC_controller.c ****   int16_T rtb_Saturation1;
 1937              		.loc 1 1018 3 view .LVU597
1019:Src/BLDC_controller.c ****   int32_T rtb_Sum1_jt;
 1938              		.loc 1 1019 3 view .LVU598
1020:Src/BLDC_controller.c ****   int16_T rtb_Merge_m;
 1939              		.loc 1 1020 3 view .LVU599
1021:Src/BLDC_controller.c ****   int16_T rtb_Merge1;
ARM GAS  /var/folders/2w/5wbrmvx534s_vk8svtxz852c0000gn/T//cccje1sL.s 			page 54


 1940              		.loc 1 1021 3 view .LVU600
1022:Src/BLDC_controller.c ****   uint16_T rtb_Divide14_e;
 1941              		.loc 1 1022 3 view .LVU601
1023:Src/BLDC_controller.c ****   uint16_T rtb_Divide1_f;
 1942              		.loc 1 1023 3 view .LVU602
1024:Src/BLDC_controller.c ****   int16_T rtb_TmpSignalConversionAtLow_Pa[2];
 1943              		.loc 1 1024 3 view .LVU603
1025:Src/BLDC_controller.c ****   int32_T rtb_Switch1;
 1944              		.loc 1 1025 3 view .LVU604
1026:Src/BLDC_controller.c ****   int32_T rtb_Sum1;
 1945              		.loc 1 1026 3 view .LVU605
1027:Src/BLDC_controller.c ****   int32_T rtb_Gain3;
 1946              		.loc 1 1027 3 view .LVU606
1028:Src/BLDC_controller.c ****   uint8_T Sum;
 1947              		.loc 1 1028 3 view .LVU607
1029:Src/BLDC_controller.c ****   int16_T Switch2;
 1948              		.loc 1 1029 3 view .LVU608
1030:Src/BLDC_controller.c ****   int16_T Abs5;
 1949              		.loc 1 1030 3 view .LVU609
1031:Src/BLDC_controller.c ****   int16_T DataTypeConversion2;
 1950              		.loc 1 1031 3 view .LVU610
1032:Src/BLDC_controller.c ****   int16_T tmp[4];
 1951              		.loc 1 1032 3 view .LVU611
1033:Src/BLDC_controller.c ****   int8_T UnitDelay3;
 1952              		.loc 1 1033 3 view .LVU612
1034:Src/BLDC_controller.c **** 
1035:Src/BLDC_controller.c ****   /* Outputs for Atomic SubSystem: '<Root>/BLDC_controller' */
1036:Src/BLDC_controller.c ****   /* Sum: '<S11>/Sum' incorporates:
1037:Src/BLDC_controller.c ****    *  Gain: '<S11>/g_Ha'
1038:Src/BLDC_controller.c ****    *  Gain: '<S11>/g_Hb'
1039:Src/BLDC_controller.c ****    *  Inport: '<Root>/b_hallA '
1040:Src/BLDC_controller.c ****    *  Inport: '<Root>/b_hallB'
1041:Src/BLDC_controller.c ****    *  Inport: '<Root>/b_hallC'
1042:Src/BLDC_controller.c ****    */
1043:Src/BLDC_controller.c ****   Sum = (uint8_T)((uint32_T)(uint8_T)((uint32_T)(uint8_T)(rtU->b_hallA << 2) +
 1953              		.loc 1 1043 3 view .LVU613
 1954              		.loc 1 1043 62 is_stmt 0 view .LVU614
 1955 000e 3179     		ldrb	r1, [r6, #4]	@ zero_extendqisi2
 1956              		.loc 1 1043 49 view .LVU615
 1957 0010 8A00     		lsls	r2, r1, #2
 1958 0012 D2B2     		uxtb	r2, r2
1044:Src/BLDC_controller.c ****     (uint8_T)(rtU->b_hallB << 1)) + rtU->b_hallC);
 1959              		.loc 1 1044 18 view .LVU616
 1960 0014 7379     		ldrb	r3, [r6, #5]	@ zero_extendqisi2
 1961              		.loc 1 1044 5 view .LVU617
 1962 0016 5800     		lsls	r0, r3, #1
 1963              	.LVL176:
 1964              		.loc 1 1044 5 view .LVU618
 1965 0018 C0B2     		uxtb	r0, r0
1043:Src/BLDC_controller.c ****     (uint8_T)(rtU->b_hallB << 1)) + rtU->b_hallC);
 1966              		.loc 1 1043 29 view .LVU619
 1967 001a 0244     		add	r2, r2, r0
 1968 001c D2B2     		uxtb	r2, r2
 1969              		.loc 1 1044 40 view .LVU620
 1970 001e B079     		ldrb	r0, [r6, #6]	@ zero_extendqisi2
1043:Src/BLDC_controller.c ****     (uint8_T)(rtU->b_hallB << 1)) + rtU->b_hallC);
 1971              		.loc 1 1043 7 view .LVU621
ARM GAS  /var/folders/2w/5wbrmvx534s_vk8svtxz852c0000gn/T//cccje1sL.s 			page 55


 1972 0020 0244     		add	r2, r2, r0
 1973 0022 5FFA82FB 		uxtb	fp, r2
 1974              	.LVL177:
1045:Src/BLDC_controller.c **** 
1046:Src/BLDC_controller.c ****   /* Logic: '<S10>/Logical Operator' incorporates:
1047:Src/BLDC_controller.c ****    *  Inport: '<Root>/b_hallA '
1048:Src/BLDC_controller.c ****    *  Inport: '<Root>/b_hallB'
1049:Src/BLDC_controller.c ****    *  Inport: '<Root>/b_hallC'
1050:Src/BLDC_controller.c ****    *  UnitDelay: '<S10>/UnitDelay1'
1051:Src/BLDC_controller.c ****    *  UnitDelay: '<S10>/UnitDelay2'
1052:Src/BLDC_controller.c ****    *  UnitDelay: '<S10>/UnitDelay3'
1053:Src/BLDC_controller.c ****    */
1054:Src/BLDC_controller.c ****   rtb_LogicalOperator = (boolean_T)((rtU->b_hallA != 0) ^ (rtU->b_hallB != 0) ^
 1975              		.loc 1 1054 3 is_stmt 1 view .LVU622
 1976              		.loc 1 1054 73 is_stmt 0 view .LVU623
 1977 0026 003B     		subs	r3, r3, #0
 1978 0028 18BF     		it	ne
 1979 002a 0123     		movne	r3, #1
1055:Src/BLDC_controller.c ****     (rtU->b_hallC != 0) ^ (rtDW->UnitDelay3_DSTATE_fy != 0) ^
 1980              		.loc 1 1055 32 view .LVU624
 1981 002c 94F89AC0 		ldrb	ip, [r4, #154]	@ zero_extendqisi2
1056:Src/BLDC_controller.c ****     (rtDW->UnitDelay1_DSTATE != 0)) ^ (rtDW->UnitDelay2_DSTATE_f != 0);
 1982              		.loc 1 1056 10 view .LVU625
 1983 0030 94F89B20 		ldrb	r2, [r4, #155]	@ zero_extendqisi2
 1984 0034 0029     		cmp	r1, #0
 1985 0036 18BF     		it	ne
 1986 0038 83F00103 		eorne	r3, r3, #1
 1987 003c 0028     		cmp	r0, #0
 1988 003e 18BF     		it	ne
 1989 0040 83F00103 		eorne	r3, r3, #1
 1990 0044 BCF1000F 		cmp	ip, #0
 1991 0048 18BF     		it	ne
 1992 004a 83F00103 		eorne	r3, r3, #1
 1993 004e 002A     		cmp	r2, #0
 1994 0050 18BF     		it	ne
 1995 0052 83F00103 		eorne	r3, r3, #1
 1996              		.loc 1 1056 44 view .LVU626
 1997 0056 94F89C10 		ldrb	r1, [r4, #156]	@ zero_extendqisi2
 1998              		.loc 1 1056 66 view .LVU627
 1999 005a 0039     		subs	r1, r1, #0
 2000 005c 18BF     		it	ne
 2001 005e 0121     		movne	r1, #1
1054:Src/BLDC_controller.c ****     (rtU->b_hallC != 0) ^ (rtDW->UnitDelay3_DSTATE_fy != 0) ^
 2002              		.loc 1 1054 23 view .LVU628
 2003 0060 81EA0302 		eor	r2, r1, r3
 2004              	.LVL178:
1057:Src/BLDC_controller.c **** 
1058:Src/BLDC_controller.c ****   /* If: '<S13>/If2' incorporates:
1059:Src/BLDC_controller.c ****    *  If: '<S3>/If2'
1060:Src/BLDC_controller.c ****    *  Inport: '<S17>/z_counterRawPrev'
1061:Src/BLDC_controller.c ****    *  UnitDelay: '<S13>/UnitDelay3'
1062:Src/BLDC_controller.c ****    */
1063:Src/BLDC_controller.c ****   if (rtb_LogicalOperator) {
 2005              		.loc 1 1063 3 is_stmt 1 view .LVU629
 2006              		.loc 1 1063 6 is_stmt 0 view .LVU630
 2007 0064 9942     		cmp	r1, r3
 2008 0066 56D0     		beq	.L169
ARM GAS  /var/folders/2w/5wbrmvx534s_vk8svtxz852c0000gn/T//cccje1sL.s 			page 56


1064:Src/BLDC_controller.c ****     /* Outputs for IfAction SubSystem: '<S3>/F01_03_Direction_Detection' incorporates:
1065:Src/BLDC_controller.c ****      *  ActionPort: '<S12>/Action Port'
1066:Src/BLDC_controller.c ****      */
1067:Src/BLDC_controller.c ****     /* UnitDelay: '<S12>/UnitDelay3' */
1068:Src/BLDC_controller.c ****     UnitDelay3 = rtDW->Switch2_e;
 2009              		.loc 1 1068 5 is_stmt 1 view .LVU631
 2010              		.loc 1 1068 16 is_stmt 0 view .LVU632
 2011 0068 94F98E00 		ldrsb	r0, [r4, #142]
 2012              	.LVL179:
1069:Src/BLDC_controller.c **** 
1070:Src/BLDC_controller.c ****     /* Sum: '<S12>/Sum2' incorporates:
1071:Src/BLDC_controller.c ****      *  Constant: '<S11>/vec_hallToPos'
1072:Src/BLDC_controller.c ****      *  Selector: '<S11>/Selector'
1073:Src/BLDC_controller.c ****      *  UnitDelay: '<S12>/UnitDelay2'
1074:Src/BLDC_controller.c ****      */
1075:Src/BLDC_controller.c ****     rtb_Sum2_h = (int8_T)(rtConstP.vec_hallToPos_Value[Sum] -
 2013              		.loc 1 1075 5 is_stmt 1 view .LVU633
 2014              		.loc 1 1075 55 is_stmt 0 view .LVU634
 2015 006c B54B     		ldr	r3, .L469
 2016 006e 5B44     		add	r3, r3, fp
 2017 0070 93F98817 		ldrsb	r1, [r3, #1928]
 2018 0074 CBB2     		uxtb	r3, r1
1076:Src/BLDC_controller.c ****                           rtDW->UnitDelay2_DSTATE_b);
 2019              		.loc 1 1076 31 view .LVU635
 2020 0076 94F88FC0 		ldrb	ip, [r4, #143]	@ zero_extendqisi2
1075:Src/BLDC_controller.c ****                           rtDW->UnitDelay2_DSTATE_b);
 2021              		.loc 1 1075 61 view .LVU636
 2022 007a A3EB0C03 		sub	r3, r3, ip
1075:Src/BLDC_controller.c ****                           rtDW->UnitDelay2_DSTATE_b);
 2023              		.loc 1 1075 16 view .LVU637
 2024 007e 5BB2     		sxtb	r3, r3
 2025              	.LVL180:
1077:Src/BLDC_controller.c **** 
1078:Src/BLDC_controller.c ****     /* Switch: '<S12>/Switch2' incorporates:
1079:Src/BLDC_controller.c ****      *  Constant: '<S12>/Constant20'
1080:Src/BLDC_controller.c ****      *  Constant: '<S12>/Constant23'
1081:Src/BLDC_controller.c ****      *  Constant: '<S12>/Constant24'
1082:Src/BLDC_controller.c ****      *  Constant: '<S12>/Constant8'
1083:Src/BLDC_controller.c ****      *  Logic: '<S12>/Logical Operator3'
1084:Src/BLDC_controller.c ****      *  RelationalOperator: '<S12>/Relational Operator1'
1085:Src/BLDC_controller.c ****      *  RelationalOperator: '<S12>/Relational Operator6'
1086:Src/BLDC_controller.c ****      */
1087:Src/BLDC_controller.c ****     if ((rtb_Sum2_h == 1) || (rtb_Sum2_h == -5)) {
 2026              		.loc 1 1087 5 is_stmt 1 view .LVU638
 2027              		.loc 1 1087 8 is_stmt 0 view .LVU639
 2028 0080 012B     		cmp	r3, #1
 2029 0082 06D0     		beq	.L170
 2030              		.loc 1 1087 27 discriminator 1 view .LVU640
 2031 0084 13F1050F 		cmn	r3, #5
 2032 0088 03D0     		beq	.L170
1088:Src/BLDC_controller.c ****       rtDW->Switch2_e = 1;
1089:Src/BLDC_controller.c ****     } else {
1090:Src/BLDC_controller.c ****       rtDW->Switch2_e = -1;
 2033              		.loc 1 1090 7 is_stmt 1 view .LVU641
 2034              		.loc 1 1090 23 is_stmt 0 view .LVU642
 2035 008a FF23     		movs	r3, #255
 2036              	.LVL181:
ARM GAS  /var/folders/2w/5wbrmvx534s_vk8svtxz852c0000gn/T//cccje1sL.s 			page 57


 2037              		.loc 1 1090 23 view .LVU643
 2038 008c 84F88E30 		strb	r3, [r4, #142]
 2039 0090 02E0     		b	.L172
 2040              	.LVL182:
 2041              	.L170:
1088:Src/BLDC_controller.c ****       rtDW->Switch2_e = 1;
 2042              		.loc 1 1088 7 is_stmt 1 view .LVU644
1088:Src/BLDC_controller.c ****       rtDW->Switch2_e = 1;
 2043              		.loc 1 1088 23 is_stmt 0 view .LVU645
 2044 0092 0123     		movs	r3, #1
 2045              	.LVL183:
1088:Src/BLDC_controller.c ****       rtDW->Switch2_e = 1;
 2046              		.loc 1 1088 23 view .LVU646
 2047 0094 84F88E30 		strb	r3, [r4, #142]
 2048              	.L172:
1091:Src/BLDC_controller.c ****     }
1092:Src/BLDC_controller.c **** 
1093:Src/BLDC_controller.c ****     /* End of Switch: '<S12>/Switch2' */
1094:Src/BLDC_controller.c **** 
1095:Src/BLDC_controller.c ****     /* Update for UnitDelay: '<S12>/UnitDelay2' incorporates:
1096:Src/BLDC_controller.c ****      *  Constant: '<S11>/vec_hallToPos'
1097:Src/BLDC_controller.c ****      *  Selector: '<S11>/Selector'
1098:Src/BLDC_controller.c ****      */
1099:Src/BLDC_controller.c ****     rtDW->UnitDelay2_DSTATE_b = rtConstP.vec_hallToPos_Value[Sum];
 2049              		.loc 1 1099 5 is_stmt 1 view .LVU647
 2050              		.loc 1 1099 31 is_stmt 0 view .LVU648
 2051 0098 84F88F10 		strb	r1, [r4, #143]
1100:Src/BLDC_controller.c **** 
1101:Src/BLDC_controller.c ****     /* End of Outputs for SubSystem: '<S3>/F01_03_Direction_Detection' */
1102:Src/BLDC_controller.c **** 
1103:Src/BLDC_controller.c ****     /* Outputs for IfAction SubSystem: '<S13>/Raw_Motor_Speed_Estimation' incorporates:
1104:Src/BLDC_controller.c ****      *  ActionPort: '<S17>/Action Port'
1105:Src/BLDC_controller.c ****      */
1106:Src/BLDC_controller.c ****     rtDW->z_counterRawPrev = rtDW->UnitDelay3_DSTATE;
 2052              		.loc 1 1106 5 is_stmt 1 view .LVU649
 2053              		.loc 1 1106 34 is_stmt 0 view .LVU650
 2054 009c B4F98010 		ldrsh	r1, [r4, #128]
 2055              	.LVL184:
 2056              		.loc 1 1106 28 view .LVU651
 2057 00a0 A4F85610 		strh	r1, [r4, #86]	@ movhi
1107:Src/BLDC_controller.c **** 
1108:Src/BLDC_controller.c ****     /* Sum: '<S17>/Sum7' incorporates:
1109:Src/BLDC_controller.c ****      *  Inport: '<S17>/z_counterRawPrev'
1110:Src/BLDC_controller.c ****      *  UnitDelay: '<S13>/UnitDelay3'
1111:Src/BLDC_controller.c ****      *  UnitDelay: '<S17>/UnitDelay4'
1112:Src/BLDC_controller.c ****      */
1113:Src/BLDC_controller.c ****     Switch2 = (int16_T)(rtDW->z_counterRawPrev - rtDW->UnitDelay4_DSTATE);
 2058              		.loc 1 1113 5 is_stmt 1 view .LVU652
 2059              		.loc 1 1113 29 is_stmt 0 view .LVU653
 2060 00a4 1FFA81FE 		uxth	lr, r1
 2061              		.loc 1 1113 54 view .LVU654
 2062 00a8 B4F882C0 		ldrh	ip, [r4, #130]
 2063              	.LVL185:
 2064              		.loc 1 1113 48 view .LVU655
 2065 00ac AEEB0C03 		sub	r3, lr, ip
 2066              		.loc 1 1113 13 view .LVU656
 2067 00b0 1BB2     		sxth	r3, r3
ARM GAS  /var/folders/2w/5wbrmvx534s_vk8svtxz852c0000gn/T//cccje1sL.s 			page 58


 2068              	.LVL186:
1114:Src/BLDC_controller.c **** 
1115:Src/BLDC_controller.c ****     /* Abs: '<S17>/Abs2' */
1116:Src/BLDC_controller.c ****     if (Switch2 < 0) {
 2069              		.loc 1 1116 5 is_stmt 1 view .LVU657
 2070              		.loc 1 1116 8 is_stmt 0 view .LVU658
 2071 00b2 002B     		cmp	r3, #0
 2072 00b4 43DB     		blt	.L435
 2073              	.LVL187:
 2074              	.L173:
1117:Src/BLDC_controller.c ****       rtb_Switch1_l = (int16_T)-Switch2;
1118:Src/BLDC_controller.c ****     } else {
1119:Src/BLDC_controller.c ****       rtb_Switch1_l = Switch2;
1120:Src/BLDC_controller.c ****     }
1121:Src/BLDC_controller.c **** 
1122:Src/BLDC_controller.c ****     /* End of Abs: '<S17>/Abs2' */
1123:Src/BLDC_controller.c **** 
1124:Src/BLDC_controller.c ****     /* Relay: '<S17>/dz_cntTrnsDet' */
1125:Src/BLDC_controller.c ****     if (rtb_Switch1_l >= rtP->dz_cntTrnsDetHi) {
 2075              		.loc 1 1125 5 is_stmt 1 view .LVU659
 2076              		.loc 1 1125 29 is_stmt 0 view .LVU660
 2077 00b6 B5F904C0 		ldrsh	ip, [r5, #4]
 2078              	.LVL188:
 2079              		.loc 1 1125 8 view .LVU661
 2080 00ba 9C45     		cmp	ip, r3
 2081 00bc 43DC     		bgt	.L174
1126:Src/BLDC_controller.c ****       rtDW->dz_cntTrnsDet_Mode = true;
 2082              		.loc 1 1126 7 is_stmt 1 view .LVU662
 2083              		.loc 1 1126 32 is_stmt 0 view .LVU663
 2084 00be 0123     		movs	r3, #1
 2085              	.LVL189:
 2086              		.loc 1 1126 32 view .LVU664
 2087 00c0 84F8A930 		strb	r3, [r4, #169]
 2088              	.L175:
1127:Src/BLDC_controller.c ****     } else {
1128:Src/BLDC_controller.c ****       if (rtb_Switch1_l <= rtP->dz_cntTrnsDetLo) {
1129:Src/BLDC_controller.c ****         rtDW->dz_cntTrnsDet_Mode = false;
1130:Src/BLDC_controller.c ****       }
1131:Src/BLDC_controller.c ****     }
1132:Src/BLDC_controller.c **** 
1133:Src/BLDC_controller.c ****     rtDW->dz_cntTrnsDet = rtDW->dz_cntTrnsDet_Mode;
 2089              		.loc 1 1133 5 is_stmt 1 view .LVU665
 2090              		.loc 1 1133 31 is_stmt 0 view .LVU666
 2091 00c4 94F8A980 		ldrb	r8, [r4, #169]	@ zero_extendqisi2
 2092              		.loc 1 1133 25 view .LVU667
 2093 00c8 84F8A280 		strb	r8, [r4, #162]
1134:Src/BLDC_controller.c **** 
1135:Src/BLDC_controller.c ****     /* End of Relay: '<S17>/dz_cntTrnsDet' */
1136:Src/BLDC_controller.c **** 
1137:Src/BLDC_controller.c ****     /* RelationalOperator: '<S17>/Relational Operator4' */
1138:Src/BLDC_controller.c ****     rtb_RelationalOperator4_d = (rtDW->Switch2_e != UnitDelay3);
 2094              		.loc 1 1138 5 is_stmt 1 view .LVU668
 2095              		.loc 1 1138 38 is_stmt 0 view .LVU669
 2096 00cc 94F98E30 		ldrsb	r3, [r4, #142]
 2097              		.loc 1 1138 50 view .LVU670
 2098 00d0 8342     		cmp	r3, r0
 2099 00d2 14BF     		ite	ne
ARM GAS  /var/folders/2w/5wbrmvx534s_vk8svtxz852c0000gn/T//cccje1sL.s 			page 59


 2100 00d4 4FF0010C 		movne	ip, #1
 2101 00d8 4FF0000C 		moveq	ip, #0
 2102              	.LVL190:
1139:Src/BLDC_controller.c **** 
1140:Src/BLDC_controller.c ****     /* Switch: '<S17>/Switch3' incorporates:
1141:Src/BLDC_controller.c ****      *  Constant: '<S17>/Constant4'
1142:Src/BLDC_controller.c ****      *  Logic: '<S17>/Logical Operator1'
1143:Src/BLDC_controller.c ****      *  Switch: '<S17>/Switch1'
1144:Src/BLDC_controller.c ****      *  Switch: '<S17>/Switch2'
1145:Src/BLDC_controller.c ****      *  UnitDelay: '<S17>/UnitDelay1'
1146:Src/BLDC_controller.c ****      */
1147:Src/BLDC_controller.c ****     if (rtb_RelationalOperator4_d && rtDW->UnitDelay1_DSTATE_n) {
 2103              		.loc 1 1147 5 is_stmt 1 view .LVU671
 2104              		.loc 1 1147 8 is_stmt 0 view .LVU672
 2105 00dc 04D0     		beq	.L176
 2106              		.loc 1 1147 42 discriminator 1 view .LVU673
 2107 00de 94F8A790 		ldrb	r9, [r4, #167]	@ zero_extendqisi2
 2108              		.loc 1 1147 35 discriminator 1 view .LVU674
 2109 00e2 B9F1000F 		cmp	r9, #0
 2110 00e6 56D1     		bne	.L348
 2111              	.L176:
1148:Src/BLDC_controller.c ****       rtb_Switch1_l = 0;
1149:Src/BLDC_controller.c ****     } else if (rtb_RelationalOperator4_d) {
 2112              		.loc 1 1149 12 is_stmt 1 view .LVU675
 2113              		.loc 1 1149 15 is_stmt 0 view .LVU676
 2114 00e8 8342     		cmp	r3, r0
 2115 00ea 34D0     		beq	.L178
1150:Src/BLDC_controller.c ****       /* Switch: '<S17>/Switch2' incorporates:
1151:Src/BLDC_controller.c ****        *  UnitDelay: '<S13>/UnitDelay4'
1152:Src/BLDC_controller.c ****        */
1153:Src/BLDC_controller.c ****       rtb_Switch1_l = rtDW->UnitDelay4_DSTATE_e;
 2116              		.loc 1 1153 7 is_stmt 1 view .LVU677
 2117              		.loc 1 1153 21 is_stmt 0 view .LVU678
 2118 00ec B4F98A00 		ldrsh	r0, [r4, #138]
 2119              	.LVL191:
 2120              	.L177:
1154:Src/BLDC_controller.c ****     } else if (rtDW->dz_cntTrnsDet) {
1155:Src/BLDC_controller.c ****       /* Switch: '<S17>/Switch1' incorporates:
1156:Src/BLDC_controller.c ****        *  Constant: '<S17>/cf_speedCoef'
1157:Src/BLDC_controller.c ****        *  Product: '<S17>/Divide14'
1158:Src/BLDC_controller.c ****        *  Switch: '<S17>/Switch2'
1159:Src/BLDC_controller.c ****        */
1160:Src/BLDC_controller.c ****       rtb_Switch1_l = (int16_T)((rtP->cf_speedCoef << 4) /
1161:Src/BLDC_controller.c ****         rtDW->z_counterRawPrev);
1162:Src/BLDC_controller.c ****     } else {
1163:Src/BLDC_controller.c ****       /* Switch: '<S17>/Switch1' incorporates:
1164:Src/BLDC_controller.c ****        *  Constant: '<S17>/cf_speedCoef'
1165:Src/BLDC_controller.c ****        *  Gain: '<S17>/g_Ha'
1166:Src/BLDC_controller.c ****        *  Product: '<S17>/Divide13'
1167:Src/BLDC_controller.c ****        *  Sum: '<S17>/Sum13'
1168:Src/BLDC_controller.c ****        *  Switch: '<S17>/Switch2'
1169:Src/BLDC_controller.c ****        *  UnitDelay: '<S17>/UnitDelay2'
1170:Src/BLDC_controller.c ****        *  UnitDelay: '<S17>/UnitDelay3'
1171:Src/BLDC_controller.c ****        *  UnitDelay: '<S17>/UnitDelay5'
1172:Src/BLDC_controller.c ****        */
1173:Src/BLDC_controller.c ****       rtb_Switch1_l = (int16_T)(((uint16_T)(rtP->cf_speedCoef << 2) << 4) /
1174:Src/BLDC_controller.c ****         (int16_T)(((rtDW->UnitDelay2_DSTATE + rtDW->UnitDelay3_DSTATE_o) +
ARM GAS  /var/folders/2w/5wbrmvx534s_vk8svtxz852c0000gn/T//cccje1sL.s 			page 60


1175:Src/BLDC_controller.c ****                    rtDW->UnitDelay5_DSTATE) + rtDW->z_counterRawPrev));
1176:Src/BLDC_controller.c ****     }
1177:Src/BLDC_controller.c **** 
1178:Src/BLDC_controller.c ****     /* End of Switch: '<S17>/Switch3' */
1179:Src/BLDC_controller.c **** 
1180:Src/BLDC_controller.c ****     /* Product: '<S17>/Divide11' */
1181:Src/BLDC_controller.c ****     rtDW->Divide11 = (int16_T)(rtb_Switch1_l * rtDW->Switch2_e);
 2121              		.loc 1 1181 5 is_stmt 1 view .LVU679
 2122              		.loc 1 1181 52 is_stmt 0 view .LVU680
 2123 00f0 9BB2     		uxth	r3, r3
 2124              		.loc 1 1181 46 view .LVU681
 2125 00f2 00FB03F3 		mul	r3, r0, r3
 2126              		.loc 1 1181 20 view .LVU682
 2127 00f6 A4F87A30 		strh	r3, [r4, #122]	@ movhi
1182:Src/BLDC_controller.c **** 
1183:Src/BLDC_controller.c ****     /* Update for UnitDelay: '<S17>/UnitDelay4' */
1184:Src/BLDC_controller.c ****     rtDW->UnitDelay4_DSTATE = rtDW->z_counterRawPrev;
 2128              		.loc 1 1184 5 is_stmt 1 view .LVU683
 2129              		.loc 1 1184 29 is_stmt 0 view .LVU684
 2130 00fa A4F88210 		strh	r1, [r4, #130]	@ movhi
 2131              	.LVL192:
1185:Src/BLDC_controller.c **** 
1186:Src/BLDC_controller.c ****     /* Update for UnitDelay: '<S17>/UnitDelay2' incorporates:
1187:Src/BLDC_controller.c ****      *  UnitDelay: '<S17>/UnitDelay3'
1188:Src/BLDC_controller.c ****      */
1189:Src/BLDC_controller.c ****     rtDW->UnitDelay2_DSTATE = rtDW->UnitDelay3_DSTATE_o;
 2132              		.loc 1 1189 5 is_stmt 1 view .LVU685
 2133              		.loc 1 1189 35 is_stmt 0 view .LVU686
 2134 00fe B4F98630 		ldrsh	r3, [r4, #134]
 2135              		.loc 1 1189 29 view .LVU687
 2136 0102 A4F88430 		strh	r3, [r4, #132]	@ movhi
1190:Src/BLDC_controller.c **** 
1191:Src/BLDC_controller.c ****     /* Update for UnitDelay: '<S17>/UnitDelay3' incorporates:
1192:Src/BLDC_controller.c ****      *  UnitDelay: '<S17>/UnitDelay5'
1193:Src/BLDC_controller.c ****      */
1194:Src/BLDC_controller.c ****     rtDW->UnitDelay3_DSTATE_o = rtDW->UnitDelay5_DSTATE;
 2137              		.loc 1 1194 5 is_stmt 1 view .LVU688
 2138              		.loc 1 1194 37 is_stmt 0 view .LVU689
 2139 0106 B4F98830 		ldrsh	r3, [r4, #136]
 2140              		.loc 1 1194 31 view .LVU690
 2141 010a A4F88630 		strh	r3, [r4, #134]	@ movhi
1195:Src/BLDC_controller.c **** 
1196:Src/BLDC_controller.c ****     /* Update for UnitDelay: '<S17>/UnitDelay5' */
1197:Src/BLDC_controller.c ****     rtDW->UnitDelay5_DSTATE = rtDW->z_counterRawPrev;
 2142              		.loc 1 1197 5 is_stmt 1 view .LVU691
 2143              		.loc 1 1197 29 is_stmt 0 view .LVU692
 2144 010e A4F88810 		strh	r1, [r4, #136]	@ movhi
1198:Src/BLDC_controller.c **** 
1199:Src/BLDC_controller.c ****     /* Update for UnitDelay: '<S17>/UnitDelay1' */
1200:Src/BLDC_controller.c ****     rtDW->UnitDelay1_DSTATE_n = rtb_RelationalOperator4_d;
 2145              		.loc 1 1200 5 is_stmt 1 view .LVU693
 2146              		.loc 1 1200 31 is_stmt 0 view .LVU694
 2147 0112 84F8A7C0 		strb	ip, [r4, #167]
 2148              	.LVL193:
 2149              	.L169:
1201:Src/BLDC_controller.c **** 
1202:Src/BLDC_controller.c ****     /* End of Outputs for SubSystem: '<S13>/Raw_Motor_Speed_Estimation' */
ARM GAS  /var/folders/2w/5wbrmvx534s_vk8svtxz852c0000gn/T//cccje1sL.s 			page 61


1203:Src/BLDC_controller.c ****   }
1204:Src/BLDC_controller.c **** 
1205:Src/BLDC_controller.c ****   /* End of If: '<S13>/If2' */
1206:Src/BLDC_controller.c **** 
1207:Src/BLDC_controller.c ****   /* Outputs for Atomic SubSystem: '<S13>/Counter' */
1208:Src/BLDC_controller.c **** 
1209:Src/BLDC_controller.c ****   /* Constant: '<S13>/Constant6' incorporates:
1210:Src/BLDC_controller.c ****    *  Constant: '<S13>/z_maxCntRst2'
1211:Src/BLDC_controller.c ****    */
1212:Src/BLDC_controller.c ****   rtb_Switch1_l = (int16_T) Counter(1, rtP->z_maxCntRst, rtb_LogicalOperator,
 2150              		.loc 1 1212 3 is_stmt 1 view .LVU695
 2151              		.loc 1 1212 29 is_stmt 0 view .LVU696
 2152 0116 04F14003 		add	r3, r4, #64
 2153 011a B5F90A10 		ldrsh	r1, [r5, #10]
 2154 011e 0120     		movs	r0, #1
 2155 0120 FFF7FEFF 		bl	Counter
 2156              	.LVL194:
 2157              		.loc 1 1212 29 view .LVU697
 2158 0124 0C90     		str	r0, [sp, #48]
 2159              	.LVL195:
1213:Src/BLDC_controller.c ****     &rtDW->Counter_e);
1214:Src/BLDC_controller.c **** 
1215:Src/BLDC_controller.c ****   /* End of Outputs for SubSystem: '<S13>/Counter' */
1216:Src/BLDC_controller.c **** 
1217:Src/BLDC_controller.c ****   /* Switch: '<S13>/Switch2' incorporates:
1218:Src/BLDC_controller.c ****    *  Constant: '<S13>/Constant4'
1219:Src/BLDC_controller.c ****    *  Constant: '<S13>/z_maxCntRst'
1220:Src/BLDC_controller.c ****    *  RelationalOperator: '<S13>/Relational Operator2'
1221:Src/BLDC_controller.c ****    */
1222:Src/BLDC_controller.c ****   if (rtb_Switch1_l > rtP->z_maxCntRst) {
 2160              		.loc 1 1222 3 is_stmt 1 view .LVU698
 2161              		.loc 1 1222 26 is_stmt 0 view .LVU699
 2162 0126 B5F90A30 		ldrsh	r3, [r5, #10]
 2163              		.loc 1 1222 6 view .LVU700
 2164 012a 8342     		cmp	r3, r0
 2165 012c 39DB     		blt	.L349
1223:Src/BLDC_controller.c ****     Switch2 = 0;
1224:Src/BLDC_controller.c ****   } else {
1225:Src/BLDC_controller.c ****     Switch2 = rtDW->Divide11;
 2166              		.loc 1 1225 5 is_stmt 1 view .LVU701
 2167              		.loc 1 1225 13 is_stmt 0 view .LVU702
 2168 012e B4F97A30 		ldrsh	r3, [r4, #122]
 2169 0132 0B93     		str	r3, [sp, #44]
 2170              	.LVL196:
1226:Src/BLDC_controller.c ****   }
1227:Src/BLDC_controller.c **** 
1228:Src/BLDC_controller.c ****   /* End of Switch: '<S13>/Switch2' */
1229:Src/BLDC_controller.c **** 
1230:Src/BLDC_controller.c ****   /* Abs: '<S13>/Abs5' */
1231:Src/BLDC_controller.c ****   if (Switch2 < 0) {
 2171              		.loc 1 1231 3 is_stmt 1 view .LVU703
 2172              		.loc 1 1231 6 is_stmt 0 view .LVU704
 2173 0134 002B     		cmp	r3, #0
 2174 0136 30DB     		blt	.L436
1225:Src/BLDC_controller.c ****   }
 2175              		.loc 1 1225 13 view .LVU705
 2176 0138 0B9B     		ldr	r3, [sp, #44]
ARM GAS  /var/folders/2w/5wbrmvx534s_vk8svtxz852c0000gn/T//cccje1sL.s 			page 62


1225:Src/BLDC_controller.c ****   }
 2177              		.loc 1 1225 13 view .LVU706
 2178 013a 0793     		str	r3, [sp, #28]
 2179 013c 34E0     		b	.L180
 2180              	.LVL197:
 2181              	.L435:
1117:Src/BLDC_controller.c ****     } else {
 2182              		.loc 1 1117 7 is_stmt 1 view .LVU707
1117:Src/BLDC_controller.c ****     } else {
 2183              		.loc 1 1117 23 is_stmt 0 view .LVU708
 2184 013e ACEB0E03 		sub	r3, ip, lr
 2185              	.LVL198:
1117:Src/BLDC_controller.c ****     } else {
 2186              		.loc 1 1117 21 view .LVU709
 2187 0142 1BB2     		sxth	r3, r3
 2188              	.LVL199:
1117:Src/BLDC_controller.c ****     } else {
 2189              		.loc 1 1117 21 view .LVU710
 2190 0144 B7E7     		b	.L173
 2191              	.LVL200:
 2192              	.L174:
1128:Src/BLDC_controller.c ****         rtDW->dz_cntTrnsDet_Mode = false;
 2193              		.loc 1 1128 7 is_stmt 1 view .LVU711
1128:Src/BLDC_controller.c ****         rtDW->dz_cntTrnsDet_Mode = false;
 2194              		.loc 1 1128 31 is_stmt 0 view .LVU712
 2195 0146 B5F906C0 		ldrsh	ip, [r5, #6]
1128:Src/BLDC_controller.c ****         rtDW->dz_cntTrnsDet_Mode = false;
 2196              		.loc 1 1128 10 view .LVU713
 2197 014a 9C45     		cmp	ip, r3
 2198 014c BADB     		blt	.L175
1129:Src/BLDC_controller.c ****       }
 2199              		.loc 1 1129 9 is_stmt 1 view .LVU714
1129:Src/BLDC_controller.c ****       }
 2200              		.loc 1 1129 34 is_stmt 0 view .LVU715
 2201 014e 0023     		movs	r3, #0
 2202              	.LVL201:
1129:Src/BLDC_controller.c ****       }
 2203              		.loc 1 1129 34 view .LVU716
 2204 0150 84F8A930 		strb	r3, [r4, #169]
 2205 0154 B6E7     		b	.L175
 2206              	.LVL202:
 2207              	.L178:
1154:Src/BLDC_controller.c ****       /* Switch: '<S17>/Switch1' incorporates:
 2208              		.loc 1 1154 12 is_stmt 1 view .LVU717
1154:Src/BLDC_controller.c ****       /* Switch: '<S17>/Switch1' incorporates:
 2209              		.loc 1 1154 15 is_stmt 0 view .LVU718
 2210 0156 B8F1000F 		cmp	r8, #0
 2211 015a 05D0     		beq	.L179
1160:Src/BLDC_controller.c ****         rtDW->z_counterRawPrev);
 2212              		.loc 1 1160 7 is_stmt 1 view .LVU719
1160:Src/BLDC_controller.c ****         rtDW->z_counterRawPrev);
 2213              		.loc 1 1160 37 is_stmt 0 view .LVU720
 2214 015c A889     		ldrh	r0, [r5, #12]
 2215              	.LVL203:
1160:Src/BLDC_controller.c ****         rtDW->z_counterRawPrev);
 2216              		.loc 1 1160 52 view .LVU721
 2217 015e 0001     		lsls	r0, r0, #4
ARM GAS  /var/folders/2w/5wbrmvx534s_vk8svtxz852c0000gn/T//cccje1sL.s 			page 63


1160:Src/BLDC_controller.c ****         rtDW->z_counterRawPrev);
 2218              		.loc 1 1160 58 view .LVU722
 2219 0160 90FBF1F0 		sdiv	r0, r0, r1
1160:Src/BLDC_controller.c ****         rtDW->z_counterRawPrev);
 2220              		.loc 1 1160 21 view .LVU723
 2221 0164 00B2     		sxth	r0, r0
 2222              	.LVL204:
1160:Src/BLDC_controller.c ****         rtDW->z_counterRawPrev);
 2223              		.loc 1 1160 21 view .LVU724
 2224 0166 C3E7     		b	.L177
 2225              	.LVL205:
 2226              	.L179:
1173:Src/BLDC_controller.c ****         (int16_T)(((rtDW->UnitDelay2_DSTATE + rtDW->UnitDelay3_DSTATE_o) +
 2227              		.loc 1 1173 7 is_stmt 1 view .LVU725
1173:Src/BLDC_controller.c ****         (int16_T)(((rtDW->UnitDelay2_DSTATE + rtDW->UnitDelay3_DSTATE_o) +
 2228              		.loc 1 1173 48 is_stmt 0 view .LVU726
 2229 0168 A889     		ldrh	r0, [r5, #12]
 2230              	.LVL206:
1173:Src/BLDC_controller.c ****         (int16_T)(((rtDW->UnitDelay2_DSTATE + rtDW->UnitDelay3_DSTATE_o) +
 2231              		.loc 1 1173 34 view .LVU727
 2232 016a 8000     		lsls	r0, r0, #2
 2233 016c 80B2     		uxth	r0, r0
1173:Src/BLDC_controller.c ****         (int16_T)(((rtDW->UnitDelay2_DSTATE + rtDW->UnitDelay3_DSTATE_o) +
 2234              		.loc 1 1173 69 view .LVU728
 2235 016e 0001     		lsls	r0, r0, #4
1174:Src/BLDC_controller.c ****                    rtDW->UnitDelay5_DSTATE) + rtDW->z_counterRawPrev));
 2236              		.loc 1 1174 25 view .LVU729
 2237 0170 B4F88480 		ldrh	r8, [r4, #132]
1174:Src/BLDC_controller.c ****                    rtDW->UnitDelay5_DSTATE) + rtDW->z_counterRawPrev));
 2238              		.loc 1 1174 51 view .LVU730
 2239 0174 B4F88690 		ldrh	r9, [r4, #134]
1174:Src/BLDC_controller.c ****                    rtDW->UnitDelay5_DSTATE) + rtDW->z_counterRawPrev));
 2240              		.loc 1 1174 45 view .LVU731
 2241 0178 C844     		add	r8, r8, r9
 2242 017a 1FFA88F8 		uxth	r8, r8
1175:Src/BLDC_controller.c ****     }
 2243              		.loc 1 1175 24 view .LVU732
 2244 017e B4F88890 		ldrh	r9, [r4, #136]
1174:Src/BLDC_controller.c ****                    rtDW->UnitDelay5_DSTATE) + rtDW->z_counterRawPrev));
 2245              		.loc 1 1174 74 view .LVU733
 2246 0182 C844     		add	r8, r8, r9
 2247 0184 1FFA88F8 		uxth	r8, r8
1175:Src/BLDC_controller.c ****     }
 2248              		.loc 1 1175 45 view .LVU734
 2249 0188 C644     		add	lr, lr, r8
 2250              	.LVL207:
1174:Src/BLDC_controller.c ****                    rtDW->UnitDelay5_DSTATE) + rtDW->z_counterRawPrev));
 2251              		.loc 1 1174 9 view .LVU735
 2252 018a 0FFA8EFE 		sxth	lr, lr
1173:Src/BLDC_controller.c ****         (int16_T)(((rtDW->UnitDelay2_DSTATE + rtDW->UnitDelay3_DSTATE_o) +
 2253              		.loc 1 1173 75 view .LVU736
 2254 018e 90FBFEF0 		sdiv	r0, r0, lr
1173:Src/BLDC_controller.c ****         (int16_T)(((rtDW->UnitDelay2_DSTATE + rtDW->UnitDelay3_DSTATE_o) +
 2255              		.loc 1 1173 21 view .LVU737
 2256 0192 00B2     		sxth	r0, r0
 2257              	.LVL208:
1173:Src/BLDC_controller.c ****         (int16_T)(((rtDW->UnitDelay2_DSTATE + rtDW->UnitDelay3_DSTATE_o) +
ARM GAS  /var/folders/2w/5wbrmvx534s_vk8svtxz852c0000gn/T//cccje1sL.s 			page 64


 2258              		.loc 1 1173 21 view .LVU738
 2259 0194 ACE7     		b	.L177
 2260              	.LVL209:
 2261              	.L348:
1148:Src/BLDC_controller.c ****     } else if (rtb_RelationalOperator4_d) {
 2262              		.loc 1 1148 21 view .LVU739
 2263 0196 0020     		movs	r0, #0
 2264              	.LVL210:
1148:Src/BLDC_controller.c ****     } else if (rtb_RelationalOperator4_d) {
 2265              		.loc 1 1148 21 view .LVU740
 2266 0198 AAE7     		b	.L177
 2267              	.LVL211:
 2268              	.L436:
1232:Src/BLDC_controller.c ****     Abs5 = (int16_T)-Switch2;
 2269              		.loc 1 1232 5 is_stmt 1 view .LVU741
 2270              		.loc 1 1232 12 is_stmt 0 view .LVU742
 2271 019a 5B42     		rsbs	r3, r3, #0
 2272              	.LVL212:
 2273              		.loc 1 1232 10 view .LVU743
 2274 019c 1BB2     		sxth	r3, r3
 2275 019e 0793     		str	r3, [sp, #28]
 2276              	.LVL213:
 2277              		.loc 1 1232 10 view .LVU744
 2278 01a0 02E0     		b	.L180
 2279              	.LVL214:
 2280              	.L349:
1223:Src/BLDC_controller.c ****   } else {
 2281              		.loc 1 1223 13 view .LVU745
 2282 01a2 0023     		movs	r3, #0
 2283 01a4 0B93     		str	r3, [sp, #44]
 2284 01a6 0793     		str	r3, [sp, #28]
 2285              	.L180:
 2286              	.LVL215:
1233:Src/BLDC_controller.c ****   } else {
1234:Src/BLDC_controller.c ****     Abs5 = Switch2;
1235:Src/BLDC_controller.c ****   }
1236:Src/BLDC_controller.c **** 
1237:Src/BLDC_controller.c ****   /* End of Abs: '<S13>/Abs5' */
1238:Src/BLDC_controller.c **** 
1239:Src/BLDC_controller.c ****   /* Relay: '<S13>/n_commDeacv' */
1240:Src/BLDC_controller.c ****   if (Abs5 >= rtP->n_commDeacvHi) {
 2287              		.loc 1 1240 3 is_stmt 1 view .LVU746
 2288              		.loc 1 1240 18 is_stmt 0 view .LVU747
 2289 01a8 B5F9D430 		ldrsh	r3, [r5, #212]
 2290              		.loc 1 1240 6 view .LVU748
 2291 01ac 079A     		ldr	r2, [sp, #28]
 2292 01ae 9342     		cmp	r3, r2
 2293 01b0 0DDC     		bgt	.L181
1241:Src/BLDC_controller.c ****     rtDW->n_commDeacv_Mode = true;
 2294              		.loc 1 1241 5 is_stmt 1 view .LVU749
 2295              		.loc 1 1241 28 is_stmt 0 view .LVU750
 2296 01b2 0123     		movs	r3, #1
 2297 01b4 84F8A830 		strb	r3, [r4, #168]
 2298              	.L182:
1242:Src/BLDC_controller.c ****   } else {
1243:Src/BLDC_controller.c ****     if (Abs5 <= rtP->n_commAcvLo) {
1244:Src/BLDC_controller.c ****       rtDW->n_commDeacv_Mode = false;
ARM GAS  /var/folders/2w/5wbrmvx534s_vk8svtxz852c0000gn/T//cccje1sL.s 			page 65


1245:Src/BLDC_controller.c ****     }
1246:Src/BLDC_controller.c ****   }
1247:Src/BLDC_controller.c **** 
1248:Src/BLDC_controller.c ****   /* Logic: '<S13>/Logical Operator3' incorporates:
1249:Src/BLDC_controller.c ****    *  Constant: '<S13>/b_angleMeasEna'
1250:Src/BLDC_controller.c ****    *  Logic: '<S13>/Logical Operator1'
1251:Src/BLDC_controller.c ****    *  Logic: '<S13>/Logical Operator2'
1252:Src/BLDC_controller.c ****    *  Relay: '<S13>/n_commDeacv'
1253:Src/BLDC_controller.c ****    */
1254:Src/BLDC_controller.c ****   rtb_LogicalOperator = (rtP->b_angleMeasEna || (rtDW->n_commDeacv_Mode &&
 2299              		.loc 1 1254 3 is_stmt 1 view .LVU751
 2300              		.loc 1 1254 29 is_stmt 0 view .LVU752
 2301 01b8 95F8FB30 		ldrb	r3, [r5, #251]	@ zero_extendqisi2
 2302              		.loc 1 1254 46 view .LVU753
 2303 01bc 83B9     		cbnz	r3, .L351
 2304              		.loc 1 1254 54 discriminator 2 view .LVU754
 2305 01be 94F8A820 		ldrb	r2, [r4, #168]	@ zero_extendqisi2
 2306              		.loc 1 1254 46 discriminator 2 view .LVU755
 2307 01c2 5AB3     		cbz	r2, .L352
1255:Src/BLDC_controller.c ****     (!rtDW->dz_cntTrnsDet)));
 2308              		.loc 1 1255 11 discriminator 3 view .LVU756
 2309 01c4 94F8A220 		ldrb	r2, [r4, #162]	@ zero_extendqisi2
1254:Src/BLDC_controller.c ****     (!rtDW->dz_cntTrnsDet)));
 2310              		.loc 1 1254 73 discriminator 3 view .LVU757
 2311 01c8 52B3     		cbz	r2, .L353
1254:Src/BLDC_controller.c ****     (!rtDW->dz_cntTrnsDet)));
 2312              		.loc 1 1254 46 view .LVU758
 2313 01ca 0022     		movs	r2, #0
 2314 01cc 09E0     		b	.L183
 2315              	.L181:
1243:Src/BLDC_controller.c ****       rtDW->n_commDeacv_Mode = false;
 2316              		.loc 1 1243 5 is_stmt 1 view .LVU759
1243:Src/BLDC_controller.c ****       rtDW->n_commDeacv_Mode = false;
 2317              		.loc 1 1243 20 is_stmt 0 view .LVU760
 2318 01ce B5F9D230 		ldrsh	r3, [r5, #210]
1243:Src/BLDC_controller.c ****       rtDW->n_commDeacv_Mode = false;
 2319              		.loc 1 1243 8 view .LVU761
 2320 01d2 079A     		ldr	r2, [sp, #28]
 2321 01d4 9342     		cmp	r3, r2
 2322 01d6 EFDB     		blt	.L182
1244:Src/BLDC_controller.c ****     }
 2323              		.loc 1 1244 7 is_stmt 1 view .LVU762
1244:Src/BLDC_controller.c ****     }
 2324              		.loc 1 1244 30 is_stmt 0 view .LVU763
 2325 01d8 0023     		movs	r3, #0
 2326 01da 84F8A830 		strb	r3, [r4, #168]
 2327 01de EBE7     		b	.L182
 2328              	.L351:
1254:Src/BLDC_controller.c ****     (!rtDW->dz_cntTrnsDet)));
 2329              		.loc 1 1254 46 view .LVU764
 2330 01e0 0122     		movs	r2, #1
 2331              	.L183:
1254:Src/BLDC_controller.c ****     (!rtDW->dz_cntTrnsDet)));
 2332              		.loc 1 1254 23 discriminator 8 view .LVU765
 2333 01e2 D2B2     		uxtb	r2, r2
 2334 01e4 0892     		str	r2, [sp, #32]
 2335              	.LVL216:
ARM GAS  /var/folders/2w/5wbrmvx534s_vk8svtxz852c0000gn/T//cccje1sL.s 			page 66


1256:Src/BLDC_controller.c **** 
1257:Src/BLDC_controller.c ****   /* UnitDelay: '<S2>/UnitDelay2' */
1258:Src/BLDC_controller.c ****   rtb_RelationalOperator4_d = rtDW->UnitDelay2_DSTATE_c;
 2336              		.loc 1 1258 3 is_stmt 1 discriminator 8 view .LVU766
 2337              		.loc 1 1258 29 is_stmt 0 discriminator 8 view .LVU767
 2338 01e6 94F8A320 		ldrb	r2, [r4, #163]	@ zero_extendqisi2
 2339 01ea 0D92     		str	r2, [sp, #52]
 2340              	.LVL217:
1259:Src/BLDC_controller.c **** 
1260:Src/BLDC_controller.c ****   /* UnitDelay: '<S2>/UnitDelay5' */
1261:Src/BLDC_controller.c ****   rtb_UnitDelay5_e = rtDW->UnitDelay5_DSTATE_m;
 2341              		.loc 1 1261 3 is_stmt 1 discriminator 8 view .LVU768
 2342              		.loc 1 1261 20 is_stmt 0 discriminator 8 view .LVU769
 2343 01ec 94F8A420 		ldrb	r2, [r4, #164]	@ zero_extendqisi2
 2344 01f0 0E92     		str	r2, [sp, #56]
 2345              	.LVL218:
1262:Src/BLDC_controller.c **** 
1263:Src/BLDC_controller.c ****   /* DataTypeConversion: '<S1>/Data Type Conversion2' incorporates:
1264:Src/BLDC_controller.c ****    *  Inport: '<Root>/r_inpTgt'
1265:Src/BLDC_controller.c ****    */
1266:Src/BLDC_controller.c ****   DataTypeConversion2 = (int16_T)(rtU->r_inpTgt << 4);
 2346              		.loc 1 1266 3 is_stmt 1 discriminator 8 view .LVU770
 2347              		.loc 1 1266 38 is_stmt 0 discriminator 8 view .LVU771
 2348 01f2 B6F90220 		ldrsh	r2, [r6, #2]
 2349              		.loc 1 1266 49 discriminator 8 view .LVU772
 2350 01f6 1201     		lsls	r2, r2, #4
 2351 01f8 0F92     		str	r2, [sp, #60]
 2352              		.loc 1 1266 23 discriminator 8 view .LVU773
 2353 01fa 12B2     		sxth	r2, r2
 2354 01fc 0992     		str	r2, [sp, #36]
 2355              	.LVL219:
1267:Src/BLDC_controller.c **** 
1268:Src/BLDC_controller.c ****   /* Saturate: '<S1>/Saturation' incorporates:
1269:Src/BLDC_controller.c ****    *  Inport: '<Root>/i_phaAB'
1270:Src/BLDC_controller.c ****    */
1271:Src/BLDC_controller.c ****   rtb_Gain3 = rtU->i_phaAB << 4;
 2356              		.loc 1 1271 3 is_stmt 1 discriminator 8 view .LVU774
 2357              		.loc 1 1271 18 is_stmt 0 discriminator 8 view .LVU775
 2358 01fe B6F90820 		ldrsh	r2, [r6, #8]
 2359              		.loc 1 1271 13 discriminator 8 view .LVU776
 2360 0202 4FEA021A 		lsl	r10, r2, #4
 2361              	.LVL220:
1272:Src/BLDC_controller.c ****   if (rtb_Gain3 >= 27200) {
 2362              		.loc 1 1272 3 is_stmt 1 discriminator 8 view .LVU777
 2363              		.loc 1 1272 6 is_stmt 0 discriminator 8 view .LVU778
 2364 0206 46F63F21 		movw	r1, #27199
 2365 020a B1EB021F 		cmp	r1, r2, lsl #4
 2366 020e 09DB     		blt	.L354
1273:Src/BLDC_controller.c ****     rtb_Saturation = 27200;
1274:Src/BLDC_controller.c ****   } else if (rtb_Gain3 <= -27200) {
 2367              		.loc 1 1274 10 is_stmt 1 view .LVU779
 2368              		.loc 1 1274 13 is_stmt 0 view .LVU780
 2369 0210 4D4A     		ldr	r2, .L469+4
 2370 0212 9245     		cmp	r10, r2
 2371 0214 17DB     		blt	.L355
1275:Src/BLDC_controller.c ****     rtb_Saturation = -27200;
1276:Src/BLDC_controller.c ****   } else {
ARM GAS  /var/folders/2w/5wbrmvx534s_vk8svtxz852c0000gn/T//cccje1sL.s 			page 67


1277:Src/BLDC_controller.c ****     rtb_Saturation = (int16_T)(rtU->i_phaAB << 4);
 2372              		.loc 1 1277 5 is_stmt 1 view .LVU781
 2373              		.loc 1 1277 20 is_stmt 0 view .LVU782
 2374 0216 0FFA8AFA 		sxth	r10, r10
 2375              	.LVL221:
 2376              		.loc 1 1277 20 view .LVU783
 2377 021a 05E0     		b	.L184
 2378              	.LVL222:
 2379              	.L352:
1254:Src/BLDC_controller.c ****     (!rtDW->dz_cntTrnsDet)));
 2380              		.loc 1 1254 46 view .LVU784
 2381 021c 0022     		movs	r2, #0
 2382 021e E0E7     		b	.L183
 2383              	.L353:
 2384 0220 0122     		movs	r2, #1
 2385 0222 DEE7     		b	.L183
 2386              	.LVL223:
 2387              	.L354:
1273:Src/BLDC_controller.c ****     rtb_Saturation = 27200;
 2388              		.loc 1 1273 20 view .LVU785
 2389 0224 46F6402A 		movw	r10, #27200
 2390              	.LVL224:
 2391              	.L184:
1278:Src/BLDC_controller.c ****   }
1279:Src/BLDC_controller.c **** 
1280:Src/BLDC_controller.c ****   /* End of Saturate: '<S1>/Saturation' */
1281:Src/BLDC_controller.c **** 
1282:Src/BLDC_controller.c ****   /* Saturate: '<S1>/Saturation1' incorporates:
1283:Src/BLDC_controller.c ****    *  Inport: '<Root>/i_phaBC'
1284:Src/BLDC_controller.c ****    */
1285:Src/BLDC_controller.c ****   rtb_Gain3 = rtU->i_phaBC << 4;
 2392              		.loc 1 1285 3 is_stmt 1 view .LVU786
 2393              		.loc 1 1285 18 is_stmt 0 view .LVU787
 2394 0228 B6F90A20 		ldrsh	r2, [r6, #10]
 2395              		.loc 1 1285 13 view .LVU788
 2396 022c 4FEA0218 		lsl	r8, r2, #4
 2397              	.LVL225:
1286:Src/BLDC_controller.c ****   if (rtb_Gain3 >= 27200) {
 2398              		.loc 1 1286 3 is_stmt 1 view .LVU789
 2399              		.loc 1 1286 6 is_stmt 0 view .LVU790
 2400 0230 46F63F21 		movw	r1, #27199
 2401 0234 B1EB021F 		cmp	r1, r2, lsl #4
 2402 0238 08DB     		blt	.L356
1287:Src/BLDC_controller.c ****     rtb_Saturation1 = 27200;
1288:Src/BLDC_controller.c ****   } else if (rtb_Gain3 <= -27200) {
 2403              		.loc 1 1288 10 is_stmt 1 view .LVU791
 2404              		.loc 1 1288 13 is_stmt 0 view .LVU792
 2405 023a 434A     		ldr	r2, .L469+4
 2406 023c 9045     		cmp	r8, r2
 2407 023e 79DB     		blt	.L357
1289:Src/BLDC_controller.c ****     rtb_Saturation1 = -27200;
1290:Src/BLDC_controller.c ****   } else {
1291:Src/BLDC_controller.c ****     rtb_Saturation1 = (int16_T)(rtU->i_phaBC << 4);
 2408              		.loc 1 1291 5 is_stmt 1 view .LVU793
 2409              		.loc 1 1291 21 is_stmt 0 view .LVU794
 2410 0240 0FFA88F8 		sxth	r8, r8
 2411              	.LVL226:
ARM GAS  /var/folders/2w/5wbrmvx534s_vk8svtxz852c0000gn/T//cccje1sL.s 			page 68


 2412              		.loc 1 1291 21 view .LVU795
 2413 0244 04E0     		b	.L185
 2414              	.LVL227:
 2415              	.L355:
1275:Src/BLDC_controller.c ****   } else {
 2416              		.loc 1 1275 20 view .LVU796
 2417 0246 DFF804A1 		ldr	r10, .L469+8
 2418              	.LVL228:
1275:Src/BLDC_controller.c ****   } else {
 2419              		.loc 1 1275 20 view .LVU797
 2420 024a EDE7     		b	.L184
 2421              	.LVL229:
 2422              	.L356:
1287:Src/BLDC_controller.c ****     rtb_Saturation1 = 27200;
 2423              		.loc 1 1287 21 view .LVU798
 2424 024c 46F64028 		movw	r8, #27200
 2425              	.LVL230:
 2426              	.L185:
1292:Src/BLDC_controller.c ****   }
1293:Src/BLDC_controller.c **** 
1294:Src/BLDC_controller.c ****   /* End of Saturate: '<S1>/Saturation1' */
1295:Src/BLDC_controller.c **** 
1296:Src/BLDC_controller.c ****   /* If: '<S3>/If1' incorporates:
1297:Src/BLDC_controller.c ****    *  Constant: '<S3>/b_angleMeasEna'
1298:Src/BLDC_controller.c ****    */
1299:Src/BLDC_controller.c ****   if (!rtP->b_angleMeasEna) {
 2427              		.loc 1 1299 3 is_stmt 1 view .LVU799
 2428              		.loc 1 1299 6 is_stmt 0 view .LVU800
 2429 0250 002B     		cmp	r3, #0
 2430 0252 40F09380 		bne	.L186
1300:Src/BLDC_controller.c ****     /* Outputs for IfAction SubSystem: '<S3>/F01_05_Electrical_Angle_Estimation' incorporates:
1301:Src/BLDC_controller.c ****      *  ActionPort: '<S14>/Action Port'
1302:Src/BLDC_controller.c ****      */
1303:Src/BLDC_controller.c ****     /* Switch: '<S14>/Switch2' incorporates:
1304:Src/BLDC_controller.c ****      *  Constant: '<S14>/Constant16'
1305:Src/BLDC_controller.c ****      *  Product: '<S14>/Divide1'
1306:Src/BLDC_controller.c ****      *  Product: '<S14>/Divide3'
1307:Src/BLDC_controller.c ****      *  RelationalOperator: '<S14>/Relational Operator7'
1308:Src/BLDC_controller.c ****      *  Sum: '<S14>/Sum3'
1309:Src/BLDC_controller.c ****      *  Switch: '<S14>/Switch3'
1310:Src/BLDC_controller.c ****      */
1311:Src/BLDC_controller.c ****     if (rtb_LogicalOperator) {
 2431              		.loc 1 1311 5 is_stmt 1 view .LVU801
 2432              		.loc 1 1311 8 is_stmt 0 view .LVU802
 2433 0256 089B     		ldr	r3, [sp, #32]
 2434 0258 002B     		cmp	r3, #0
 2435 025a 7BD0     		beq	.L187
1312:Src/BLDC_controller.c ****       /* MinMax: '<S14>/MinMax' */
1313:Src/BLDC_controller.c ****       rtb_Merge_m = rtb_Switch1_l;
 2436              		.loc 1 1313 7 is_stmt 1 view .LVU803
 2437              	.LVL231:
1314:Src/BLDC_controller.c ****       if (!(rtb_Merge_m < rtDW->z_counterRawPrev)) {
 2438              		.loc 1 1314 7 view .LVU804
 2439              		.loc 1 1314 31 is_stmt 0 view .LVU805
 2440 025c B4F95600 		ldrsh	r0, [r4, #86]
 2441              	.LVL232:
 2442              		.loc 1 1314 10 view .LVU806
ARM GAS  /var/folders/2w/5wbrmvx534s_vk8svtxz852c0000gn/T//cccje1sL.s 			page 69


 2443 0260 0C9B     		ldr	r3, [sp, #48]
 2444 0262 9842     		cmp	r0, r3
 2445 0264 00DC     		bgt	.L188
1315:Src/BLDC_controller.c ****         rtb_Merge_m = rtDW->z_counterRawPrev;
 2446              		.loc 1 1315 21 view .LVU807
 2447 0266 0346     		mov	r3, r0
 2448              	.L188:
 2449              	.LVL233:
1316:Src/BLDC_controller.c ****       }
1317:Src/BLDC_controller.c **** 
1318:Src/BLDC_controller.c ****       /* End of MinMax: '<S14>/MinMax' */
1319:Src/BLDC_controller.c **** 
1320:Src/BLDC_controller.c ****       /* Switch: '<S14>/Switch3' incorporates:
1321:Src/BLDC_controller.c ****        *  Constant: '<S11>/vec_hallToPos'
1322:Src/BLDC_controller.c ****        *  Constant: '<S14>/Constant16'
1323:Src/BLDC_controller.c ****        *  RelationalOperator: '<S14>/Relational Operator7'
1324:Src/BLDC_controller.c ****        *  Selector: '<S11>/Selector'
1325:Src/BLDC_controller.c ****        *  Sum: '<S14>/Sum1'
1326:Src/BLDC_controller.c ****        */
1327:Src/BLDC_controller.c ****       if (rtDW->Switch2_e == 1) {
 2450              		.loc 1 1327 7 is_stmt 1 view .LVU808
 2451              		.loc 1 1327 15 is_stmt 0 view .LVU809
 2452 0268 94F98E10 		ldrsb	r1, [r4, #142]
 2453              		.loc 1 1327 10 view .LVU810
 2454 026c 0129     		cmp	r1, #1
 2455 026e 64D0     		beq	.L437
1328:Src/BLDC_controller.c ****         rtb_Sum2_h = rtConstP.vec_hallToPos_Value[Sum];
1329:Src/BLDC_controller.c ****       } else {
1330:Src/BLDC_controller.c ****         rtb_Sum2_h = (int8_T)(rtConstP.vec_hallToPos_Value[Sum] + 1);
 2456              		.loc 1 1330 9 is_stmt 1 view .LVU811
 2457              		.loc 1 1330 59 is_stmt 0 view .LVU812
 2458 0270 344A     		ldr	r2, .L469
 2459 0272 5A44     		add	r2, r2, fp
 2460 0274 92F88827 		ldrb	r2, [r2, #1928]	@ zero_extendqisi2
 2461              		.loc 1 1330 65 view .LVU813
 2462 0278 0132     		adds	r2, r2, #1
 2463              		.loc 1 1330 20 view .LVU814
 2464 027a 52B2     		sxtb	r2, r2
 2465              	.LVL234:
 2466              	.L190:
1331:Src/BLDC_controller.c ****       }
1332:Src/BLDC_controller.c **** 
1333:Src/BLDC_controller.c ****       rtb_Merge_m = (int16_T)(((int16_T)((int16_T)((rtb_Merge_m << 14) /
 2467              		.loc 1 1333 7 is_stmt 1 view .LVU815
 2468              		.loc 1 1333 65 is_stmt 0 view .LVU816
 2469 027c 9B03     		lsls	r3, r3, #14
 2470              	.LVL235:
 2471              		.loc 1 1333 72 view .LVU817
 2472 027e 93FBF0F3 		sdiv	r3, r3, r0
 2473              		.loc 1 1333 42 view .LVU818
 2474 0282 9BB2     		uxth	r3, r3
1334:Src/BLDC_controller.c ****         rtDW->z_counterRawPrev) * rtDW->Switch2_e) + (rtb_Sum2_h << 14)) >> 2);
 2475              		.loc 1 1334 39 view .LVU819
 2476 0284 89B2     		uxth	r1, r1
 2477              		.loc 1 1334 33 view .LVU820
 2478 0286 01FB03F3 		mul	r3, r1, r3
1333:Src/BLDC_controller.c ****         rtDW->z_counterRawPrev) * rtDW->Switch2_e) + (rtb_Sum2_h << 14)) >> 2);
ARM GAS  /var/folders/2w/5wbrmvx534s_vk8svtxz852c0000gn/T//cccje1sL.s 			page 70


 2479              		.loc 1 1333 32 view .LVU821
 2480 028a 1BB2     		sxth	r3, r3
 2481              		.loc 1 1334 52 view .LVU822
 2482 028c 03EB8233 		add	r3, r3, r2, lsl #14
1333:Src/BLDC_controller.c ****         rtDW->z_counterRawPrev) * rtDW->Switch2_e) + (rtb_Sum2_h << 14)) >> 2);
 2483              		.loc 1 1333 19 view .LVU823
 2484 0290 43F38F03 		sbfx	r3, r3, #2, #16
 2485              	.LVL236:
 2486              	.L191:
1335:Src/BLDC_controller.c ****     } else {
1336:Src/BLDC_controller.c ****       if (rtDW->Switch2_e == 1) {
1337:Src/BLDC_controller.c ****         /* Switch: '<S14>/Switch3' incorporates:
1338:Src/BLDC_controller.c ****          *  Constant: '<S11>/vec_hallToPos'
1339:Src/BLDC_controller.c ****          *  Selector: '<S11>/Selector'
1340:Src/BLDC_controller.c ****          */
1341:Src/BLDC_controller.c ****         rtb_Sum2_h = rtConstP.vec_hallToPos_Value[Sum];
1342:Src/BLDC_controller.c ****       } else {
1343:Src/BLDC_controller.c ****         /* Switch: '<S14>/Switch3' incorporates:
1344:Src/BLDC_controller.c ****          *  Constant: '<S11>/vec_hallToPos'
1345:Src/BLDC_controller.c ****          *  Selector: '<S11>/Selector'
1346:Src/BLDC_controller.c ****          *  Sum: '<S14>/Sum1'
1347:Src/BLDC_controller.c ****          */
1348:Src/BLDC_controller.c ****         rtb_Sum2_h = (int8_T)(rtConstP.vec_hallToPos_Value[Sum] + 1);
1349:Src/BLDC_controller.c ****       }
1350:Src/BLDC_controller.c **** 
1351:Src/BLDC_controller.c ****       rtb_Merge_m = (int16_T)(rtb_Sum2_h << 12);
1352:Src/BLDC_controller.c ****     }
1353:Src/BLDC_controller.c **** 
1354:Src/BLDC_controller.c ****     /* End of Switch: '<S14>/Switch2' */
1355:Src/BLDC_controller.c **** 
1356:Src/BLDC_controller.c ****     /* MinMax: '<S14>/MinMax1' incorporates:
1357:Src/BLDC_controller.c ****      *  Constant: '<S14>/Constant1'
1358:Src/BLDC_controller.c ****      */
1359:Src/BLDC_controller.c ****     if (!(rtb_Merge_m > 0)) {
 2487              		.loc 1 1359 5 is_stmt 1 view .LVU824
 2488              		.loc 1 1359 8 is_stmt 0 view .LVU825
 2489 0294 002B     		cmp	r3, #0
 2490 0296 6FDD     		ble	.L438
 2491              	.LVL237:
 2492              	.L194:
1360:Src/BLDC_controller.c ****       rtb_Merge_m = 0;
1361:Src/BLDC_controller.c ****     }
1362:Src/BLDC_controller.c **** 
1363:Src/BLDC_controller.c ****     /* End of MinMax: '<S14>/MinMax1' */
1364:Src/BLDC_controller.c **** 
1365:Src/BLDC_controller.c ****     /* SignalConversion: '<S14>/Signal Conversion2' incorporates:
1366:Src/BLDC_controller.c ****      *  Product: '<S14>/Divide2'
1367:Src/BLDC_controller.c ****      */
1368:Src/BLDC_controller.c ****     rtb_Merge_m = (int16_T)((15 * rtb_Merge_m) >> 4);
 2493              		.loc 1 1368 5 is_stmt 1 view .LVU826
 2494              		.loc 1 1368 33 is_stmt 0 view .LVU827
 2495 0298 C3EB0313 		rsb	r3, r3, r3, lsl #4
 2496              	.LVL238:
 2497              		.loc 1 1368 17 view .LVU828
 2498 029c 43F30F13 		sbfx	r3, r3, #4, #16
 2499 02a0 0A93     		str	r3, [sp, #40]
 2500              	.LVL239:
ARM GAS  /var/folders/2w/5wbrmvx534s_vk8svtxz852c0000gn/T//cccje1sL.s 			page 71


 2501              	.L195:
1369:Src/BLDC_controller.c **** 
1370:Src/BLDC_controller.c ****     /* End of Outputs for SubSystem: '<S3>/F01_05_Electrical_Angle_Estimation' */
1371:Src/BLDC_controller.c ****   } else {
1372:Src/BLDC_controller.c ****     /* Outputs for IfAction SubSystem: '<S3>/F01_06_Electrical_Angle_Measurement' incorporates:
1373:Src/BLDC_controller.c ****      *  ActionPort: '<S15>/Action Port'
1374:Src/BLDC_controller.c ****      */
1375:Src/BLDC_controller.c ****     /* Sum: '<S15>/Sum1' incorporates:
1376:Src/BLDC_controller.c ****      *  Constant: '<S15>/Constant2'
1377:Src/BLDC_controller.c ****      *  Constant: '<S15>/n_polePairs'
1378:Src/BLDC_controller.c ****      *  Inport: '<Root>/a_mechAngle'
1379:Src/BLDC_controller.c ****      *  Product: '<S15>/Divide'
1380:Src/BLDC_controller.c ****      */
1381:Src/BLDC_controller.c ****     rtb_Sum1_jt = rtU->a_mechAngle * rtP->n_polePairs - 480;
1382:Src/BLDC_controller.c **** 
1383:Src/BLDC_controller.c ****     /* DataTypeConversion: '<S15>/Data Type Conversion20' incorporates:
1384:Src/BLDC_controller.c ****      *  Constant: '<S15>/a_elecPeriod'
1385:Src/BLDC_controller.c ****      *  Product: '<S19>/Divide2'
1386:Src/BLDC_controller.c ****      *  Product: '<S19>/Divide3'
1387:Src/BLDC_controller.c ****      *  Sum: '<S19>/Sum3'
1388:Src/BLDC_controller.c ****      */
1389:Src/BLDC_controller.c ****     rtb_Merge_m = (int16_T)((int16_T)(rtb_Sum1_jt - ((int16_T)((int16_T)
1390:Src/BLDC_controller.c ****       div_nde_s32_floor(rtb_Sum1_jt, 5760) * 360) << 4)) << 2);
1391:Src/BLDC_controller.c **** 
1392:Src/BLDC_controller.c ****     /* End of Outputs for SubSystem: '<S3>/F01_06_Electrical_Angle_Measurement' */
1393:Src/BLDC_controller.c ****   }
1394:Src/BLDC_controller.c **** 
1395:Src/BLDC_controller.c ****   /* End of If: '<S3>/If1' */
1396:Src/BLDC_controller.c **** 
1397:Src/BLDC_controller.c ****   /* If: '<S7>/If1' incorporates:
1398:Src/BLDC_controller.c ****    *  Constant: '<S1>/z_ctrlTypSel'
1399:Src/BLDC_controller.c ****    */
1400:Src/BLDC_controller.c ****   rtb_Sum2_h = rtDW->If1_ActiveSubsystem;
 2502              		.loc 1 1400 3 is_stmt 1 view .LVU829
 2503              		.loc 1 1400 14 is_stmt 0 view .LVU830
 2504 02a2 94F99030 		ldrsb	r3, [r4, #144]
 2505              	.LVL240:
1401:Src/BLDC_controller.c ****   UnitDelay3 = -1;
 2506              		.loc 1 1401 3 is_stmt 1 view .LVU831
1402:Src/BLDC_controller.c ****   if (rtP->z_ctrlTypSel == 2) {
 2507              		.loc 1 1402 3 view .LVU832
 2508              		.loc 1 1402 10 is_stmt 0 view .LVU833
 2509 02a6 95F8F920 		ldrb	r2, [r5, #249]	@ zero_extendqisi2
 2510              		.loc 1 1402 6 view .LVU834
 2511 02aa 022A     		cmp	r2, #2
 2512 02ac 00F08680 		beq	.L360
1401:Src/BLDC_controller.c ****   UnitDelay3 = -1;
 2513              		.loc 1 1401 14 view .LVU835
 2514 02b0 4FF0FF39 		mov	r9, #-1
 2515              	.L196:
 2516              	.LVL241:
1403:Src/BLDC_controller.c ****     UnitDelay3 = 0;
1404:Src/BLDC_controller.c ****   }
1405:Src/BLDC_controller.c **** 
1406:Src/BLDC_controller.c ****   rtDW->If1_ActiveSubsystem = UnitDelay3;
 2517              		.loc 1 1406 3 is_stmt 1 view .LVU836
 2518              		.loc 1 1406 29 is_stmt 0 view .LVU837
ARM GAS  /var/folders/2w/5wbrmvx534s_vk8svtxz852c0000gn/T//cccje1sL.s 			page 72


 2519 02b4 84F89090 		strb	r9, [r4, #144]
1407:Src/BLDC_controller.c ****   if ((rtb_Sum2_h != UnitDelay3) && (rtb_Sum2_h == 0)) {
 2520              		.loc 1 1407 3 is_stmt 1 view .LVU838
 2521              		.loc 1 1407 6 is_stmt 0 view .LVU839
 2522 02b8 9945     		cmp	r9, r3
 2523 02ba 17D0     		beq	.L197
 2524              		.loc 1 1407 34 discriminator 1 view .LVU840
 2525 02bc B3B9     		cbnz	r3, .L197
1408:Src/BLDC_controller.c ****     /* Disable for If: '<S45>/If2' */
1409:Src/BLDC_controller.c ****     if (rtDW->If2_ActiveSubsystem_a == 0) {
 2526              		.loc 1 1409 5 is_stmt 1 view .LVU841
 2527              		.loc 1 1409 13 is_stmt 0 view .LVU842
 2528 02be 94F99830 		ldrsb	r3, [r4, #152]
 2529              	.LVL242:
 2530              		.loc 1 1409 8 view .LVU843
 2531 02c2 2BB9     		cbnz	r3, .L198
1410:Src/BLDC_controller.c ****       /* Disable for Outport: '<S50>/iq' */
1411:Src/BLDC_controller.c ****       rtDW->DataTypeConversion[0] = 0;
 2532              		.loc 1 1411 7 is_stmt 1 view .LVU844
 2533              		.loc 1 1411 35 is_stmt 0 view .LVU845
 2534 02c4 A4F85230 		strh	r3, [r4, #82]	@ movhi
1412:Src/BLDC_controller.c **** 
1413:Src/BLDC_controller.c ****       /* Disable for Outport: '<S50>/iqAbs' */
1414:Src/BLDC_controller.c ****       rtDW->Abs5_h = 0;
 2535              		.loc 1 1414 7 is_stmt 1 view .LVU846
 2536              		.loc 1 1414 20 is_stmt 0 view .LVU847
 2537 02c8 A4F87830 		strh	r3, [r4, #120]	@ movhi
1415:Src/BLDC_controller.c **** 
1416:Src/BLDC_controller.c ****       /* Disable for Outport: '<S50>/id' */
1417:Src/BLDC_controller.c ****       rtDW->DataTypeConversion[1] = 0;
 2538              		.loc 1 1417 7 is_stmt 1 view .LVU848
 2539              		.loc 1 1417 35 is_stmt 0 view .LVU849
 2540 02cc A4F85430 		strh	r3, [r4, #84]	@ movhi
 2541              	.L198:
1418:Src/BLDC_controller.c ****     }
1419:Src/BLDC_controller.c **** 
1420:Src/BLDC_controller.c ****     rtDW->If2_ActiveSubsystem_a = -1;
 2542              		.loc 1 1420 5 is_stmt 1 view .LVU850
 2543              		.loc 1 1420 33 is_stmt 0 view .LVU851
 2544 02d0 FF23     		movs	r3, #255
 2545 02d2 84F89830 		strb	r3, [r4, #152]
1421:Src/BLDC_controller.c **** 
1422:Src/BLDC_controller.c ****     /* End of Disable for If: '<S45>/If2' */
1423:Src/BLDC_controller.c **** 
1424:Src/BLDC_controller.c ****     /* Disable for Outport: '<S45>/r_sin' */
1425:Src/BLDC_controller.c ****     rtDW->r_sin_M1 = 0;
 2546              		.loc 1 1425 5 is_stmt 1 view .LVU852
 2547              		.loc 1 1425 20 is_stmt 0 view .LVU853
 2548 02d6 0023     		movs	r3, #0
 2549 02d8 A4F87C30 		strh	r3, [r4, #124]	@ movhi
1426:Src/BLDC_controller.c **** 
1427:Src/BLDC_controller.c ****     /* Disable for Outport: '<S45>/r_cos' */
1428:Src/BLDC_controller.c ****     rtDW->r_cos_M1 = 0;
 2550              		.loc 1 1428 5 is_stmt 1 view .LVU854
 2551              		.loc 1 1428 20 is_stmt 0 view .LVU855
 2552 02dc A4F87E30 		strh	r3, [r4, #126]	@ movhi
1429:Src/BLDC_controller.c **** 
ARM GAS  /var/folders/2w/5wbrmvx534s_vk8svtxz852c0000gn/T//cccje1sL.s 			page 73


1430:Src/BLDC_controller.c ****     /* Disable for Outport: '<S45>/iq' */
1431:Src/BLDC_controller.c ****     rtDW->DataTypeConversion[0] = 0;
 2553              		.loc 1 1431 5 is_stmt 1 view .LVU856
 2554              		.loc 1 1431 33 is_stmt 0 view .LVU857
 2555 02e0 A4F85230 		strh	r3, [r4, #82]	@ movhi
1432:Src/BLDC_controller.c **** 
1433:Src/BLDC_controller.c ****     /* Disable for Outport: '<S45>/id' */
1434:Src/BLDC_controller.c ****     rtDW->DataTypeConversion[1] = 0;
 2556              		.loc 1 1434 5 is_stmt 1 view .LVU858
 2557              		.loc 1 1434 33 is_stmt 0 view .LVU859
 2558 02e4 A4F85430 		strh	r3, [r4, #84]	@ movhi
1435:Src/BLDC_controller.c **** 
1436:Src/BLDC_controller.c ****     /* Disable for Outport: '<S45>/iqAbs' */
1437:Src/BLDC_controller.c ****     rtDW->Abs5_h = 0;
 2559              		.loc 1 1437 5 is_stmt 1 view .LVU860
 2560              		.loc 1 1437 18 is_stmt 0 view .LVU861
 2561 02e8 A4F87830 		strh	r3, [r4, #120]	@ movhi
 2562              	.L197:
1438:Src/BLDC_controller.c ****   }
1439:Src/BLDC_controller.c **** 
1440:Src/BLDC_controller.c ****   if (UnitDelay3 == 0) {
 2563              		.loc 1 1440 3 is_stmt 1 view .LVU862
 2564              		.loc 1 1440 6 is_stmt 0 view .LVU863
 2565 02ec B9F1000F 		cmp	r9, #0
 2566 02f0 40F03881 		bne	.L199
1441:Src/BLDC_controller.c ****     /* Outputs for IfAction SubSystem: '<S7>/Clarke_Park_Transform_Forward' incorporates:
1442:Src/BLDC_controller.c ****      *  ActionPort: '<S45>/Action Port'
1443:Src/BLDC_controller.c ****      */
1444:Src/BLDC_controller.c ****     /* If: '<S49>/If1' incorporates:
1445:Src/BLDC_controller.c ****      *  Constant: '<S49>/z_selPhaCurMeasABC'
1446:Src/BLDC_controller.c ****      */
1447:Src/BLDC_controller.c ****     if (rtP->z_selPhaCurMeasABC == 0) {
 2567              		.loc 1 1447 5 is_stmt 1 view .LVU864
 2568              		.loc 1 1447 12 is_stmt 0 view .LVU865
 2569 02f4 95F8FA30 		ldrb	r3, [r5, #250]	@ zero_extendqisi2
 2570              		.loc 1 1447 8 view .LVU866
 2571 02f8 002B     		cmp	r3, #0
 2572 02fa 40F0AF80 		bne	.L200
1448:Src/BLDC_controller.c ****       /* Outputs for IfAction SubSystem: '<S49>/Clarke_PhasesAB' incorporates:
1449:Src/BLDC_controller.c ****        *  ActionPort: '<S53>/Action Port'
1450:Src/BLDC_controller.c ****        */
1451:Src/BLDC_controller.c ****       /* Gain: '<S53>/Gain4' */
1452:Src/BLDC_controller.c ****       rtb_Gain3 = 18919 * rtb_Saturation;
 2573              		.loc 1 1452 7 is_stmt 1 view .LVU867
 2574              		.loc 1 1452 17 is_stmt 0 view .LVU868
 2575 02fe 44F6E712 		movw	r2, #18919
 2576 0302 02FB0AF1 		mul	r1, r2, r10
 2577              	.LVL243:
1453:Src/BLDC_controller.c **** 
1454:Src/BLDC_controller.c ****       /* Gain: '<S53>/Gain2' */
1455:Src/BLDC_controller.c ****       rtb_Sum1_jt = 18919 * rtb_Saturation1;
 2578              		.loc 1 1455 7 is_stmt 1 view .LVU869
 2579              		.loc 1 1455 19 is_stmt 0 view .LVU870
 2580 0306 02FB08F8 		mul	r8, r2, r8
 2581              	.LVL244:
1456:Src/BLDC_controller.c **** 
1457:Src/BLDC_controller.c ****       /* Sum: '<S53>/Sum1' incorporates:
ARM GAS  /var/folders/2w/5wbrmvx534s_vk8svtxz852c0000gn/T//cccje1sL.s 			page 74


1458:Src/BLDC_controller.c ****        *  Gain: '<S53>/Gain2'
1459:Src/BLDC_controller.c ****        *  Gain: '<S53>/Gain4'
1460:Src/BLDC_controller.c ****        */
1461:Src/BLDC_controller.c ****       rtb_Gain3 = (((rtb_Gain3 < 0 ? 32767 : 0) + rtb_Gain3) >> 15) + (int16_T)
 2582              		.loc 1 1461 7 is_stmt 1 view .LVU871
 2583              		.loc 1 1461 44 is_stmt 0 view .LVU872
 2584 030a 0029     		cmp	r1, #0
 2585 030c 59DB     		blt	.L439
 2586 030e 0023     		movs	r3, #0
 2587              	.L201:
 2588              		.loc 1 1461 49 discriminator 4 view .LVU873
 2589 0310 0B44     		add	r3, r3, r1
 2590              		.loc 1 1461 62 discriminator 4 view .LVU874
 2591 0312 DB13     		asrs	r3, r3, #15
1462:Src/BLDC_controller.c ****         (((rtb_Sum1_jt < 0 ? 16383 : 0) + rtb_Sum1_jt) >> 14);
 2592              		.loc 1 1462 36 discriminator 4 view .LVU875
 2593 0314 B8F1000F 		cmp	r8, #0
 2594 0318 56DB     		blt	.L440
 2595              		.loc 1 1462 36 view .LVU876
 2596 031a 0022     		movs	r2, #0
 2597              	.L202:
 2598              		.loc 1 1462 41 discriminator 4 view .LVU877
 2599 031c 9044     		add	r8, r8, r2
 2600              	.LVL245:
1461:Src/BLDC_controller.c ****         (((rtb_Sum1_jt < 0 ? 16383 : 0) + rtb_Sum1_jt) >> 14);
 2601              		.loc 1 1461 71 discriminator 4 view .LVU878
 2602 031e 48F38F38 		sbfx	r8, r8, #14, #16
1461:Src/BLDC_controller.c ****         (((rtb_Sum1_jt < 0 ? 16383 : 0) + rtb_Sum1_jt) >> 14);
 2603              		.loc 1 1461 17 discriminator 4 view .LVU879
 2604 0322 4344     		add	r3, r3, r8
 2605              	.LVL246:
1463:Src/BLDC_controller.c ****       if (rtb_Gain3 > 32767) {
 2606              		.loc 1 1463 7 is_stmt 1 discriminator 4 view .LVU880
 2607              		.loc 1 1463 10 is_stmt 0 discriminator 4 view .LVU881
 2608 0324 B3F5004F 		cmp	r3, #32768
 2609 0328 51DA     		bge	.L363
1464:Src/BLDC_controller.c ****         rtb_Gain3 = 32767;
1465:Src/BLDC_controller.c ****       } else {
1466:Src/BLDC_controller.c ****         if (rtb_Gain3 < -32768) {
 2610              		.loc 1 1466 9 is_stmt 1 view .LVU882
 2611              		.loc 1 1466 12 is_stmt 0 view .LVU883
 2612 032a 13F5004F 		cmn	r3, #32768
 2613 032e 50DA     		bge	.L203
1467:Src/BLDC_controller.c ****           rtb_Gain3 = -32768;
 2614              		.loc 1 1467 21 view .LVU884
 2615 0330 074B     		ldr	r3, .L469+12
 2616              	.LVL247:
 2617              		.loc 1 1467 21 view .LVU885
 2618 0332 4EE0     		b	.L203
 2619              	.LVL248:
 2620              	.L357:
1289:Src/BLDC_controller.c ****   } else {
 2621              		.loc 1 1289 21 view .LVU886
 2622 0334 DFF81480 		ldr	r8, .L469+8
 2623              	.LVL249:
1289:Src/BLDC_controller.c ****   } else {
 2624              		.loc 1 1289 21 view .LVU887
ARM GAS  /var/folders/2w/5wbrmvx534s_vk8svtxz852c0000gn/T//cccje1sL.s 			page 75


 2625 0338 8AE7     		b	.L185
 2626              	.LVL250:
 2627              	.L437:
1328:Src/BLDC_controller.c ****       } else {
 2628              		.loc 1 1328 9 is_stmt 1 view .LVU888
1328:Src/BLDC_controller.c ****       } else {
 2629              		.loc 1 1328 20 is_stmt 0 view .LVU889
 2630 033a 024A     		ldr	r2, .L469
 2631 033c 5A44     		add	r2, r2, fp
 2632 033e 92F98827 		ldrsb	r2, [r2, #1928]
 2633              	.LVL251:
1328:Src/BLDC_controller.c ****       } else {
 2634              		.loc 1 1328 20 view .LVU890
 2635 0342 9BE7     		b	.L190
 2636              	.L470:
 2637              		.align	2
 2638              	.L469:
 2639 0344 00000000 		.word	rtConstP
 2640 0348 C195FFFF 		.word	-27199
 2641 034c C095FFFF 		.word	-27200
 2642 0350 0080FFFF 		.word	-32768
 2643              	.LVL252:
 2644              	.L187:
1336:Src/BLDC_controller.c ****         /* Switch: '<S14>/Switch3' incorporates:
 2645              		.loc 1 1336 7 is_stmt 1 view .LVU891
1336:Src/BLDC_controller.c ****         /* Switch: '<S14>/Switch3' incorporates:
 2646              		.loc 1 1336 15 is_stmt 0 view .LVU892
 2647 0354 94F98E30 		ldrsb	r3, [r4, #142]
1336:Src/BLDC_controller.c ****         /* Switch: '<S14>/Switch3' incorporates:
 2648              		.loc 1 1336 10 view .LVU893
 2649 0358 012B     		cmp	r3, #1
 2650 035a 08D0     		beq	.L441
1348:Src/BLDC_controller.c ****       }
 2651              		.loc 1 1348 9 is_stmt 1 view .LVU894
1348:Src/BLDC_controller.c ****       }
 2652              		.loc 1 1348 59 is_stmt 0 view .LVU895
 2653 035c BB4B     		ldr	r3, .L471
 2654 035e 5B44     		add	r3, r3, fp
 2655 0360 93F88837 		ldrb	r3, [r3, #1928]	@ zero_extendqisi2
1348:Src/BLDC_controller.c ****       }
 2656              		.loc 1 1348 65 view .LVU896
 2657 0364 0133     		adds	r3, r3, #1
1348:Src/BLDC_controller.c ****       }
 2658              		.loc 1 1348 20 view .LVU897
 2659 0366 5BB2     		sxtb	r3, r3
 2660              	.LVL253:
 2661              	.L193:
1351:Src/BLDC_controller.c ****     }
 2662              		.loc 1 1351 7 is_stmt 1 view .LVU898
1351:Src/BLDC_controller.c ****     }
 2663              		.loc 1 1351 42 is_stmt 0 view .LVU899
 2664 0368 1B03     		lsls	r3, r3, #12
 2665              	.LVL254:
1351:Src/BLDC_controller.c ****     }
 2666              		.loc 1 1351 19 view .LVU900
 2667 036a 1BB2     		sxth	r3, r3
 2668              	.LVL255:
ARM GAS  /var/folders/2w/5wbrmvx534s_vk8svtxz852c0000gn/T//cccje1sL.s 			page 76


1351:Src/BLDC_controller.c ****     }
 2669              		.loc 1 1351 19 view .LVU901
 2670 036c 92E7     		b	.L191
 2671              	.LVL256:
 2672              	.L441:
1341:Src/BLDC_controller.c ****       } else {
 2673              		.loc 1 1341 9 is_stmt 1 view .LVU902
1341:Src/BLDC_controller.c ****       } else {
 2674              		.loc 1 1341 20 is_stmt 0 view .LVU903
 2675 036e B74B     		ldr	r3, .L471
 2676 0370 5B44     		add	r3, r3, fp
 2677 0372 93F98837 		ldrsb	r3, [r3, #1928]
 2678              	.LVL257:
1341:Src/BLDC_controller.c ****       } else {
 2679              		.loc 1 1341 20 view .LVU904
 2680 0376 F7E7     		b	.L193
 2681              	.LVL258:
 2682              	.L438:
1360:Src/BLDC_controller.c ****     }
 2683              		.loc 1 1360 19 view .LVU905
 2684 0378 0023     		movs	r3, #0
 2685              	.LVL259:
1360:Src/BLDC_controller.c ****     }
 2686              		.loc 1 1360 19 view .LVU906
 2687 037a 8DE7     		b	.L194
 2688              	.LVL260:
 2689              	.L186:
1381:Src/BLDC_controller.c **** 
 2690              		.loc 1 1381 5 is_stmt 1 view .LVU907
1381:Src/BLDC_controller.c **** 
 2691              		.loc 1 1381 22 is_stmt 0 view .LVU908
 2692 037c B6F90E90 		ldrsh	r9, [r6, #14]
1381:Src/BLDC_controller.c **** 
 2693              		.loc 1 1381 41 view .LVU909
 2694 0380 95F8F830 		ldrb	r3, [r5, #248]	@ zero_extendqisi2
1381:Src/BLDC_controller.c **** 
 2695              		.loc 1 1381 36 view .LVU910
 2696 0384 03FB09F9 		mul	r9, r3, r9
1381:Src/BLDC_controller.c **** 
 2697              		.loc 1 1381 17 view .LVU911
 2698 0388 A9F5F079 		sub	r9, r9, #480
 2699              	.LVL261:
1389:Src/BLDC_controller.c ****       div_nde_s32_floor(rtb_Sum1_jt, 5760) * 360) << 4)) << 2);
 2700              		.loc 1 1389 5 is_stmt 1 view .LVU912
1390:Src/BLDC_controller.c **** 
 2701              		.loc 1 1390 7 is_stmt 0 view .LVU913
 2702 038c 4FF4B451 		mov	r1, #5760
 2703 0390 4846     		mov	r0, r9
 2704              	.LVL262:
1390:Src/BLDC_controller.c **** 
 2705              		.loc 1 1390 7 view .LVU914
 2706 0392 FFF7FEFF 		bl	div_nde_s32_floor
 2707              	.LVL263:
1389:Src/BLDC_controller.c ****       div_nde_s32_floor(rtb_Sum1_jt, 5760) * 360) << 4)) << 2);
 2708              		.loc 1 1389 64 view .LVU915
 2709 0396 80B2     		uxth	r0, r0
1390:Src/BLDC_controller.c **** 
ARM GAS  /var/folders/2w/5wbrmvx534s_vk8svtxz852c0000gn/T//cccje1sL.s 			page 77


 2710              		.loc 1 1390 44 view .LVU916
 2711 0398 00EB4000 		add	r0, r0, r0, lsl #1
 2712 039c C0EB0013 		rsb	r3, r0, r0, lsl #4
 2713 03a0 DB00     		lsls	r3, r3, #3
 2714 03a2 9BB2     		uxth	r3, r3
1390:Src/BLDC_controller.c **** 
 2715              		.loc 1 1390 51 view .LVU917
 2716 03a4 1B01     		lsls	r3, r3, #4
 2717 03a6 9BB2     		uxth	r3, r3
1389:Src/BLDC_controller.c ****       div_nde_s32_floor(rtb_Sum1_jt, 5760) * 360) << 4)) << 2);
 2718              		.loc 1 1389 51 view .LVU918
 2719 03a8 A9EB0309 		sub	r9, r9, r3
 2720              	.LVL264:
1389:Src/BLDC_controller.c ****       div_nde_s32_floor(rtb_Sum1_jt, 5760) * 360) << 4)) << 2);
 2721              		.loc 1 1389 29 view .LVU919
 2722 03ac 0FFA89F9 		sxth	r9, r9
1390:Src/BLDC_controller.c **** 
 2723              		.loc 1 1390 58 view .LVU920
 2724 03b0 4FEA8909 		lsl	r9, r9, #2
1389:Src/BLDC_controller.c ****       div_nde_s32_floor(rtb_Sum1_jt, 5760) * 360) << 4)) << 2);
 2725              		.loc 1 1389 17 view .LVU921
 2726 03b4 0FFA89F3 		sxth	r3, r9
 2727 03b8 0A93     		str	r3, [sp, #40]
 2728              	.LVL265:
1389:Src/BLDC_controller.c ****       div_nde_s32_floor(rtb_Sum1_jt, 5760) * 360) << 4)) << 2);
 2729              		.loc 1 1389 17 view .LVU922
 2730 03ba 72E7     		b	.L195
 2731              	.LVL266:
 2732              	.L360:
1403:Src/BLDC_controller.c ****   }
 2733              		.loc 1 1403 16 view .LVU923
 2734 03bc 4FF00009 		mov	r9, #0
 2735 03c0 78E7     		b	.L196
 2736              	.LVL267:
 2737              	.L439:
1461:Src/BLDC_controller.c ****         (((rtb_Sum1_jt < 0 ? 16383 : 0) + rtb_Sum1_jt) >> 14);
 2738              		.loc 1 1461 44 view .LVU924
 2739 03c2 47F6FF73 		movw	r3, #32767
 2740 03c6 A3E7     		b	.L201
 2741              	.L440:
1462:Src/BLDC_controller.c ****       if (rtb_Gain3 > 32767) {
 2742              		.loc 1 1462 36 view .LVU925
 2743 03c8 43F6FF72 		movw	r2, #16383
 2744 03cc A6E7     		b	.L202
 2745              	.LVL268:
 2746              	.L363:
1464:Src/BLDC_controller.c ****       } else {
 2747              		.loc 1 1464 19 view .LVU926
 2748 03ce 47F6FF73 		movw	r3, #32767
 2749              	.LVL269:
 2750              	.L203:
1468:Src/BLDC_controller.c ****         }
1469:Src/BLDC_controller.c ****       }
1470:Src/BLDC_controller.c **** 
1471:Src/BLDC_controller.c ****       rtb_Merge1 = (int16_T)rtb_Gain3;
 2751              		.loc 1 1471 7 is_stmt 1 view .LVU927
 2752              		.loc 1 1471 18 is_stmt 0 view .LVU928
ARM GAS  /var/folders/2w/5wbrmvx534s_vk8svtxz852c0000gn/T//cccje1sL.s 			page 78


 2753 03d2 0FFA83F8 		sxth	r8, r3
 2754              	.LVL270:
 2755              	.L204:
1472:Src/BLDC_controller.c **** 
1473:Src/BLDC_controller.c ****       /* End of Sum: '<S53>/Sum1' */
1474:Src/BLDC_controller.c ****       /* End of Outputs for SubSystem: '<S49>/Clarke_PhasesAB' */
1475:Src/BLDC_controller.c ****     } else if (rtP->z_selPhaCurMeasABC == 1) {
1476:Src/BLDC_controller.c ****       /* Outputs for IfAction SubSystem: '<S49>/Clarke_PhasesBC' incorporates:
1477:Src/BLDC_controller.c ****        *  ActionPort: '<S55>/Action Port'
1478:Src/BLDC_controller.c ****        */
1479:Src/BLDC_controller.c ****       /* Sum: '<S55>/Sum3' */
1480:Src/BLDC_controller.c ****       rtb_Gain3 = rtb_Saturation - rtb_Saturation1;
1481:Src/BLDC_controller.c ****       if (rtb_Gain3 > 32767) {
1482:Src/BLDC_controller.c ****         rtb_Gain3 = 32767;
1483:Src/BLDC_controller.c ****       } else {
1484:Src/BLDC_controller.c ****         if (rtb_Gain3 < -32768) {
1485:Src/BLDC_controller.c ****           rtb_Gain3 = -32768;
1486:Src/BLDC_controller.c ****         }
1487:Src/BLDC_controller.c ****       }
1488:Src/BLDC_controller.c **** 
1489:Src/BLDC_controller.c ****       /* Gain: '<S55>/Gain2' incorporates:
1490:Src/BLDC_controller.c ****        *  Sum: '<S55>/Sum3'
1491:Src/BLDC_controller.c ****        */
1492:Src/BLDC_controller.c ****       rtb_Gain3 *= 18919;
1493:Src/BLDC_controller.c ****       rtb_Merge1 = (int16_T)(((rtb_Gain3 < 0 ? 32767 : 0) + rtb_Gain3) >> 15);
1494:Src/BLDC_controller.c **** 
1495:Src/BLDC_controller.c ****       /* Sum: '<S55>/Sum1' */
1496:Src/BLDC_controller.c ****       rtb_Gain3 = -rtb_Saturation - rtb_Saturation1;
1497:Src/BLDC_controller.c ****       if (rtb_Gain3 > 32767) {
1498:Src/BLDC_controller.c ****         rtb_Gain3 = 32767;
1499:Src/BLDC_controller.c ****       } else {
1500:Src/BLDC_controller.c ****         if (rtb_Gain3 < -32768) {
1501:Src/BLDC_controller.c ****           rtb_Gain3 = -32768;
1502:Src/BLDC_controller.c ****         }
1503:Src/BLDC_controller.c ****       }
1504:Src/BLDC_controller.c **** 
1505:Src/BLDC_controller.c ****       rtb_Saturation = (int16_T)rtb_Gain3;
1506:Src/BLDC_controller.c **** 
1507:Src/BLDC_controller.c ****       /* End of Sum: '<S55>/Sum1' */
1508:Src/BLDC_controller.c ****       /* End of Outputs for SubSystem: '<S49>/Clarke_PhasesBC' */
1509:Src/BLDC_controller.c ****     } else {
1510:Src/BLDC_controller.c ****       /* Outputs for IfAction SubSystem: '<S49>/Clarke_PhasesAC' incorporates:
1511:Src/BLDC_controller.c ****        *  ActionPort: '<S54>/Action Port'
1512:Src/BLDC_controller.c ****        */
1513:Src/BLDC_controller.c ****       /* Gain: '<S54>/Gain4' */
1514:Src/BLDC_controller.c ****       rtb_Gain3 = 18919 * rtb_Saturation;
1515:Src/BLDC_controller.c **** 
1516:Src/BLDC_controller.c ****       /* Gain: '<S54>/Gain2' */
1517:Src/BLDC_controller.c ****       rtb_Sum1_jt = 18919 * rtb_Saturation1;
1518:Src/BLDC_controller.c **** 
1519:Src/BLDC_controller.c ****       /* Sum: '<S54>/Sum1' incorporates:
1520:Src/BLDC_controller.c ****        *  Gain: '<S54>/Gain2'
1521:Src/BLDC_controller.c ****        *  Gain: '<S54>/Gain4'
1522:Src/BLDC_controller.c ****        */
1523:Src/BLDC_controller.c ****       rtb_Gain3 = -(((rtb_Gain3 < 0 ? 32767 : 0) + rtb_Gain3) >> 15) - (int16_T)
1524:Src/BLDC_controller.c ****         (((rtb_Sum1_jt < 0 ? 16383 : 0) + rtb_Sum1_jt) >> 14);
1525:Src/BLDC_controller.c ****       if (rtb_Gain3 > 32767) {
ARM GAS  /var/folders/2w/5wbrmvx534s_vk8svtxz852c0000gn/T//cccje1sL.s 			page 79


1526:Src/BLDC_controller.c ****         rtb_Gain3 = 32767;
1527:Src/BLDC_controller.c ****       } else {
1528:Src/BLDC_controller.c ****         if (rtb_Gain3 < -32768) {
1529:Src/BLDC_controller.c ****           rtb_Gain3 = -32768;
1530:Src/BLDC_controller.c ****         }
1531:Src/BLDC_controller.c ****       }
1532:Src/BLDC_controller.c **** 
1533:Src/BLDC_controller.c ****       rtb_Merge1 = (int16_T)rtb_Gain3;
1534:Src/BLDC_controller.c **** 
1535:Src/BLDC_controller.c ****       /* End of Sum: '<S54>/Sum1' */
1536:Src/BLDC_controller.c ****       /* End of Outputs for SubSystem: '<S49>/Clarke_PhasesAC' */
1537:Src/BLDC_controller.c ****     }
1538:Src/BLDC_controller.c **** 
1539:Src/BLDC_controller.c ****     /* End of If: '<S49>/If1' */
1540:Src/BLDC_controller.c **** 
1541:Src/BLDC_controller.c ****     /* PreLookup: '<S52>/a_elecAngle_XA' */
1542:Src/BLDC_controller.c ****     rtb_a_elecAngle_XA_g = plook_u8s16_evencka(rtb_Merge_m, 0, 128U, 180U);
 2756              		.loc 1 1542 5 is_stmt 1 view .LVU929
 2757              		.loc 1 1542 28 is_stmt 0 view .LVU930
 2758 03d6 B423     		movs	r3, #180
 2759 03d8 8022     		movs	r2, #128
 2760 03da 0021     		movs	r1, #0
 2761 03dc 0A98     		ldr	r0, [sp, #40]
 2762 03de FFF7FEFF 		bl	plook_u8s16_evencka
 2763              	.LVL271:
1543:Src/BLDC_controller.c **** 
1544:Src/BLDC_controller.c ****     /* Interpolation_n-D: '<S52>/r_sin_M1' */
1545:Src/BLDC_controller.c ****     rtDW->r_sin_M1 = rtConstP.r_sin_M1_Table[rtb_a_elecAngle_XA_g];
 2764              		.loc 1 1545 5 is_stmt 1 view .LVU931
 2765              		.loc 1 1545 45 is_stmt 0 view .LVU932
 2766 03e2 9A4B     		ldr	r3, .L471
 2767 03e4 33F91020 		ldrsh	r2, [r3, r0, lsl #1]
 2768              		.loc 1 1545 20 view .LVU933
 2769 03e8 A4F87C20 		strh	r2, [r4, #124]	@ movhi
1546:Src/BLDC_controller.c **** 
1547:Src/BLDC_controller.c ****     /* Interpolation_n-D: '<S52>/r_cos_M1' */
1548:Src/BLDC_controller.c ****     rtDW->r_cos_M1 = rtConstP.r_cos_M1_Table[rtb_a_elecAngle_XA_g];
 2770              		.loc 1 1548 5 is_stmt 1 view .LVU934
 2771              		.loc 1 1548 45 is_stmt 0 view .LVU935
 2772 03ec B430     		adds	r0, r0, #180
 2773              	.LVL272:
 2774              		.loc 1 1548 45 view .LVU936
 2775 03ee 03EB4000 		add	r0, r3, r0, lsl #1
 2776 03f2 B0F90230 		ldrsh	r3, [r0, #2]
 2777              		.loc 1 1548 20 view .LVU937
 2778 03f6 A4F87E30 		strh	r3, [r4, #126]	@ movhi
1549:Src/BLDC_controller.c **** 
1550:Src/BLDC_controller.c ****     /* If: '<S45>/If2' incorporates:
1551:Src/BLDC_controller.c ****      *  Constant: '<S50>/cf_currFilt'
1552:Src/BLDC_controller.c ****      *  Inport: '<Root>/b_motEna'
1553:Src/BLDC_controller.c ****      */
1554:Src/BLDC_controller.c ****     rtb_Sum2_h = rtDW->If2_ActiveSubsystem_a;
 2779              		.loc 1 1554 5 is_stmt 1 view .LVU938
 2780              		.loc 1 1554 16 is_stmt 0 view .LVU939
 2781 03fa 94F99830 		ldrsb	r3, [r4, #152]
 2782              	.LVL273:
1555:Src/BLDC_controller.c ****     UnitDelay3 = -1;
ARM GAS  /var/folders/2w/5wbrmvx534s_vk8svtxz852c0000gn/T//cccje1sL.s 			page 80


 2783              		.loc 1 1555 5 is_stmt 1 view .LVU940
1556:Src/BLDC_controller.c ****     if (rtU->b_motEna) {
 2784              		.loc 1 1556 5 view .LVU941
 2785              		.loc 1 1556 12 is_stmt 0 view .LVU942
 2786 03fe 3278     		ldrb	r2, [r6]	@ zero_extendqisi2
 2787              		.loc 1 1556 8 view .LVU943
 2788 0400 0AB9     		cbnz	r2, .L212
1555:Src/BLDC_controller.c ****     UnitDelay3 = -1;
 2789              		.loc 1 1555 16 view .LVU944
 2790 0402 4FF0FF39 		mov	r9, #-1
 2791              	.L212:
 2792              	.LVL274:
1557:Src/BLDC_controller.c ****       UnitDelay3 = 0;
1558:Src/BLDC_controller.c ****     }
1559:Src/BLDC_controller.c **** 
1560:Src/BLDC_controller.c ****     rtDW->If2_ActiveSubsystem_a = UnitDelay3;
 2793              		.loc 1 1560 5 is_stmt 1 view .LVU945
 2794              		.loc 1 1560 33 is_stmt 0 view .LVU946
 2795 0406 84F89890 		strb	r9, [r4, #152]
1561:Src/BLDC_controller.c ****     if ((rtb_Sum2_h != UnitDelay3) && (rtb_Sum2_h == 0)) {
 2796              		.loc 1 1561 5 is_stmt 1 view .LVU947
 2797              		.loc 1 1561 8 is_stmt 0 view .LVU948
 2798 040a 9945     		cmp	r9, r3
 2799 040c 07D0     		beq	.L213
 2800              		.loc 1 1561 36 discriminator 1 view .LVU949
 2801 040e 33B9     		cbnz	r3, .L213
1562:Src/BLDC_controller.c ****       /* Disable for Outport: '<S50>/iq' */
1563:Src/BLDC_controller.c ****       rtDW->DataTypeConversion[0] = 0;
 2802              		.loc 1 1563 7 is_stmt 1 view .LVU950
 2803              		.loc 1 1563 35 is_stmt 0 view .LVU951
 2804 0410 0022     		movs	r2, #0
 2805 0412 A4F85220 		strh	r2, [r4, #82]	@ movhi
1564:Src/BLDC_controller.c **** 
1565:Src/BLDC_controller.c ****       /* Disable for Outport: '<S50>/iqAbs' */
1566:Src/BLDC_controller.c ****       rtDW->Abs5_h = 0;
 2806              		.loc 1 1566 7 is_stmt 1 view .LVU952
 2807              		.loc 1 1566 20 is_stmt 0 view .LVU953
 2808 0416 A4F87820 		strh	r2, [r4, #120]	@ movhi
1567:Src/BLDC_controller.c **** 
1568:Src/BLDC_controller.c ****       /* Disable for Outport: '<S50>/id' */
1569:Src/BLDC_controller.c ****       rtDW->DataTypeConversion[1] = 0;
 2809              		.loc 1 1569 7 is_stmt 1 view .LVU954
 2810              		.loc 1 1569 35 is_stmt 0 view .LVU955
 2811 041a A4F85420 		strh	r2, [r4, #84]	@ movhi
 2812              	.L213:
1570:Src/BLDC_controller.c ****     }
1571:Src/BLDC_controller.c **** 
1572:Src/BLDC_controller.c ****     if (UnitDelay3 == 0) {
 2813              		.loc 1 1572 5 is_stmt 1 view .LVU956
 2814              		.loc 1 1572 8 is_stmt 0 view .LVU957
 2815 041e B9F1000F 		cmp	r9, #0
 2816 0422 40F09F80 		bne	.L199
1573:Src/BLDC_controller.c ****       if (0 != rtb_Sum2_h) {
 2817              		.loc 1 1573 7 is_stmt 1 view .LVU958
 2818              		.loc 1 1573 10 is_stmt 0 view .LVU959
 2819 0426 002B     		cmp	r3, #0
 2820 0428 6FD1     		bne	.L442
ARM GAS  /var/folders/2w/5wbrmvx534s_vk8svtxz852c0000gn/T//cccje1sL.s 			page 81


 2821              	.LVL275:
 2822              	.L214:
1574:Src/BLDC_controller.c ****         /* SystemReset for IfAction SubSystem: '<S45>/Current_Filtering' incorporates:
1575:Src/BLDC_controller.c ****          *  ActionPort: '<S50>/Action Port'
1576:Src/BLDC_controller.c ****          */
1577:Src/BLDC_controller.c **** 
1578:Src/BLDC_controller.c ****         /* SystemReset for Atomic SubSystem: '<S50>/Low_Pass_Filter' */
1579:Src/BLDC_controller.c **** 
1580:Src/BLDC_controller.c ****         /* SystemReset for If: '<S45>/If2' */
1581:Src/BLDC_controller.c ****         Low_Pass_Filter_Reset(&rtDW->Low_Pass_Filter_m);
1582:Src/BLDC_controller.c **** 
1583:Src/BLDC_controller.c ****         /* End of SystemReset for SubSystem: '<S50>/Low_Pass_Filter' */
1584:Src/BLDC_controller.c **** 
1585:Src/BLDC_controller.c ****         /* End of SystemReset for SubSystem: '<S45>/Current_Filtering' */
1586:Src/BLDC_controller.c ****       }
1587:Src/BLDC_controller.c **** 
1588:Src/BLDC_controller.c ****       /* Sum: '<S51>/Sum6' incorporates:
1589:Src/BLDC_controller.c ****        *  Product: '<S51>/Divide1'
1590:Src/BLDC_controller.c ****        *  Product: '<S51>/Divide4'
1591:Src/BLDC_controller.c ****        */
1592:Src/BLDC_controller.c ****       rtb_Gain3 = (int16_T)((rtb_Merge1 * rtDW->r_cos_M1) >> 14) - (int16_T)
 2823              		.loc 1 1592 7 is_stmt 1 view .LVU960
 2824              		.loc 1 1592 41 is_stmt 0 view .LVU961
 2825 042a 4246     		mov	r2, r8
 2826              		.loc 1 1592 47 view .LVU962
 2827 042c B4F97E30 		ldrsh	r3, [r4, #126]
 2828              		.loc 1 1592 41 view .LVU963
 2829 0430 03FB08F8 		mul	r8, r3, r8
 2830              	.LVL276:
 2831              		.loc 1 1592 19 view .LVU964
 2832 0434 48F38F38 		sbfx	r8, r8, #14, #16
1593:Src/BLDC_controller.c ****         ((rtb_Saturation * rtDW->r_sin_M1) >> 14);
 2833              		.loc 1 1593 26 view .LVU965
 2834 0438 5046     		mov	r0, r10
 2835              		.loc 1 1593 32 view .LVU966
 2836 043a B4F97C10 		ldrsh	r1, [r4, #124]
 2837              		.loc 1 1593 26 view .LVU967
 2838 043e 01FB0AFA 		mul	r10, r1, r10
 2839              	.LVL277:
1592:Src/BLDC_controller.c ****         ((rtb_Saturation * rtDW->r_sin_M1) >> 14);
 2840              		.loc 1 1592 68 view .LVU968
 2841 0442 4AF38F3A 		sbfx	r10, r10, #14, #16
1592:Src/BLDC_controller.c ****         ((rtb_Saturation * rtDW->r_sin_M1) >> 14);
 2842              		.loc 1 1592 17 view .LVU969
 2843 0446 A8EB0A08 		sub	r8, r8, r10
 2844              	.LVL278:
1594:Src/BLDC_controller.c ****       if (rtb_Gain3 > 32767) {
 2845              		.loc 1 1594 7 is_stmt 1 view .LVU970
 2846              		.loc 1 1594 10 is_stmt 0 view .LVU971
 2847 044a B8F5004F 		cmp	r8, #32768
 2848 044e 61DA     		bge	.L374
1595:Src/BLDC_controller.c ****         rtb_Gain3 = 32767;
1596:Src/BLDC_controller.c ****       } else {
1597:Src/BLDC_controller.c ****         if (rtb_Gain3 < -32768) {
 2849              		.loc 1 1597 9 is_stmt 1 view .LVU972
 2850              		.loc 1 1597 12 is_stmt 0 view .LVU973
 2851 0450 18F5004F 		cmn	r8, #32768
ARM GAS  /var/folders/2w/5wbrmvx534s_vk8svtxz852c0000gn/T//cccje1sL.s 			page 82


 2852 0454 60DA     		bge	.L215
1598:Src/BLDC_controller.c ****           rtb_Gain3 = -32768;
 2853              		.loc 1 1598 21 view .LVU974
 2854 0456 DFF8F881 		ldr	r8, .L471+4
 2855              	.LVL279:
 2856              		.loc 1 1598 21 view .LVU975
 2857 045a 5DE0     		b	.L215
 2858              	.LVL280:
 2859              	.L200:
1475:Src/BLDC_controller.c ****       /* Outputs for IfAction SubSystem: '<S49>/Clarke_PhasesBC' incorporates:
 2860              		.loc 1 1475 12 is_stmt 1 view .LVU976
1475:Src/BLDC_controller.c ****       /* Outputs for IfAction SubSystem: '<S49>/Clarke_PhasesBC' incorporates:
 2861              		.loc 1 1475 15 is_stmt 0 view .LVU977
 2862 045c 012B     		cmp	r3, #1
 2863 045e 1CD0     		beq	.L443
1514:Src/BLDC_controller.c **** 
 2864              		.loc 1 1514 7 is_stmt 1 view .LVU978
1514:Src/BLDC_controller.c **** 
 2865              		.loc 1 1514 17 is_stmt 0 view .LVU979
 2866 0460 44F6E712 		movw	r2, #18919
 2867 0464 02FB0AF1 		mul	r1, r2, r10
 2868              	.LVL281:
1517:Src/BLDC_controller.c **** 
 2869              		.loc 1 1517 7 is_stmt 1 view .LVU980
1517:Src/BLDC_controller.c **** 
 2870              		.loc 1 1517 19 is_stmt 0 view .LVU981
 2871 0468 02FB08F2 		mul	r2, r2, r8
 2872              	.LVL282:
1523:Src/BLDC_controller.c ****         (((rtb_Sum1_jt < 0 ? 16383 : 0) + rtb_Sum1_jt) >> 14);
 2873              		.loc 1 1523 7 is_stmt 1 view .LVU982
1523:Src/BLDC_controller.c ****         (((rtb_Sum1_jt < 0 ? 16383 : 0) + rtb_Sum1_jt) >> 14);
 2874              		.loc 1 1523 45 is_stmt 0 view .LVU983
 2875 046c 0029     		cmp	r1, #0
 2876 046e 41DB     		blt	.L444
 2877 0470 0023     		movs	r3, #0
 2878              	.L209:
1523:Src/BLDC_controller.c ****         (((rtb_Sum1_jt < 0 ? 16383 : 0) + rtb_Sum1_jt) >> 14);
 2879              		.loc 1 1523 50 discriminator 4 view .LVU984
 2880 0472 0B44     		add	r3, r3, r1
1523:Src/BLDC_controller.c ****         (((rtb_Sum1_jt < 0 ? 16383 : 0) + rtb_Sum1_jt) >> 14);
 2881              		.loc 1 1523 63 discriminator 4 view .LVU985
 2882 0474 DB13     		asrs	r3, r3, #15
1523:Src/BLDC_controller.c ****         (((rtb_Sum1_jt < 0 ? 16383 : 0) + rtb_Sum1_jt) >> 14);
 2883              		.loc 1 1523 19 discriminator 4 view .LVU986
 2884 0476 5B42     		rsbs	r3, r3, #0
1524:Src/BLDC_controller.c ****       if (rtb_Gain3 > 32767) {
 2885              		.loc 1 1524 36 discriminator 4 view .LVU987
 2886 0478 002A     		cmp	r2, #0
 2887 047a 3EDB     		blt	.L445
1524:Src/BLDC_controller.c ****       if (rtb_Gain3 > 32767) {
 2888              		.loc 1 1524 36 view .LVU988
 2889 047c 4FF00008 		mov	r8, #0
 2890              	.LVL283:
 2891              	.L210:
1524:Src/BLDC_controller.c ****       if (rtb_Gain3 > 32767) {
 2892              		.loc 1 1524 41 discriminator 4 view .LVU989
 2893 0480 9044     		add	r8, r8, r2
ARM GAS  /var/folders/2w/5wbrmvx534s_vk8svtxz852c0000gn/T//cccje1sL.s 			page 83


1523:Src/BLDC_controller.c ****         (((rtb_Sum1_jt < 0 ? 16383 : 0) + rtb_Sum1_jt) >> 14);
 2894              		.loc 1 1523 72 discriminator 4 view .LVU990
 2895 0482 48F38F38 		sbfx	r8, r8, #14, #16
1523:Src/BLDC_controller.c ****         (((rtb_Sum1_jt < 0 ? 16383 : 0) + rtb_Sum1_jt) >> 14);
 2896              		.loc 1 1523 17 discriminator 4 view .LVU991
 2897 0486 A3EB0803 		sub	r3, r3, r8
 2898              	.LVL284:
1525:Src/BLDC_controller.c ****         rtb_Gain3 = 32767;
 2899              		.loc 1 1525 7 is_stmt 1 discriminator 4 view .LVU992
1525:Src/BLDC_controller.c ****         rtb_Gain3 = 32767;
 2900              		.loc 1 1525 10 is_stmt 0 discriminator 4 view .LVU993
 2901 048a B3F5004F 		cmp	r3, #32768
 2902 048e 37DA     		bge	.L372
1528:Src/BLDC_controller.c ****           rtb_Gain3 = -32768;
 2903              		.loc 1 1528 9 is_stmt 1 view .LVU994
1528:Src/BLDC_controller.c ****           rtb_Gain3 = -32768;
 2904              		.loc 1 1528 12 is_stmt 0 view .LVU995
 2905 0490 13F5004F 		cmn	r3, #32768
 2906 0494 36DA     		bge	.L211
1529:Src/BLDC_controller.c ****         }
 2907              		.loc 1 1529 21 view .LVU996
 2908 0496 6E4B     		ldr	r3, .L471+4
 2909              	.LVL285:
1529:Src/BLDC_controller.c ****         }
 2910              		.loc 1 1529 21 view .LVU997
 2911 0498 34E0     		b	.L211
 2912              	.LVL286:
 2913              	.L443:
1480:Src/BLDC_controller.c ****       if (rtb_Gain3 > 32767) {
 2914              		.loc 1 1480 7 is_stmt 1 view .LVU998
1480:Src/BLDC_controller.c ****       if (rtb_Gain3 > 32767) {
 2915              		.loc 1 1480 34 is_stmt 0 view .LVU999
 2916 049a 5346     		mov	r3, r10
 2917 049c 4146     		mov	r1, r8
1480:Src/BLDC_controller.c ****       if (rtb_Gain3 > 32767) {
 2918              		.loc 1 1480 17 view .LVU1000
 2919 049e AAEB0802 		sub	r2, r10, r8
 2920              	.LVL287:
1481:Src/BLDC_controller.c ****         rtb_Gain3 = 32767;
 2921              		.loc 1 1481 7 is_stmt 1 view .LVU1001
1481:Src/BLDC_controller.c ****         rtb_Gain3 = 32767;
 2922              		.loc 1 1481 10 is_stmt 0 view .LVU1002
 2923 04a2 B2F5004F 		cmp	r2, #32768
 2924 04a6 04DA     		bge	.L365
1484:Src/BLDC_controller.c ****           rtb_Gain3 = -32768;
 2925              		.loc 1 1484 9 is_stmt 1 view .LVU1003
1484:Src/BLDC_controller.c ****           rtb_Gain3 = -32768;
 2926              		.loc 1 1484 12 is_stmt 0 view .LVU1004
 2927 04a8 12F5004F 		cmn	r2, #32768
 2928 04ac 03DA     		bge	.L206
1485:Src/BLDC_controller.c ****         }
 2929              		.loc 1 1485 21 view .LVU1005
 2930 04ae 684A     		ldr	r2, .L471+4
 2931              	.LVL288:
1485:Src/BLDC_controller.c ****         }
 2932              		.loc 1 1485 21 view .LVU1006
 2933 04b0 01E0     		b	.L206
ARM GAS  /var/folders/2w/5wbrmvx534s_vk8svtxz852c0000gn/T//cccje1sL.s 			page 84


 2934              	.LVL289:
 2935              	.L365:
1482:Src/BLDC_controller.c ****       } else {
 2936              		.loc 1 1482 19 view .LVU1007
 2937 04b2 47F6FF72 		movw	r2, #32767
 2938              	.LVL290:
 2939              	.L206:
1492:Src/BLDC_controller.c ****       rtb_Merge1 = (int16_T)(((rtb_Gain3 < 0 ? 32767 : 0) + rtb_Gain3) >> 15);
 2940              		.loc 1 1492 7 is_stmt 1 view .LVU1008
1492:Src/BLDC_controller.c ****       rtb_Merge1 = (int16_T)(((rtb_Gain3 < 0 ? 32767 : 0) + rtb_Gain3) >> 15);
 2941              		.loc 1 1492 17 is_stmt 0 view .LVU1009
 2942 04b6 44F6E718 		movw	r8, #18919
 2943              	.LVL291:
1492:Src/BLDC_controller.c ****       rtb_Merge1 = (int16_T)(((rtb_Gain3 < 0 ? 32767 : 0) + rtb_Gain3) >> 15);
 2944              		.loc 1 1492 17 view .LVU1010
 2945 04ba 08FB02F8 		mul	r8, r8, r2
 2946              	.LVL292:
1493:Src/BLDC_controller.c **** 
 2947              		.loc 1 1493 7 is_stmt 1 view .LVU1011
1493:Src/BLDC_controller.c **** 
 2948              		.loc 1 1493 54 is_stmt 0 view .LVU1012
 2949 04be B8F1000F 		cmp	r8, #0
 2950 04c2 0FDB     		blt	.L446
 2951 04c4 0022     		movs	r2, #0
 2952              	.L207:
1493:Src/BLDC_controller.c **** 
 2953              		.loc 1 1493 59 discriminator 4 view .LVU1013
 2954 04c6 9044     		add	r8, r8, r2
 2955              	.LVL293:
1493:Src/BLDC_controller.c **** 
 2956              		.loc 1 1493 18 discriminator 4 view .LVU1014
 2957 04c8 48F3CF38 		sbfx	r8, r8, #15, #16
 2958              	.LVL294:
1496:Src/BLDC_controller.c ****       if (rtb_Gain3 > 32767) {
 2959              		.loc 1 1496 7 is_stmt 1 discriminator 4 view .LVU1015
1496:Src/BLDC_controller.c ****       if (rtb_Gain3 > 32767) {
 2960              		.loc 1 1496 19 is_stmt 0 discriminator 4 view .LVU1016
 2961 04cc C3F1000A 		rsb	r10, r3, #0
 2962              	.LVL295:
1496:Src/BLDC_controller.c ****       if (rtb_Gain3 > 32767) {
 2963              		.loc 1 1496 17 discriminator 4 view .LVU1017
 2964 04d0 AAEB0101 		sub	r1, r10, r1
 2965              	.LVL296:
1497:Src/BLDC_controller.c ****         rtb_Gain3 = 32767;
 2966              		.loc 1 1497 7 is_stmt 1 discriminator 4 view .LVU1018
1497:Src/BLDC_controller.c ****         rtb_Gain3 = 32767;
 2967              		.loc 1 1497 10 is_stmt 0 discriminator 4 view .LVU1019
 2968 04d4 B1F5004F 		cmp	r1, #32768
 2969 04d8 07DA     		bge	.L368
1500:Src/BLDC_controller.c ****           rtb_Gain3 = -32768;
 2970              		.loc 1 1500 9 is_stmt 1 view .LVU1020
1500:Src/BLDC_controller.c ****           rtb_Gain3 = -32768;
 2971              		.loc 1 1500 12 is_stmt 0 view .LVU1021
 2972 04da 11F5004F 		cmn	r1, #32768
 2973 04de 06DA     		bge	.L208
1501:Src/BLDC_controller.c ****         }
 2974              		.loc 1 1501 21 view .LVU1022
ARM GAS  /var/folders/2w/5wbrmvx534s_vk8svtxz852c0000gn/T//cccje1sL.s 			page 85


 2975 04e0 5B49     		ldr	r1, .L471+4
 2976              	.LVL297:
1501:Src/BLDC_controller.c ****         }
 2977              		.loc 1 1501 21 view .LVU1023
 2978 04e2 04E0     		b	.L208
 2979              	.LVL298:
 2980              	.L446:
1493:Src/BLDC_controller.c **** 
 2981              		.loc 1 1493 54 view .LVU1024
 2982 04e4 47F6FF72 		movw	r2, #32767
 2983 04e8 EDE7     		b	.L207
 2984              	.LVL299:
 2985              	.L368:
1498:Src/BLDC_controller.c ****       } else {
 2986              		.loc 1 1498 19 view .LVU1025
 2987 04ea 47F6FF71 		movw	r1, #32767
 2988              	.LVL300:
 2989              	.L208:
1505:Src/BLDC_controller.c **** 
 2990              		.loc 1 1505 7 is_stmt 1 view .LVU1026
1505:Src/BLDC_controller.c **** 
 2991              		.loc 1 1505 22 is_stmt 0 view .LVU1027
 2992 04ee 0FFA81FA 		sxth	r10, r1
 2993              	.LVL301:
1505:Src/BLDC_controller.c **** 
 2994              		.loc 1 1505 22 view .LVU1028
 2995 04f2 70E7     		b	.L204
 2996              	.LVL302:
 2997              	.L444:
1523:Src/BLDC_controller.c ****         (((rtb_Sum1_jt < 0 ? 16383 : 0) + rtb_Sum1_jt) >> 14);
 2998              		.loc 1 1523 45 view .LVU1029
 2999 04f4 47F6FF73 		movw	r3, #32767
 3000 04f8 BBE7     		b	.L209
 3001              	.L445:
1524:Src/BLDC_controller.c ****       if (rtb_Gain3 > 32767) {
 3002              		.loc 1 1524 36 view .LVU1030
 3003 04fa 43F6FF78 		movw	r8, #16383
 3004              	.LVL303:
1524:Src/BLDC_controller.c ****       if (rtb_Gain3 > 32767) {
 3005              		.loc 1 1524 36 view .LVU1031
 3006 04fe BFE7     		b	.L210
 3007              	.LVL304:
 3008              	.L372:
1526:Src/BLDC_controller.c ****       } else {
 3009              		.loc 1 1526 19 view .LVU1032
 3010 0500 47F6FF73 		movw	r3, #32767
 3011              	.LVL305:
 3012              	.L211:
1533:Src/BLDC_controller.c **** 
 3013              		.loc 1 1533 7 is_stmt 1 view .LVU1033
1533:Src/BLDC_controller.c **** 
 3014              		.loc 1 1533 18 is_stmt 0 view .LVU1034
 3015 0504 0FFA83F8 		sxth	r8, r3
 3016              	.LVL306:
1533:Src/BLDC_controller.c **** 
 3017              		.loc 1 1533 18 view .LVU1035
 3018 0508 65E7     		b	.L204
ARM GAS  /var/folders/2w/5wbrmvx534s_vk8svtxz852c0000gn/T//cccje1sL.s 			page 86


 3019              	.LVL307:
 3020              	.L442:
1581:Src/BLDC_controller.c **** 
 3021              		.loc 1 1581 9 is_stmt 1 view .LVU1036
 3022 050a 04F13800 		add	r0, r4, #56
 3023 050e FFF7FEFF 		bl	Low_Pass_Filter_Reset
 3024              	.LVL308:
1581:Src/BLDC_controller.c **** 
 3025              		.loc 1 1581 9 is_stmt 0 view .LVU1037
 3026 0512 8AE7     		b	.L214
 3027              	.LVL309:
 3028              	.L374:
1595:Src/BLDC_controller.c ****       } else {
 3029              		.loc 1 1595 19 view .LVU1038
 3030 0514 47F6FF78 		movw	r8, #32767
 3031              	.LVL310:
 3032              	.L215:
1599:Src/BLDC_controller.c ****         }
1600:Src/BLDC_controller.c ****       }
1601:Src/BLDC_controller.c **** 
1602:Src/BLDC_controller.c ****       /* Outputs for IfAction SubSystem: '<S45>/Current_Filtering' incorporates:
1603:Src/BLDC_controller.c ****        *  ActionPort: '<S50>/Action Port'
1604:Src/BLDC_controller.c ****        */
1605:Src/BLDC_controller.c ****       /* SignalConversion: '<S50>/TmpSignal ConversionAtLow_Pass_FilterInport1' incorporates:
1606:Src/BLDC_controller.c ****        *  Sum: '<S51>/Sum6'
1607:Src/BLDC_controller.c ****        */
1608:Src/BLDC_controller.c ****       rtb_TmpSignalConversionAtLow_Pa[0] = (int16_T)rtb_Gain3;
 3033              		.loc 1 1608 7 is_stmt 1 view .LVU1039
 3034              		.loc 1 1608 42 is_stmt 0 view .LVU1040
 3035 0518 ADF84880 		strh	r8, [sp, #72]	@ movhi
1609:Src/BLDC_controller.c **** 
1610:Src/BLDC_controller.c ****       /* End of Outputs for SubSystem: '<S45>/Current_Filtering' */
1611:Src/BLDC_controller.c **** 
1612:Src/BLDC_controller.c ****       /* Sum: '<S51>/Sum1' incorporates:
1613:Src/BLDC_controller.c ****        *  Product: '<S51>/Divide2'
1614:Src/BLDC_controller.c ****        *  Product: '<S51>/Divide3'
1615:Src/BLDC_controller.c ****        */
1616:Src/BLDC_controller.c ****       rtb_Gain3 = (int16_T)((rtb_Saturation * rtDW->r_cos_M1) >> 14) + (int16_T)
 3036              		.loc 1 1616 7 is_stmt 1 view .LVU1041
 3037              		.loc 1 1616 45 is_stmt 0 view .LVU1042
 3038 051c 00FB03F3 		mul	r3, r0, r3
 3039              		.loc 1 1616 19 view .LVU1043
 3040 0520 43F38F33 		sbfx	r3, r3, #14, #16
1617:Src/BLDC_controller.c ****         ((rtb_Merge1 * rtDW->r_sin_M1) >> 14);
 3041              		.loc 1 1617 22 view .LVU1044
 3042 0524 01FB02F2 		mul	r2, r1, r2
1616:Src/BLDC_controller.c ****         ((rtb_Merge1 * rtDW->r_sin_M1) >> 14);
 3043              		.loc 1 1616 72 view .LVU1045
 3044 0528 42F38F32 		sbfx	r2, r2, #14, #16
1616:Src/BLDC_controller.c ****         ((rtb_Merge1 * rtDW->r_sin_M1) >> 14);
 3045              		.loc 1 1616 17 view .LVU1046
 3046 052c 1344     		add	r3, r3, r2
 3047              	.LVL311:
1618:Src/BLDC_controller.c ****       if (rtb_Gain3 > 32767) {
 3048              		.loc 1 1618 7 is_stmt 1 view .LVU1047
 3049              		.loc 1 1618 10 is_stmt 0 view .LVU1048
 3050 052e B3F5004F 		cmp	r3, #32768
