ARM GAS  /var/folders/2w/5wbrmvx534s_vk8svtxz852c0000gn/T//ccMMOFI5.s 			page 1


   1              		.cpu cortex-m3
   2              		.arch armv7-m
   3              		.fpu softvfp
   4              		.eabi_attribute 20, 1
   5              		.eabi_attribute 21, 1
   6              		.eabi_attribute 23, 3
   7              		.eabi_attribute 24, 1
   8              		.eabi_attribute 25, 1
   9              		.eabi_attribute 26, 1
  10              		.eabi_attribute 30, 1
  11              		.eabi_attribute 34, 1
  12              		.eabi_attribute 18, 4
  13              		.file	"eeprom.c"
  14              		.text
  15              	.Ltext0:
  16              		.cfi_sections	.debug_frame
  17              		.section	.text.EE_VerifyPageFullyErased,"ax",%progbits
  18              		.align	1
  19              		.syntax unified
  20              		.thumb
  21              		.thumb_func
  23              	EE_VerifyPageFullyErased:
  24              	.LVL0:
  25              	.LFB67:
  26              		.file 1 "Src/eeprom.c"
   1:Src/eeprom.c  **** /**
   2:Src/eeprom.c  ****   ******************************************************************************
   3:Src/eeprom.c  ****   * @file    EEPROM_Emulation/src/eeprom.c
   4:Src/eeprom.c  ****   * @author  MCD Application Team
   5:Src/eeprom.c  ****   * @version V1.3.0
   6:Src/eeprom.c  ****   * @date    18-December-2015
   7:Src/eeprom.c  ****   * @brief   This file provides all the EEPROM emulation firmware functions.
   8:Src/eeprom.c  ****   ******************************************************************************
   9:Src/eeprom.c  ****   * @attention
  10:Src/eeprom.c  ****   *
  11:Src/eeprom.c  ****   * <h2><center>&copy; COPYRIGHT(c) 2015 STMicroelectronics</center></h2>
  12:Src/eeprom.c  ****   *
  13:Src/eeprom.c  ****   * Redistribution and use in source and binary forms, with or without modification,
  14:Src/eeprom.c  ****   * are permitted provided that the following conditions are met:
  15:Src/eeprom.c  ****   *   1. Redistributions of source code must retain the above copyright notice,
  16:Src/eeprom.c  ****   *      this list of conditions and the following disclaimer.
  17:Src/eeprom.c  ****   *   2. Redistributions in binary form must reproduce the above copyright notice,
  18:Src/eeprom.c  ****   *      this list of conditions and the following disclaimer in the documentation
  19:Src/eeprom.c  ****   *      and/or other materials provided with the distribution.
  20:Src/eeprom.c  ****   *   3. Neither the name of STMicroelectronics nor the names of its contributors
  21:Src/eeprom.c  ****   *      may be used to endorse or promote products derived from this software
  22:Src/eeprom.c  ****   *      without specific prior written permission.
  23:Src/eeprom.c  ****   *
  24:Src/eeprom.c  ****   * THIS SOFTWARE IS PROVIDED BY THE COPYRIGHT HOLDERS AND CONTRIBUTORS "AS IS"
  25:Src/eeprom.c  ****   * AND ANY EXPRESS OR IMPLIED WARRANTIES, INCLUDING, BUT NOT LIMITED TO, THE
  26:Src/eeprom.c  ****   * IMPLIED WARRANTIES OF MERCHANTABILITY AND FITNESS FOR A PARTICULAR PURPOSE ARE
  27:Src/eeprom.c  ****   * DISCLAIMED. IN NO EVENT SHALL THE COPYRIGHT HOLDER OR CONTRIBUTORS BE LIABLE
  28:Src/eeprom.c  ****   * FOR ANY DIRECT, INDIRECT, INCIDENTAL, SPECIAL, EXEMPLARY, OR CONSEQUENTIAL
  29:Src/eeprom.c  ****   * DAMAGES (INCLUDING, BUT NOT LIMITED TO, PROCUREMENT OF SUBSTITUTE GOODS OR
  30:Src/eeprom.c  ****   * SERVICES; LOSS OF USE, DATA, OR PROFITS; OR BUSINESS INTERRUPTION) HOWEVER
  31:Src/eeprom.c  ****   * CAUSED AND ON ANY THEORY OF LIABILITY, WHETHER IN CONTRACT, STRICT LIABILITY,
  32:Src/eeprom.c  ****   * OR TORT (INCLUDING NEGLIGENCE OR OTHERWISE) ARISING IN ANY WAY OUT OF THE USE
ARM GAS  /var/folders/2w/5wbrmvx534s_vk8svtxz852c0000gn/T//ccMMOFI5.s 			page 2


  33:Src/eeprom.c  ****   * OF THIS SOFTWARE, EVEN IF ADVISED OF THE POSSIBILITY OF SUCH DAMAGE.
  34:Src/eeprom.c  ****   *
  35:Src/eeprom.c  ****   ******************************************************************************
  36:Src/eeprom.c  ****   */
  37:Src/eeprom.c  **** 
  38:Src/eeprom.c  **** /** @addtogroup EEPROM_Emulation
  39:Src/eeprom.c  ****   * @{
  40:Src/eeprom.c  ****   */
  41:Src/eeprom.c  **** 
  42:Src/eeprom.c  **** /* Includes ------------------------------------------------------------------*/
  43:Src/eeprom.c  **** #include "eeprom.h"
  44:Src/eeprom.c  **** 
  45:Src/eeprom.c  **** /* Private typedef -----------------------------------------------------------*/
  46:Src/eeprom.c  **** /* Private define ------------------------------------------------------------*/
  47:Src/eeprom.c  **** /* Private macro -------------------------------------------------------------*/
  48:Src/eeprom.c  **** /* Private variables ---------------------------------------------------------*/
  49:Src/eeprom.c  **** 
  50:Src/eeprom.c  **** /* Global variable used to store variable value in read sequence */
  51:Src/eeprom.c  **** uint16_t DataVar = 0;
  52:Src/eeprom.c  **** 
  53:Src/eeprom.c  **** /* Virtual address defined by the user: 0xFFFF value is prohibited */
  54:Src/eeprom.c  **** extern uint16_t VirtAddVarTab[NB_OF_VAR];
  55:Src/eeprom.c  **** 
  56:Src/eeprom.c  **** /* Private function prototypes -----------------------------------------------*/
  57:Src/eeprom.c  **** /* Private functions ---------------------------------------------------------*/
  58:Src/eeprom.c  **** static HAL_StatusTypeDef EE_Format(void);
  59:Src/eeprom.c  **** static uint16_t EE_FindValidPage(uint8_t Operation);
  60:Src/eeprom.c  **** static uint16_t EE_VerifyPageFullWriteVariable(uint16_t VirtAddress, uint16_t Data);
  61:Src/eeprom.c  **** static uint16_t EE_PageTransfer(uint16_t VirtAddress, uint16_t Data);
  62:Src/eeprom.c  **** static uint16_t EE_VerifyPageFullyErased(uint32_t Address);
  63:Src/eeprom.c  **** 
  64:Src/eeprom.c  **** /**
  65:Src/eeprom.c  ****   * @brief  Restore the pages to a known good state in case of page's status
  66:Src/eeprom.c  ****   *   corruption after a power loss.
  67:Src/eeprom.c  ****   * @param  None.
  68:Src/eeprom.c  ****   * @retval - Flash error code: on write Flash error
  69:Src/eeprom.c  ****   *         - FLASH_COMPLETE: on success
  70:Src/eeprom.c  ****   */
  71:Src/eeprom.c  **** uint16_t EE_Init(void)
  72:Src/eeprom.c  **** {
  73:Src/eeprom.c  ****   uint16_t pagestatus0 = 6, pagestatus1 = 6;
  74:Src/eeprom.c  ****   uint16_t varidx = 0;
  75:Src/eeprom.c  ****   uint16_t eepromstatus = 0, readstatus = 0;
  76:Src/eeprom.c  ****   int16_t x = -1;
  77:Src/eeprom.c  ****   HAL_StatusTypeDef  flashstatus;
  78:Src/eeprom.c  ****   uint32_t page_error = 0;
  79:Src/eeprom.c  ****   FLASH_EraseInitTypeDef s_eraseinit;
  80:Src/eeprom.c  **** 
  81:Src/eeprom.c  **** 
  82:Src/eeprom.c  ****   /* Get Page0 status */
  83:Src/eeprom.c  ****   pagestatus0 = (*(__IO uint16_t*)PAGE0_BASE_ADDRESS);
  84:Src/eeprom.c  ****   /* Get Page1 status */
  85:Src/eeprom.c  ****   pagestatus1 = (*(__IO uint16_t*)PAGE1_BASE_ADDRESS);
  86:Src/eeprom.c  **** 
  87:Src/eeprom.c  ****   /* Fill EraseInit structure*/
  88:Src/eeprom.c  ****   s_eraseinit.TypeErase   = FLASH_TYPEERASE_PAGES;
  89:Src/eeprom.c  ****   s_eraseinit.PageAddress = PAGE0_ID;
ARM GAS  /var/folders/2w/5wbrmvx534s_vk8svtxz852c0000gn/T//ccMMOFI5.s 			page 3


  90:Src/eeprom.c  ****   s_eraseinit.NbPages     = 1;
  91:Src/eeprom.c  **** 
  92:Src/eeprom.c  ****   /* Check for invalid header states and repair if necessary */
  93:Src/eeprom.c  ****   switch (pagestatus0)
  94:Src/eeprom.c  ****   {
  95:Src/eeprom.c  ****     case ERASED:
  96:Src/eeprom.c  ****       if (pagestatus1 == VALID_PAGE) /* Page0 erased, Page1 valid */
  97:Src/eeprom.c  ****       {
  98:Src/eeprom.c  ****           /* Erase Page0 */
  99:Src/eeprom.c  ****         if(!EE_VerifyPageFullyErased(PAGE0_BASE_ADDRESS))
 100:Src/eeprom.c  ****         {
 101:Src/eeprom.c  ****           flashstatus = HAL_FLASHEx_Erase(&s_eraseinit, &page_error);
 102:Src/eeprom.c  ****           /* If erase operation was failed, a Flash error code is returned */
 103:Src/eeprom.c  ****           if (flashstatus != HAL_OK)
 104:Src/eeprom.c  ****           {
 105:Src/eeprom.c  ****             return flashstatus;
 106:Src/eeprom.c  ****           }
 107:Src/eeprom.c  ****         }
 108:Src/eeprom.c  ****       }
 109:Src/eeprom.c  ****       else if (pagestatus1 == RECEIVE_DATA) /* Page0 erased, Page1 receive */
 110:Src/eeprom.c  ****       {
 111:Src/eeprom.c  ****         /* Erase Page0 */
 112:Src/eeprom.c  ****         if(!EE_VerifyPageFullyErased(PAGE0_BASE_ADDRESS))
 113:Src/eeprom.c  ****         {
 114:Src/eeprom.c  ****           flashstatus = HAL_FLASHEx_Erase(&s_eraseinit, &page_error);
 115:Src/eeprom.c  ****           /* If erase operation was failed, a Flash error code is returned */
 116:Src/eeprom.c  ****           if (flashstatus != HAL_OK)
 117:Src/eeprom.c  ****           {
 118:Src/eeprom.c  ****             return flashstatus;
 119:Src/eeprom.c  ****           }
 120:Src/eeprom.c  ****         }
 121:Src/eeprom.c  ****         /* Mark Page1 as valid */
 122:Src/eeprom.c  ****         flashstatus = HAL_FLASH_Program(FLASH_TYPEPROGRAM_HALFWORD, PAGE1_BASE_ADDRESS, VALID_PAGE)
 123:Src/eeprom.c  ****         /* If program operation was failed, a Flash error code is returned */
 124:Src/eeprom.c  ****         if (flashstatus != HAL_OK)
 125:Src/eeprom.c  ****         {
 126:Src/eeprom.c  ****           return flashstatus;
 127:Src/eeprom.c  ****         }
 128:Src/eeprom.c  ****       }
 129:Src/eeprom.c  ****       else /* First EEPROM access (Page0&1 are erased) or invalid state -> format EEPROM */
 130:Src/eeprom.c  ****       {
 131:Src/eeprom.c  ****         /* Erase both Page0 and Page1 and set Page0 as valid page */
 132:Src/eeprom.c  ****         flashstatus = EE_Format();
 133:Src/eeprom.c  ****         /* If erase/program operation was failed, a Flash error code is returned */
 134:Src/eeprom.c  ****         if (flashstatus != HAL_OK)
 135:Src/eeprom.c  ****         {
 136:Src/eeprom.c  ****           return flashstatus;
 137:Src/eeprom.c  ****         }
 138:Src/eeprom.c  ****       }
 139:Src/eeprom.c  ****       break;
 140:Src/eeprom.c  **** 
 141:Src/eeprom.c  ****     case RECEIVE_DATA:
 142:Src/eeprom.c  ****       if (pagestatus1 == VALID_PAGE) /* Page0 receive, Page1 valid */
 143:Src/eeprom.c  ****       {
 144:Src/eeprom.c  ****         /* Transfer data from Page1 to Page0 */
 145:Src/eeprom.c  ****         for (varidx = 0; varidx < NB_OF_VAR; varidx++)
 146:Src/eeprom.c  ****         {
ARM GAS  /var/folders/2w/5wbrmvx534s_vk8svtxz852c0000gn/T//ccMMOFI5.s 			page 4


 147:Src/eeprom.c  ****           if (( *(__IO uint16_t*)(PAGE0_BASE_ADDRESS + 6)) == VirtAddVarTab[varidx])
 148:Src/eeprom.c  ****           {
 149:Src/eeprom.c  ****             x = varidx;
 150:Src/eeprom.c  ****           }
 151:Src/eeprom.c  ****           if (varidx != x)
 152:Src/eeprom.c  ****           {
 153:Src/eeprom.c  ****             /* Read the last variables' updates */
 154:Src/eeprom.c  ****             readstatus = EE_ReadVariable(VirtAddVarTab[varidx], &DataVar);
 155:Src/eeprom.c  ****             /* In case variable corresponding to the virtual address was found */
 156:Src/eeprom.c  ****             if (readstatus != 0x1)
 157:Src/eeprom.c  ****             {
 158:Src/eeprom.c  ****               /* Transfer the variable to the Page0 */
 159:Src/eeprom.c  ****               eepromstatus = EE_VerifyPageFullWriteVariable(VirtAddVarTab[varidx], DataVar);
 160:Src/eeprom.c  ****               /* If program operation was failed, a Flash error code is returned */
 161:Src/eeprom.c  ****               if (eepromstatus != HAL_OK)
 162:Src/eeprom.c  ****               {
 163:Src/eeprom.c  ****                 return eepromstatus;
 164:Src/eeprom.c  ****               }
 165:Src/eeprom.c  ****             }
 166:Src/eeprom.c  ****           }
 167:Src/eeprom.c  ****         }
 168:Src/eeprom.c  ****         /* Mark Page0 as valid */
 169:Src/eeprom.c  ****         flashstatus = HAL_FLASH_Program(FLASH_TYPEPROGRAM_HALFWORD, PAGE0_BASE_ADDRESS, VALID_PAGE)
 170:Src/eeprom.c  ****         /* If program operation was failed, a Flash error code is returned */
 171:Src/eeprom.c  ****         if (flashstatus != HAL_OK)
 172:Src/eeprom.c  ****         {
 173:Src/eeprom.c  ****           return flashstatus;
 174:Src/eeprom.c  ****         }
 175:Src/eeprom.c  ****         s_eraseinit.TypeErase   = FLASH_TYPEERASE_PAGES;
 176:Src/eeprom.c  ****         s_eraseinit.PageAddress = PAGE1_ID;
 177:Src/eeprom.c  ****         s_eraseinit.NbPages     = 1;
 178:Src/eeprom.c  ****         /* Erase Page1 */
 179:Src/eeprom.c  ****         if(!EE_VerifyPageFullyErased(PAGE1_BASE_ADDRESS))
 180:Src/eeprom.c  ****         {
 181:Src/eeprom.c  ****           flashstatus = HAL_FLASHEx_Erase(&s_eraseinit, &page_error);
 182:Src/eeprom.c  ****           /* If erase operation was failed, a Flash error code is returned */
 183:Src/eeprom.c  ****           if (flashstatus != HAL_OK)
 184:Src/eeprom.c  ****           {
 185:Src/eeprom.c  ****             return flashstatus;
 186:Src/eeprom.c  ****           }
 187:Src/eeprom.c  ****         }
 188:Src/eeprom.c  ****       }
 189:Src/eeprom.c  ****       else if (pagestatus1 == ERASED) /* Page0 receive, Page1 erased */
 190:Src/eeprom.c  ****       {
 191:Src/eeprom.c  ****         s_eraseinit.TypeErase   = FLASH_TYPEERASE_PAGES;
 192:Src/eeprom.c  ****         s_eraseinit.PageAddress = PAGE1_ID;
 193:Src/eeprom.c  ****         s_eraseinit.NbPages     = 1;
 194:Src/eeprom.c  ****         /* Erase Page1 */
 195:Src/eeprom.c  ****         if(!EE_VerifyPageFullyErased(PAGE1_BASE_ADDRESS))
 196:Src/eeprom.c  ****         {
 197:Src/eeprom.c  ****           flashstatus = HAL_FLASHEx_Erase(&s_eraseinit, &page_error);
 198:Src/eeprom.c  ****           /* If erase operation was failed, a Flash error code is returned */
 199:Src/eeprom.c  ****           if (flashstatus != HAL_OK)
 200:Src/eeprom.c  ****           {
 201:Src/eeprom.c  ****             return flashstatus;
 202:Src/eeprom.c  ****           }
 203:Src/eeprom.c  ****         }
ARM GAS  /var/folders/2w/5wbrmvx534s_vk8svtxz852c0000gn/T//ccMMOFI5.s 			page 5


 204:Src/eeprom.c  ****         /* Mark Page0 as valid */
 205:Src/eeprom.c  ****         flashstatus = HAL_FLASH_Program(FLASH_TYPEPROGRAM_HALFWORD, PAGE0_BASE_ADDRESS, VALID_PAGE)
 206:Src/eeprom.c  ****         /* If program operation was failed, a Flash error code is returned */
 207:Src/eeprom.c  ****         if (flashstatus != HAL_OK)
 208:Src/eeprom.c  ****         {
 209:Src/eeprom.c  ****           return flashstatus;
 210:Src/eeprom.c  ****         }
 211:Src/eeprom.c  ****       }
 212:Src/eeprom.c  ****       else /* Invalid state -> format eeprom */
 213:Src/eeprom.c  ****       {
 214:Src/eeprom.c  ****         /* Erase both Page0 and Page1 and set Page0 as valid page */
 215:Src/eeprom.c  ****         flashstatus = EE_Format();
 216:Src/eeprom.c  ****         /* If erase/program operation was failed, a Flash error code is returned */
 217:Src/eeprom.c  ****         if (flashstatus != HAL_OK)
 218:Src/eeprom.c  ****         {
 219:Src/eeprom.c  ****           return flashstatus;
 220:Src/eeprom.c  ****         }
 221:Src/eeprom.c  ****       }
 222:Src/eeprom.c  ****       break;
 223:Src/eeprom.c  **** 
 224:Src/eeprom.c  ****     case VALID_PAGE:
 225:Src/eeprom.c  ****       if (pagestatus1 == VALID_PAGE) /* Invalid state -> format eeprom */
 226:Src/eeprom.c  ****       {
 227:Src/eeprom.c  ****         /* Erase both Page0 and Page1 and set Page0 as valid page */
 228:Src/eeprom.c  ****         flashstatus = EE_Format();
 229:Src/eeprom.c  ****         /* If erase/program operation was failed, a Flash error code is returned */
 230:Src/eeprom.c  ****         if (flashstatus != HAL_OK)
 231:Src/eeprom.c  ****         {
 232:Src/eeprom.c  ****           return flashstatus;
 233:Src/eeprom.c  ****         }
 234:Src/eeprom.c  ****       }
 235:Src/eeprom.c  ****       else if (pagestatus1 == ERASED) /* Page0 valid, Page1 erased */
 236:Src/eeprom.c  ****       {
 237:Src/eeprom.c  ****         s_eraseinit.TypeErase   = FLASH_TYPEERASE_PAGES;
 238:Src/eeprom.c  ****         s_eraseinit.PageAddress = PAGE1_ID;
 239:Src/eeprom.c  ****         s_eraseinit.NbPages     = 1;
 240:Src/eeprom.c  ****         /* Erase Page1 */
 241:Src/eeprom.c  ****         if(!EE_VerifyPageFullyErased(PAGE1_BASE_ADDRESS))
 242:Src/eeprom.c  ****         {
 243:Src/eeprom.c  ****           flashstatus = HAL_FLASHEx_Erase(&s_eraseinit, &page_error);
 244:Src/eeprom.c  ****           /* If erase operation was failed, a Flash error code is returned */
 245:Src/eeprom.c  ****           if (flashstatus != HAL_OK)
 246:Src/eeprom.c  ****           {
 247:Src/eeprom.c  ****             return flashstatus;
 248:Src/eeprom.c  ****           }
 249:Src/eeprom.c  ****         }
 250:Src/eeprom.c  ****       }
 251:Src/eeprom.c  ****       else /* Page0 valid, Page1 receive */
 252:Src/eeprom.c  ****       {
 253:Src/eeprom.c  ****         /* Transfer data from Page0 to Page1 */
 254:Src/eeprom.c  ****         for (varidx = 0; varidx < NB_OF_VAR; varidx++)
 255:Src/eeprom.c  ****         {
 256:Src/eeprom.c  ****           if ((*(__IO uint16_t*)(PAGE1_BASE_ADDRESS + 6)) == VirtAddVarTab[varidx])
 257:Src/eeprom.c  ****           {
 258:Src/eeprom.c  ****             x = varidx;
 259:Src/eeprom.c  ****           }
 260:Src/eeprom.c  ****           if (varidx != x)
ARM GAS  /var/folders/2w/5wbrmvx534s_vk8svtxz852c0000gn/T//ccMMOFI5.s 			page 6


 261:Src/eeprom.c  ****           {
 262:Src/eeprom.c  ****             /* Read the last variables' updates */
 263:Src/eeprom.c  ****             readstatus = EE_ReadVariable(VirtAddVarTab[varidx], &DataVar);
 264:Src/eeprom.c  ****             /* In case variable corresponding to the virtual address was found */
 265:Src/eeprom.c  ****             if (readstatus != 0x1)
 266:Src/eeprom.c  ****             {
 267:Src/eeprom.c  ****               /* Transfer the variable to the Page1 */
 268:Src/eeprom.c  ****               eepromstatus = EE_VerifyPageFullWriteVariable(VirtAddVarTab[varidx], DataVar);
 269:Src/eeprom.c  ****               /* If program operation was failed, a Flash error code is returned */
 270:Src/eeprom.c  ****               if (eepromstatus != HAL_OK)
 271:Src/eeprom.c  ****               {
 272:Src/eeprom.c  ****                 return eepromstatus;
 273:Src/eeprom.c  ****               }
 274:Src/eeprom.c  ****             }
 275:Src/eeprom.c  ****           }
 276:Src/eeprom.c  ****         }
 277:Src/eeprom.c  ****         /* Mark Page1 as valid */
 278:Src/eeprom.c  ****         flashstatus = HAL_FLASH_Program(FLASH_TYPEPROGRAM_HALFWORD, PAGE1_BASE_ADDRESS, VALID_PAGE)
 279:Src/eeprom.c  ****         /* If program operation was failed, a Flash error code is returned */
 280:Src/eeprom.c  ****         if (flashstatus != HAL_OK)
 281:Src/eeprom.c  ****         {
 282:Src/eeprom.c  ****           return flashstatus;
 283:Src/eeprom.c  ****         }
 284:Src/eeprom.c  ****         s_eraseinit.TypeErase   = FLASH_TYPEERASE_PAGES;
 285:Src/eeprom.c  ****         s_eraseinit.PageAddress = PAGE0_ID;
 286:Src/eeprom.c  ****         s_eraseinit.NbPages     = 1;
 287:Src/eeprom.c  ****         /* Erase Page0 */
 288:Src/eeprom.c  ****         if(!EE_VerifyPageFullyErased(PAGE0_BASE_ADDRESS))
 289:Src/eeprom.c  ****         {
 290:Src/eeprom.c  ****           flashstatus = HAL_FLASHEx_Erase(&s_eraseinit, &page_error);
 291:Src/eeprom.c  ****           /* If erase operation was failed, a Flash error code is returned */
 292:Src/eeprom.c  ****           if (flashstatus != HAL_OK)
 293:Src/eeprom.c  ****           {
 294:Src/eeprom.c  ****             return flashstatus;
 295:Src/eeprom.c  ****           }
 296:Src/eeprom.c  ****         }
 297:Src/eeprom.c  ****       }
 298:Src/eeprom.c  ****       break;
 299:Src/eeprom.c  **** 
 300:Src/eeprom.c  ****     default:  /* Any other state -> format eeprom */
 301:Src/eeprom.c  ****       /* Erase both Page0 and Page1 and set Page0 as valid page */
 302:Src/eeprom.c  ****       flashstatus = EE_Format();
 303:Src/eeprom.c  ****       /* If erase/program operation was failed, a Flash error code is returned */
 304:Src/eeprom.c  ****       if (flashstatus != HAL_OK)
 305:Src/eeprom.c  ****       {
 306:Src/eeprom.c  ****         return flashstatus;
 307:Src/eeprom.c  ****       }
 308:Src/eeprom.c  ****       break;
 309:Src/eeprom.c  ****   }
 310:Src/eeprom.c  **** 
 311:Src/eeprom.c  ****   return HAL_OK;
 312:Src/eeprom.c  **** }
 313:Src/eeprom.c  **** 
 314:Src/eeprom.c  **** /**
 315:Src/eeprom.c  ****   * @brief  Verify if specified page is fully erased.
 316:Src/eeprom.c  ****   * @param  Address: page address
 317:Src/eeprom.c  ****   *   This parameter can be one of the following values:
ARM GAS  /var/folders/2w/5wbrmvx534s_vk8svtxz852c0000gn/T//ccMMOFI5.s 			page 7


 318:Src/eeprom.c  ****   *     @arg PAGE0_BASE_ADDRESS: Page0 base address
 319:Src/eeprom.c  ****   *     @arg PAGE1_BASE_ADDRESS: Page1 base address
 320:Src/eeprom.c  ****   * @retval page fully erased status:
 321:Src/eeprom.c  ****   *           - 0: if Page not erased
 322:Src/eeprom.c  ****   *           - 1: if Page erased
 323:Src/eeprom.c  ****   */
 324:Src/eeprom.c  **** uint16_t EE_VerifyPageFullyErased(uint32_t Address)
 325:Src/eeprom.c  **** {
  27              		.loc 1 325 1 view -0
  28              		.cfi_startproc
  29              		@ args = 0, pretend = 0, frame = 0
  30              		@ frame_needed = 0, uses_anonymous_args = 0
  31              		@ link register save eliminated.
 326:Src/eeprom.c  ****   uint32_t readstatus = 1;
  32              		.loc 1 326 3 view .LVU1
 327:Src/eeprom.c  ****   uint16_t addressvalue = 0x5555;
  33              		.loc 1 327 3 view .LVU2
 328:Src/eeprom.c  **** 
 329:Src/eeprom.c  ****   /* Check each active page address starting from end */
 330:Src/eeprom.c  ****   while (Address <= PAGE0_END_ADDRESS)
  34              		.loc 1 330 3 view .LVU3
  35              		.loc 1 330 9 is_stmt 0 view .LVU4
  36 0000 00E0     		b	.L2
  37              	.LVL1:
  38              	.L7:
 331:Src/eeprom.c  ****   {
 332:Src/eeprom.c  ****     /* Get the current location content to be compared with virtual address */
 333:Src/eeprom.c  ****     addressvalue = (*(__IO uint16_t*)Address);
 334:Src/eeprom.c  **** 
 335:Src/eeprom.c  ****     /* Compare the read address with the virtual address */
 336:Src/eeprom.c  ****     if (addressvalue != ERASED)
 337:Src/eeprom.c  ****     {
 338:Src/eeprom.c  **** 
 339:Src/eeprom.c  ****       /* In case variable value is read, reset readstatus flag */
 340:Src/eeprom.c  ****       readstatus = 0;
 341:Src/eeprom.c  **** 
 342:Src/eeprom.c  ****       break;
 343:Src/eeprom.c  ****     }
 344:Src/eeprom.c  ****     /* Next address location */
 345:Src/eeprom.c  ****     Address = Address + 4;
  39              		.loc 1 345 5 is_stmt 1 view .LVU5
  40              		.loc 1 345 13 is_stmt 0 view .LVU6
  41 0002 0430     		adds	r0, r0, #4
  42              	.LVL2:
  43              	.L2:
 330:Src/eeprom.c  ****   {
  44              		.loc 1 330 9 is_stmt 1 view .LVU7
  45 0004 064B     		ldr	r3, .L8
  46 0006 9842     		cmp	r0, r3
  47 0008 07D2     		bcs	.L6
 333:Src/eeprom.c  **** 
  48              		.loc 1 333 5 view .LVU8
 333:Src/eeprom.c  **** 
  49              		.loc 1 333 18 is_stmt 0 view .LVU9
  50 000a 0388     		ldrh	r3, [r0]
  51 000c 9BB2     		uxth	r3, r3
  52              	.LVL3:
ARM GAS  /var/folders/2w/5wbrmvx534s_vk8svtxz852c0000gn/T//ccMMOFI5.s 			page 8


 336:Src/eeprom.c  ****     {
  53              		.loc 1 336 5 is_stmt 1 view .LVU10
 336:Src/eeprom.c  ****     {
  54              		.loc 1 336 8 is_stmt 0 view .LVU11
  55 000e 4FF6FF72 		movw	r2, #65535
  56 0012 9342     		cmp	r3, r2
  57 0014 F5D0     		beq	.L7
 340:Src/eeprom.c  **** 
  58              		.loc 1 340 18 view .LVU12
  59 0016 0020     		movs	r0, #0
  60              	.LVL4:
 346:Src/eeprom.c  ****   }
 347:Src/eeprom.c  **** 
 348:Src/eeprom.c  ****   /* Return readstatus value: (0: Page not erased, 1: Page erased) */
 349:Src/eeprom.c  ****   return readstatus;
  61              		.loc 1 349 3 is_stmt 1 view .LVU13
 350:Src/eeprom.c  **** }
  62              		.loc 1 350 1 is_stmt 0 view .LVU14
  63 0018 7047     		bx	lr
  64              	.LVL5:
  65              	.L6:
 326:Src/eeprom.c  ****   uint16_t addressvalue = 0x5555;
  66              		.loc 1 326 12 view .LVU15
  67 001a 0120     		movs	r0, #1
  68              	.LVL6:
 326:Src/eeprom.c  ****   uint16_t addressvalue = 0x5555;
  69              		.loc 1 326 12 view .LVU16
  70 001c 7047     		bx	lr
  71              	.L9:
  72 001e 00BF     		.align	2
  73              	.L8:
  74 0020 00080108 		.word	134285312
  75              		.cfi_endproc
  76              	.LFE67:
  78              		.section	.text.EE_FindValidPage,"ax",%progbits
  79              		.align	1
  80              		.syntax unified
  81              		.thumb
  82              		.thumb_func
  84              	EE_FindValidPage:
  85              	.LVL7:
  86              	.LFB71:
 351:Src/eeprom.c  **** 
 352:Src/eeprom.c  **** /**
 353:Src/eeprom.c  ****   * @brief  Returns the last stored variable data, if found, which correspond to
 354:Src/eeprom.c  ****   *   the passed virtual address
 355:Src/eeprom.c  ****   * @param  VirtAddress: Variable virtual address
 356:Src/eeprom.c  ****   * @param  Data: Global variable contains the read variable value
 357:Src/eeprom.c  ****   * @retval Success or error status:
 358:Src/eeprom.c  ****   *           - 0: if variable was found
 359:Src/eeprom.c  ****   *           - 1: if the variable was not found
 360:Src/eeprom.c  ****   *           - NO_VALID_PAGE: if no valid page was found.
 361:Src/eeprom.c  ****   */
 362:Src/eeprom.c  **** uint16_t EE_ReadVariable(uint16_t VirtAddress, uint16_t* Data)
 363:Src/eeprom.c  **** {
 364:Src/eeprom.c  ****   uint16_t validpage = PAGE0;
 365:Src/eeprom.c  ****   uint16_t addressvalue = 0x5555, readstatus = 1;
ARM GAS  /var/folders/2w/5wbrmvx534s_vk8svtxz852c0000gn/T//ccMMOFI5.s 			page 9


 366:Src/eeprom.c  ****   uint32_t address = EEPROM_START_ADDRESS, PageStartAddress = EEPROM_START_ADDRESS;
 367:Src/eeprom.c  **** 
 368:Src/eeprom.c  ****   /* Get active Page for read operation */
 369:Src/eeprom.c  ****   validpage = EE_FindValidPage(READ_FROM_VALID_PAGE);
 370:Src/eeprom.c  **** 
 371:Src/eeprom.c  ****   /* Check if there is no valid page */
 372:Src/eeprom.c  ****   if (validpage == NO_VALID_PAGE)
 373:Src/eeprom.c  ****   {
 374:Src/eeprom.c  ****     return  NO_VALID_PAGE;
 375:Src/eeprom.c  ****   }
 376:Src/eeprom.c  **** 
 377:Src/eeprom.c  ****   /* Get the valid Page start Address */
 378:Src/eeprom.c  ****   PageStartAddress = (uint32_t)(EEPROM_START_ADDRESS + (uint32_t)(validpage * PAGE_SIZE));
 379:Src/eeprom.c  **** 
 380:Src/eeprom.c  ****   /* Get the valid Page end Address */
 381:Src/eeprom.c  ****   address = (uint32_t)((EEPROM_START_ADDRESS - 2) + (uint32_t)((1 + validpage) * PAGE_SIZE));
 382:Src/eeprom.c  **** 
 383:Src/eeprom.c  ****   /* Check each active page address starting from end */
 384:Src/eeprom.c  ****   while (address > (PageStartAddress + 2))
 385:Src/eeprom.c  ****   {
 386:Src/eeprom.c  ****     /* Get the current location content to be compared with virtual address */
 387:Src/eeprom.c  ****     addressvalue = (*(__IO uint16_t*)address);
 388:Src/eeprom.c  **** 
 389:Src/eeprom.c  ****     /* Compare the read address with the virtual address */
 390:Src/eeprom.c  ****     if (addressvalue == VirtAddress)
 391:Src/eeprom.c  ****     {
 392:Src/eeprom.c  ****       /* Get content of Address-2 which is variable value */
 393:Src/eeprom.c  ****       *Data = (*(__IO uint16_t*)(address - 2));
 394:Src/eeprom.c  **** 
 395:Src/eeprom.c  ****       /* In case variable value is read, reset readstatus flag */
 396:Src/eeprom.c  ****       readstatus = 0;
 397:Src/eeprom.c  **** 
 398:Src/eeprom.c  ****       break;
 399:Src/eeprom.c  ****     }
 400:Src/eeprom.c  ****     else
 401:Src/eeprom.c  ****     {
 402:Src/eeprom.c  ****       /* Next address location */
 403:Src/eeprom.c  ****       address = address - 4;
 404:Src/eeprom.c  ****     }
 405:Src/eeprom.c  ****   }
 406:Src/eeprom.c  **** 
 407:Src/eeprom.c  ****   /* Return readstatus value: (0: variable exist, 1: variable doesn't exist) */
 408:Src/eeprom.c  ****   return readstatus;
 409:Src/eeprom.c  **** }
 410:Src/eeprom.c  **** 
 411:Src/eeprom.c  **** /**
 412:Src/eeprom.c  ****   * @brief  Writes/upadtes variable data in EEPROM.
 413:Src/eeprom.c  ****   * @param  VirtAddress: Variable virtual address
 414:Src/eeprom.c  ****   * @param  Data: 16 bit data to be written
 415:Src/eeprom.c  ****   * @retval Success or error status:
 416:Src/eeprom.c  ****   *           - FLASH_COMPLETE: on success
 417:Src/eeprom.c  ****   *           - PAGE_FULL: if valid page is full
 418:Src/eeprom.c  ****   *           - NO_VALID_PAGE: if no valid page was found
 419:Src/eeprom.c  ****   *           - Flash error code: on write Flash error
 420:Src/eeprom.c  ****   */
 421:Src/eeprom.c  **** uint16_t EE_WriteVariable(uint16_t VirtAddress, uint16_t Data)
 422:Src/eeprom.c  **** {
ARM GAS  /var/folders/2w/5wbrmvx534s_vk8svtxz852c0000gn/T//ccMMOFI5.s 			page 10


 423:Src/eeprom.c  ****   uint16_t Status = 0;
 424:Src/eeprom.c  **** 
 425:Src/eeprom.c  ****   /* Write the variable virtual address and value in the EEPROM */
 426:Src/eeprom.c  ****   Status = EE_VerifyPageFullWriteVariable(VirtAddress, Data);
 427:Src/eeprom.c  **** 
 428:Src/eeprom.c  ****   /* In case the EEPROM active page is full */
 429:Src/eeprom.c  ****   if (Status == PAGE_FULL)
 430:Src/eeprom.c  ****   {
 431:Src/eeprom.c  ****     /* Perform Page transfer */
 432:Src/eeprom.c  ****     Status = EE_PageTransfer(VirtAddress, Data);
 433:Src/eeprom.c  ****   }
 434:Src/eeprom.c  **** 
 435:Src/eeprom.c  ****   /* Return last operation status */
 436:Src/eeprom.c  ****   return Status;
 437:Src/eeprom.c  **** }
 438:Src/eeprom.c  **** 
 439:Src/eeprom.c  **** /**
 440:Src/eeprom.c  ****   * @brief  Erases PAGE and PAGE1 and writes VALID_PAGE header to PAGE
 441:Src/eeprom.c  ****   * @param  None
 442:Src/eeprom.c  ****   * @retval Status of the last operation (Flash write or erase) done during
 443:Src/eeprom.c  ****   *         EEPROM formating
 444:Src/eeprom.c  ****   */
 445:Src/eeprom.c  **** static HAL_StatusTypeDef EE_Format(void)
 446:Src/eeprom.c  **** {
 447:Src/eeprom.c  ****   HAL_StatusTypeDef flashstatus = HAL_OK;
 448:Src/eeprom.c  ****   uint32_t page_error = 0;
 449:Src/eeprom.c  ****   FLASH_EraseInitTypeDef s_eraseinit;
 450:Src/eeprom.c  **** 
 451:Src/eeprom.c  ****   s_eraseinit.TypeErase   = FLASH_TYPEERASE_PAGES;
 452:Src/eeprom.c  ****   s_eraseinit.PageAddress = PAGE0_ID;
 453:Src/eeprom.c  ****   s_eraseinit.NbPages     = 1;
 454:Src/eeprom.c  ****   /* Erase Page0 */
 455:Src/eeprom.c  ****   if(!EE_VerifyPageFullyErased(PAGE0_BASE_ADDRESS))
 456:Src/eeprom.c  ****   {
 457:Src/eeprom.c  ****     flashstatus = HAL_FLASHEx_Erase(&s_eraseinit, &page_error);
 458:Src/eeprom.c  ****     /* If erase operation was failed, a Flash error code is returned */
 459:Src/eeprom.c  ****     if (flashstatus != HAL_OK)
 460:Src/eeprom.c  ****     {
 461:Src/eeprom.c  ****       return flashstatus;
 462:Src/eeprom.c  ****     }
 463:Src/eeprom.c  ****   }
 464:Src/eeprom.c  ****   /* Set Page0 as valid page: Write VALID_PAGE at Page0 base address */
 465:Src/eeprom.c  ****   flashstatus = HAL_FLASH_Program(FLASH_TYPEPROGRAM_HALFWORD, PAGE0_BASE_ADDRESS, VALID_PAGE);
 466:Src/eeprom.c  ****   /* If program operation was failed, a Flash error code is returned */
 467:Src/eeprom.c  ****   if (flashstatus != HAL_OK)
 468:Src/eeprom.c  ****   {
 469:Src/eeprom.c  ****     return flashstatus;
 470:Src/eeprom.c  ****   }
 471:Src/eeprom.c  **** 
 472:Src/eeprom.c  ****   s_eraseinit.PageAddress = PAGE1_ID;
 473:Src/eeprom.c  ****   /* Erase Page1 */
 474:Src/eeprom.c  ****   if(!EE_VerifyPageFullyErased(PAGE1_BASE_ADDRESS))
 475:Src/eeprom.c  ****   {
 476:Src/eeprom.c  ****     flashstatus = HAL_FLASHEx_Erase(&s_eraseinit, &page_error);
 477:Src/eeprom.c  ****     /* If erase operation was failed, a Flash error code is returned */
 478:Src/eeprom.c  ****     if (flashstatus != HAL_OK)
 479:Src/eeprom.c  ****     {
ARM GAS  /var/folders/2w/5wbrmvx534s_vk8svtxz852c0000gn/T//ccMMOFI5.s 			page 11


 480:Src/eeprom.c  ****       return flashstatus;
 481:Src/eeprom.c  ****     }
 482:Src/eeprom.c  ****   }
 483:Src/eeprom.c  **** 
 484:Src/eeprom.c  ****   return HAL_OK;
 485:Src/eeprom.c  **** }
 486:Src/eeprom.c  **** 
 487:Src/eeprom.c  **** /**
 488:Src/eeprom.c  ****   * @brief  Find valid Page for write or read operation
 489:Src/eeprom.c  ****   * @param  Operation: operation to achieve on the valid page.
 490:Src/eeprom.c  ****   *   This parameter can be one of the following values:
 491:Src/eeprom.c  ****   *     @arg READ_FROM_VALID_PAGE: read operation from valid page
 492:Src/eeprom.c  ****   *     @arg WRITE_IN_VALID_PAGE: write operation from valid page
 493:Src/eeprom.c  ****   * @retval Valid page number (PAGE or PAGE1) or NO_VALID_PAGE in case
 494:Src/eeprom.c  ****   *   of no valid page was found
 495:Src/eeprom.c  ****   */
 496:Src/eeprom.c  **** static uint16_t EE_FindValidPage(uint8_t Operation)
 497:Src/eeprom.c  **** {
  87              		.loc 1 497 1 is_stmt 1 view -0
  88              		.cfi_startproc
  89              		@ args = 0, pretend = 0, frame = 0
  90              		@ frame_needed = 0, uses_anonymous_args = 0
  91              		@ link register save eliminated.
 498:Src/eeprom.c  ****   uint16_t pagestatus0 = 6, pagestatus1 = 6;
  92              		.loc 1 498 3 view .LVU18
 499:Src/eeprom.c  **** 
 500:Src/eeprom.c  ****   /* Get Page0 actual status */
 501:Src/eeprom.c  ****   pagestatus0 = (*(__IO uint16_t*)PAGE0_BASE_ADDRESS);
  93              		.loc 1 501 3 view .LVU19
  94              		.loc 1 501 15 is_stmt 0 view .LVU20
  95 0000 114B     		ldr	r3, .L19
  96 0002 1B88     		ldrh	r3, [r3]
  97 0004 9BB2     		uxth	r3, r3
  98              	.LVL8:
 502:Src/eeprom.c  **** 
 503:Src/eeprom.c  ****   /* Get Page1 actual status */
 504:Src/eeprom.c  ****   pagestatus1 = (*(__IO uint16_t*)PAGE1_BASE_ADDRESS);
  99              		.loc 1 504 3 is_stmt 1 view .LVU21
 100              		.loc 1 504 15 is_stmt 0 view .LVU22
 101 0006 114A     		ldr	r2, .L19+4
 102 0008 1288     		ldrh	r2, [r2]
 103 000a 92B2     		uxth	r2, r2
 104              	.LVL9:
 505:Src/eeprom.c  **** 
 506:Src/eeprom.c  ****   /* Write or read operation */
 507:Src/eeprom.c  ****   switch (Operation)
 105              		.loc 1 507 3 is_stmt 1 view .LVU23
 106 000c 88B1     		cbz	r0, .L11
 107 000e 0128     		cmp	r0, #1
 108 0010 13D1     		bne	.L14
 508:Src/eeprom.c  ****   {
 509:Src/eeprom.c  ****     case WRITE_IN_VALID_PAGE:   /* ---- Write operation ---- */
 510:Src/eeprom.c  ****       if (pagestatus1 == VALID_PAGE)
 109              		.loc 1 510 7 view .LVU24
 110              		.loc 1 510 10 is_stmt 0 view .LVU25
 111 0012 3AB9     		cbnz	r2, .L13
 511:Src/eeprom.c  ****       {
ARM GAS  /var/folders/2w/5wbrmvx534s_vk8svtxz852c0000gn/T//ccMMOFI5.s 			page 12


 512:Src/eeprom.c  ****         /* Page0 receiving data */
 513:Src/eeprom.c  ****         if (pagestatus0 == RECEIVE_DATA)
 112              		.loc 1 513 9 is_stmt 1 view .LVU26
 113              		.loc 1 513 12 is_stmt 0 view .LVU27
 114 0014 4EF6EE61 		movw	r1, #61166
 115 0018 8B42     		cmp	r3, r1
 116 001a 01D0     		beq	.L18
 514:Src/eeprom.c  ****         {
 515:Src/eeprom.c  ****           return PAGE0;         /* Page0 valid */
 516:Src/eeprom.c  ****         }
 517:Src/eeprom.c  ****         else
 518:Src/eeprom.c  ****         {
 519:Src/eeprom.c  ****           return PAGE1;         /* Page1 valid */
 117              		.loc 1 519 18 view .LVU28
 118 001c 4023     		movs	r3, #64
 119              	.LVL10:
 120              		.loc 1 519 18 view .LVU29
 121 001e 0DE0     		b	.L12
 122              	.LVL11:
 123              	.L18:
 515:Src/eeprom.c  ****         }
 124              		.loc 1 515 18 view .LVU30
 125 0020 1346     		mov	r3, r2
 126              	.LVL12:
 515:Src/eeprom.c  ****         }
 127              		.loc 1 515 18 view .LVU31
 128 0022 0BE0     		b	.L12
 129              	.LVL13:
 130              	.L13:
 520:Src/eeprom.c  ****         }
 521:Src/eeprom.c  ****       }
 522:Src/eeprom.c  ****       else if (pagestatus0 == VALID_PAGE)
 131              		.loc 1 522 12 is_stmt 1 view .LVU32
 132              		.loc 1 522 15 is_stmt 0 view .LVU33
 133 0024 63B9     		cbnz	r3, .L16
 523:Src/eeprom.c  ****       {
 524:Src/eeprom.c  ****         /* Page1 receiving data */
 525:Src/eeprom.c  ****         if (pagestatus1 == RECEIVE_DATA)
 134              		.loc 1 525 9 is_stmt 1 view .LVU34
 135              		.loc 1 525 12 is_stmt 0 view .LVU35
 136 0026 4EF6EE61 		movw	r1, #61166
 137 002a 8A42     		cmp	r2, r1
 138 002c 06D1     		bne	.L12
 526:Src/eeprom.c  ****         {
 527:Src/eeprom.c  ****           return PAGE1;         /* Page1 valid */
 139              		.loc 1 527 18 view .LVU36
 140 002e 4023     		movs	r3, #64
 141              	.LVL14:
 142              		.loc 1 527 18 view .LVU37
 143 0030 04E0     		b	.L12
 144              	.LVL15:
 145              	.L11:
 528:Src/eeprom.c  ****         }
 529:Src/eeprom.c  ****         else
 530:Src/eeprom.c  ****         {
 531:Src/eeprom.c  ****           return PAGE0;         /* Page0 valid */
 532:Src/eeprom.c  ****         }
ARM GAS  /var/folders/2w/5wbrmvx534s_vk8svtxz852c0000gn/T//ccMMOFI5.s 			page 13


 533:Src/eeprom.c  ****       }
 534:Src/eeprom.c  ****       else
 535:Src/eeprom.c  ****       {
 536:Src/eeprom.c  ****         return NO_VALID_PAGE;   /* No valid Page */
 537:Src/eeprom.c  ****       }
 538:Src/eeprom.c  **** 
 539:Src/eeprom.c  ****     case READ_FROM_VALID_PAGE:  /* ---- Read operation ---- */
 540:Src/eeprom.c  ****       if (pagestatus0 == VALID_PAGE)
 146              		.loc 1 540 7 is_stmt 1 view .LVU38
 147              		.loc 1 540 10 is_stmt 0 view .LVU39
 148 0032 1BB1     		cbz	r3, .L12
 541:Src/eeprom.c  ****       {
 542:Src/eeprom.c  ****         return PAGE0;           /* Page0 valid */
 543:Src/eeprom.c  ****       }
 544:Src/eeprom.c  ****       else if (pagestatus1 == VALID_PAGE)
 149              		.loc 1 544 12 is_stmt 1 view .LVU40
 150              		.loc 1 544 15 is_stmt 0 view .LVU41
 151 0034 32B9     		cbnz	r2, .L17
 545:Src/eeprom.c  ****       {
 546:Src/eeprom.c  ****         return PAGE1;           /* Page1 valid */
 152              		.loc 1 546 16 view .LVU42
 153 0036 4023     		movs	r3, #64
 154              	.LVL16:
 155              		.loc 1 546 16 view .LVU43
 156 0038 00E0     		b	.L12
 157              	.LVL17:
 158              	.L14:
 507:Src/eeprom.c  ****   {
 159              		.loc 1 507 3 view .LVU44
 160 003a 0023     		movs	r3, #0
 161              	.LVL18:
 162              	.L12:
 547:Src/eeprom.c  ****       }
 548:Src/eeprom.c  ****       else
 549:Src/eeprom.c  ****       {
 550:Src/eeprom.c  ****         return NO_VALID_PAGE ;  /* No valid Page */
 551:Src/eeprom.c  ****       }
 552:Src/eeprom.c  **** 
 553:Src/eeprom.c  ****     default:
 554:Src/eeprom.c  ****       return PAGE0;             /* Page0 valid */
 555:Src/eeprom.c  ****   }
 556:Src/eeprom.c  **** }
 163              		.loc 1 556 1 view .LVU45
 164 003c 1846     		mov	r0, r3
 165              	.LVL19:
 166              		.loc 1 556 1 view .LVU46
 167 003e 7047     		bx	lr
 168              	.LVL20:
 169              	.L16:
 536:Src/eeprom.c  ****       }
 170              		.loc 1 536 16 view .LVU47
 171 0040 AB23     		movs	r3, #171
 172              	.LVL21:
 536:Src/eeprom.c  ****       }
 173              		.loc 1 536 16 view .LVU48
 174 0042 FBE7     		b	.L12
 175              	.LVL22:
ARM GAS  /var/folders/2w/5wbrmvx534s_vk8svtxz852c0000gn/T//ccMMOFI5.s 			page 14


 176              	.L17:
 550:Src/eeprom.c  ****       }
 177              		.loc 1 550 16 view .LVU49
 178 0044 AB23     		movs	r3, #171
 179              	.LVL23:
 550:Src/eeprom.c  ****       }
 180              		.loc 1 550 16 view .LVU50
 181 0046 F9E7     		b	.L12
 182              	.L20:
 183              		.align	2
 184              	.L19:
 185 0048 00000108 		.word	134283264
 186 004c 00000208 		.word	134348800
 187              		.cfi_endproc
 188              	.LFE71:
 190              		.section	.text.EE_VerifyPageFullWriteVariable,"ax",%progbits
 191              		.align	1
 192              		.syntax unified
 193              		.thumb
 194              		.thumb_func
 196              	EE_VerifyPageFullWriteVariable:
 197              	.LVL24:
 198              	.LFB72:
 557:Src/eeprom.c  **** 
 558:Src/eeprom.c  **** /**
 559:Src/eeprom.c  ****   * @brief  Verify if active page is full and Writes variable in EEPROM.
 560:Src/eeprom.c  ****   * @param  VirtAddress: 16 bit virtual address of the variable
 561:Src/eeprom.c  ****   * @param  Data: 16 bit data to be written as variable value
 562:Src/eeprom.c  ****   * @retval Success or error status:
 563:Src/eeprom.c  ****   *           - FLASH_COMPLETE: on success
 564:Src/eeprom.c  ****   *           - PAGE_FULL: if valid page is full
 565:Src/eeprom.c  ****   *           - NO_VALID_PAGE: if no valid page was found
 566:Src/eeprom.c  ****   *           - Flash error code: on write Flash error
 567:Src/eeprom.c  ****   */
 568:Src/eeprom.c  **** static uint16_t EE_VerifyPageFullWriteVariable(uint16_t VirtAddress, uint16_t Data)
 569:Src/eeprom.c  **** {
 199              		.loc 1 569 1 is_stmt 1 view -0
 200              		.cfi_startproc
 201              		@ args = 0, pretend = 0, frame = 0
 202              		@ frame_needed = 0, uses_anonymous_args = 0
 203              		.loc 1 569 1 is_stmt 0 view .LVU52
 204 0000 70B5     		push	{r4, r5, r6, lr}
 205              	.LCFI0:
 206              		.cfi_def_cfa_offset 16
 207              		.cfi_offset 4, -16
 208              		.cfi_offset 5, -12
 209              		.cfi_offset 6, -8
 210              		.cfi_offset 14, -4
 211 0002 0646     		mov	r6, r0
 212 0004 0D46     		mov	r5, r1
 570:Src/eeprom.c  ****   HAL_StatusTypeDef flashstatus = HAL_OK;
 213              		.loc 1 570 3 is_stmt 1 view .LVU53
 214              	.LVL25:
 571:Src/eeprom.c  ****   uint16_t validpage = PAGE0;
 215              		.loc 1 571 3 view .LVU54
 572:Src/eeprom.c  ****   uint32_t address = EEPROM_START_ADDRESS, pageendaddress = EEPROM_START_ADDRESS+PAGE_SIZE;
 216              		.loc 1 572 3 view .LVU55
ARM GAS  /var/folders/2w/5wbrmvx534s_vk8svtxz852c0000gn/T//ccMMOFI5.s 			page 15


 573:Src/eeprom.c  **** 
 574:Src/eeprom.c  ****   /* Get valid Page for write operation */
 575:Src/eeprom.c  ****   validpage = EE_FindValidPage(WRITE_IN_VALID_PAGE);
 217              		.loc 1 575 3 view .LVU56
 218              		.loc 1 575 15 is_stmt 0 view .LVU57
 219 0006 0120     		movs	r0, #1
 220              	.LVL26:
 221              		.loc 1 575 15 view .LVU58
 222 0008 FFF7FEFF 		bl	EE_FindValidPage
 223              	.LVL27:
 576:Src/eeprom.c  **** 
 577:Src/eeprom.c  ****   /* Check if there is no valid page */
 578:Src/eeprom.c  ****   if (validpage == NO_VALID_PAGE)
 224              		.loc 1 578 3 is_stmt 1 view .LVU59
 225              		.loc 1 578 6 is_stmt 0 view .LVU60
 226 000c AB28     		cmp	r0, #171
 227 000e 21D0     		beq	.L22
 579:Src/eeprom.c  ****   {
 580:Src/eeprom.c  ****     return  NO_VALID_PAGE;
 581:Src/eeprom.c  ****   }
 582:Src/eeprom.c  **** 
 583:Src/eeprom.c  ****   /* Get the valid Page start address */
 584:Src/eeprom.c  ****   address = (uint32_t)(EEPROM_START_ADDRESS + (uint32_t)(validpage * PAGE_SIZE));
 228              		.loc 1 584 3 is_stmt 1 view .LVU61
 229              		.loc 1 584 13 is_stmt 0 view .LVU62
 230 0010 00F58034 		add	r4, r0, #65536
 231 0014 2034     		adds	r4, r4, #32
 232              		.loc 1 584 11 view .LVU63
 233 0016 E402     		lsls	r4, r4, #11
 234              	.LVL28:
 585:Src/eeprom.c  **** 
 586:Src/eeprom.c  ****   /* Get the valid Page end address */
 587:Src/eeprom.c  ****   pageendaddress = (uint32_t)((EEPROM_START_ADDRESS - 1) + (uint32_t)((validpage + 1) * PAGE_SIZE))
 235              		.loc 1 587 3 is_stmt 1 view .LVU64
 236              		.loc 1 587 82 is_stmt 0 view .LVU65
 237 0018 0130     		adds	r0, r0, #1
 238              	.LVL29:
 239              		.loc 1 587 18 view .LVU66
 240 001a 0F4B     		ldr	r3, .L30
 241 001c 03EBC02C 		add	ip, r3, r0, lsl #11
 242              	.LVL30:
 588:Src/eeprom.c  **** 
 589:Src/eeprom.c  ****   /* Check each active page address starting from begining */
 590:Src/eeprom.c  ****   while (address < pageendaddress)
 243              		.loc 1 590 3 is_stmt 1 view .LVU67
 244              	.L23:
 245              		.loc 1 590 9 view .LVU68
 246 0020 6445     		cmp	r4, ip
 247 0022 16D2     		bcs	.L28
 591:Src/eeprom.c  ****   {
 592:Src/eeprom.c  ****     /* Verify if address and address+2 contents are 0xFFFFFFFF */
 593:Src/eeprom.c  ****     if ((*(__IO uint32_t*)address) == 0xFFFFFFFF)
 248              		.loc 1 593 5 view .LVU69
 249              		.loc 1 593 10 is_stmt 0 view .LVU70
 250 0024 2368     		ldr	r3, [r4]
 251              		.loc 1 593 8 view .LVU71
 252 0026 B3F1FF3F 		cmp	r3, #-1
ARM GAS  /var/folders/2w/5wbrmvx534s_vk8svtxz852c0000gn/T//ccMMOFI5.s 			page 16


 253 002a 01D0     		beq	.L29
 594:Src/eeprom.c  ****     {
 595:Src/eeprom.c  ****       /* Set variable data */
 596:Src/eeprom.c  ****       flashstatus = HAL_FLASH_Program(FLASH_TYPEPROGRAM_HALFWORD, address, Data);
 597:Src/eeprom.c  ****       /* If program operation was failed, a Flash error code is returned */
 598:Src/eeprom.c  ****       if (flashstatus != HAL_OK)
 599:Src/eeprom.c  ****       {
 600:Src/eeprom.c  ****         return flashstatus;
 601:Src/eeprom.c  ****       }
 602:Src/eeprom.c  ****       /* Set variable virtual address */
 603:Src/eeprom.c  ****       flashstatus = HAL_FLASH_Program(FLASH_TYPEPROGRAM_HALFWORD, address + 2, VirtAddress);       
 604:Src/eeprom.c  ****       /* Return program operation status */
 605:Src/eeprom.c  ****       return flashstatus;
 606:Src/eeprom.c  ****     }
 607:Src/eeprom.c  ****     else
 608:Src/eeprom.c  ****     {
 609:Src/eeprom.c  ****       /* Next address location */
 610:Src/eeprom.c  ****       address = address + 4;
 254              		.loc 1 610 7 is_stmt 1 view .LVU72
 255              		.loc 1 610 15 is_stmt 0 view .LVU73
 256 002c 0434     		adds	r4, r4, #4
 257              	.LVL31:
 258              		.loc 1 610 15 view .LVU74
 259 002e F7E7     		b	.L23
 260              	.L29:
 596:Src/eeprom.c  ****       /* If program operation was failed, a Flash error code is returned */
 261              		.loc 1 596 7 is_stmt 1 view .LVU75
 596:Src/eeprom.c  ****       /* If program operation was failed, a Flash error code is returned */
 262              		.loc 1 596 21 is_stmt 0 view .LVU76
 263 0030 2A46     		mov	r2, r5
 264 0032 0023     		movs	r3, #0
 265 0034 2146     		mov	r1, r4
 266 0036 0120     		movs	r0, #1
 267 0038 FFF7FEFF 		bl	HAL_FLASH_Program
 268              	.LVL32:
 598:Src/eeprom.c  ****       {
 269              		.loc 1 598 7 is_stmt 1 view .LVU77
 598:Src/eeprom.c  ****       {
 270              		.loc 1 598 10 is_stmt 0 view .LVU78
 271 003c 08B1     		cbz	r0, .L25
 600:Src/eeprom.c  ****       }
 272              		.loc 1 600 9 is_stmt 1 view .LVU79
 600:Src/eeprom.c  ****       }
 273              		.loc 1 600 16 is_stmt 0 view .LVU80
 274 003e 80B2     		uxth	r0, r0
 275              	.LVL33:
 600:Src/eeprom.c  ****       }
 276              		.loc 1 600 16 view .LVU81
 277 0040 08E0     		b	.L22
 278              	.LVL34:
 279              	.L25:
 603:Src/eeprom.c  ****       /* Return program operation status */
 280              		.loc 1 603 7 is_stmt 1 view .LVU82
 603:Src/eeprom.c  ****       /* Return program operation status */
 281              		.loc 1 603 21 is_stmt 0 view .LVU83
 282 0042 3246     		mov	r2, r6
 283 0044 0023     		movs	r3, #0
ARM GAS  /var/folders/2w/5wbrmvx534s_vk8svtxz852c0000gn/T//ccMMOFI5.s 			page 17


 284 0046 A11C     		adds	r1, r4, #2
 285 0048 0120     		movs	r0, #1
 286              	.LVL35:
 603:Src/eeprom.c  ****       /* Return program operation status */
 287              		.loc 1 603 21 view .LVU84
 288 004a FFF7FEFF 		bl	HAL_FLASH_Program
 289              	.LVL36:
 605:Src/eeprom.c  ****     }
 290              		.loc 1 605 7 is_stmt 1 view .LVU85
 605:Src/eeprom.c  ****     }
 291              		.loc 1 605 14 is_stmt 0 view .LVU86
 292 004e 80B2     		uxth	r0, r0
 293              	.LVL37:
 605:Src/eeprom.c  ****     }
 294              		.loc 1 605 14 view .LVU87
 295 0050 00E0     		b	.L22
 296              	.LVL38:
 297              	.L28:
 611:Src/eeprom.c  ****     }
 612:Src/eeprom.c  ****   }
 613:Src/eeprom.c  **** 
 614:Src/eeprom.c  ****   /* Return PAGE_FULL in case the valid page is full */
 615:Src/eeprom.c  ****   return PAGE_FULL;
 298              		.loc 1 615 10 view .LVU88
 299 0052 8020     		movs	r0, #128
 300              	.LVL39:
 301              	.L22:
 616:Src/eeprom.c  **** }
 302              		.loc 1 616 1 view .LVU89
 303 0054 70BD     		pop	{r4, r5, r6, pc}
 304              	.L31:
 305 0056 00BF     		.align	2
 306              	.L30:
 307 0058 FFFF0008 		.word	134283263
 308              		.cfi_endproc
 309              	.LFE72:
 311              		.section	.text.EE_Format,"ax",%progbits
 312              		.align	1
 313              		.syntax unified
 314              		.thumb
 315              		.thumb_func
 317              	EE_Format:
 318              	.LFB70:
 446:Src/eeprom.c  ****   HAL_StatusTypeDef flashstatus = HAL_OK;
 319              		.loc 1 446 1 is_stmt 1 view -0
 320              		.cfi_startproc
 321              		@ args = 0, pretend = 0, frame = 24
 322              		@ frame_needed = 0, uses_anonymous_args = 0
 323 0000 10B5     		push	{r4, lr}
 324              	.LCFI1:
 325              		.cfi_def_cfa_offset 8
 326              		.cfi_offset 4, -8
 327              		.cfi_offset 14, -4
 328 0002 86B0     		sub	sp, sp, #24
 329              	.LCFI2:
 330              		.cfi_def_cfa_offset 32
 447:Src/eeprom.c  ****   uint32_t page_error = 0;
ARM GAS  /var/folders/2w/5wbrmvx534s_vk8svtxz852c0000gn/T//ccMMOFI5.s 			page 18


 331              		.loc 1 447 3 view .LVU91
 332              	.LVL40:
 448:Src/eeprom.c  ****   FLASH_EraseInitTypeDef s_eraseinit;
 333              		.loc 1 448 3 view .LVU92
 448:Src/eeprom.c  ****   FLASH_EraseInitTypeDef s_eraseinit;
 334              		.loc 1 448 12 is_stmt 0 view .LVU93
 335 0004 0023     		movs	r3, #0
 336 0006 0593     		str	r3, [sp, #20]
 449:Src/eeprom.c  **** 
 337              		.loc 1 449 3 is_stmt 1 view .LVU94
 451:Src/eeprom.c  ****   s_eraseinit.PageAddress = PAGE0_ID;
 338              		.loc 1 451 3 view .LVU95
 451:Src/eeprom.c  ****   s_eraseinit.PageAddress = PAGE0_ID;
 339              		.loc 1 451 27 is_stmt 0 view .LVU96
 340 0008 0193     		str	r3, [sp, #4]
 452:Src/eeprom.c  ****   s_eraseinit.NbPages     = 1;
 341              		.loc 1 452 3 is_stmt 1 view .LVU97
 452:Src/eeprom.c  ****   s_eraseinit.NbPages     = 1;
 342              		.loc 1 452 27 is_stmt 0 view .LVU98
 343 000a 1248     		ldr	r0, .L37
 344 000c 0390     		str	r0, [sp, #12]
 453:Src/eeprom.c  ****   /* Erase Page0 */
 345              		.loc 1 453 3 is_stmt 1 view .LVU99
 453:Src/eeprom.c  ****   /* Erase Page0 */
 346              		.loc 1 453 27 is_stmt 0 view .LVU100
 347 000e 0123     		movs	r3, #1
 348 0010 0493     		str	r3, [sp, #16]
 455:Src/eeprom.c  ****   {
 349              		.loc 1 455 3 is_stmt 1 view .LVU101
 455:Src/eeprom.c  ****   {
 350              		.loc 1 455 7 is_stmt 0 view .LVU102
 351 0012 FFF7FEFF 		bl	EE_VerifyPageFullyErased
 352              	.LVL41:
 455:Src/eeprom.c  ****   {
 353              		.loc 1 455 5 view .LVU103
 354 0016 28B9     		cbnz	r0, .L33
 457:Src/eeprom.c  ****     /* If erase operation was failed, a Flash error code is returned */
 355              		.loc 1 457 5 is_stmt 1 view .LVU104
 457:Src/eeprom.c  ****     /* If erase operation was failed, a Flash error code is returned */
 356              		.loc 1 457 19 is_stmt 0 view .LVU105
 357 0018 05A9     		add	r1, sp, #20
 358 001a 01A8     		add	r0, sp, #4
 359 001c FFF7FEFF 		bl	HAL_FLASHEx_Erase
 360              	.LVL42:
 459:Src/eeprom.c  ****     {
 361              		.loc 1 459 5 is_stmt 1 view .LVU106
 459:Src/eeprom.c  ****     {
 362              		.loc 1 459 8 is_stmt 0 view .LVU107
 363 0020 0446     		mov	r4, r0
 364 0022 38B9     		cbnz	r0, .L34
 365              	.LVL43:
 366              	.L33:
 465:Src/eeprom.c  ****   /* If program operation was failed, a Flash error code is returned */
 367              		.loc 1 465 3 is_stmt 1 view .LVU108
 465:Src/eeprom.c  ****   /* If program operation was failed, a Flash error code is returned */
 368              		.loc 1 465 17 is_stmt 0 view .LVU109
 369 0024 0022     		movs	r2, #0
ARM GAS  /var/folders/2w/5wbrmvx534s_vk8svtxz852c0000gn/T//ccMMOFI5.s 			page 19


 370 0026 0023     		movs	r3, #0
 371 0028 0A49     		ldr	r1, .L37
 372 002a 0120     		movs	r0, #1
 373 002c FFF7FEFF 		bl	HAL_FLASH_Program
 374              	.LVL44:
 467:Src/eeprom.c  ****   {
 375              		.loc 1 467 3 is_stmt 1 view .LVU110
 467:Src/eeprom.c  ****   {
 376              		.loc 1 467 6 is_stmt 0 view .LVU111
 377 0030 0446     		mov	r4, r0
 378 0032 10B1     		cbz	r0, .L36
 379              	.LVL45:
 380              	.L34:
 485:Src/eeprom.c  **** 
 381              		.loc 1 485 1 view .LVU112
 382 0034 2046     		mov	r0, r4
 383 0036 06B0     		add	sp, sp, #24
 384              	.LCFI3:
 385              		.cfi_remember_state
 386              		.cfi_def_cfa_offset 8
 387              		@ sp needed
 388 0038 10BD     		pop	{r4, pc}
 389              	.LVL46:
 390              	.L36:
 391              	.LCFI4:
 392              		.cfi_restore_state
 472:Src/eeprom.c  ****   /* Erase Page1 */
 393              		.loc 1 472 3 is_stmt 1 view .LVU113
 472:Src/eeprom.c  ****   /* Erase Page1 */
 394              		.loc 1 472 27 is_stmt 0 view .LVU114
 395 003a 074B     		ldr	r3, .L37+4
 396 003c 0393     		str	r3, [sp, #12]
 474:Src/eeprom.c  ****   {
 397              		.loc 1 474 3 is_stmt 1 view .LVU115
 474:Src/eeprom.c  ****   {
 398              		.loc 1 474 7 is_stmt 0 view .LVU116
 399 003e 0748     		ldr	r0, .L37+8
 400              	.LVL47:
 474:Src/eeprom.c  ****   {
 401              		.loc 1 474 7 view .LVU117
 402 0040 FFF7FEFF 		bl	EE_VerifyPageFullyErased
 403              	.LVL48:
 474:Src/eeprom.c  ****   {
 404              		.loc 1 474 5 view .LVU118
 405 0044 0028     		cmp	r0, #0
 406 0046 F5D1     		bne	.L34
 476:Src/eeprom.c  ****     /* If erase operation was failed, a Flash error code is returned */
 407              		.loc 1 476 5 is_stmt 1 view .LVU119
 476:Src/eeprom.c  ****     /* If erase operation was failed, a Flash error code is returned */
 408              		.loc 1 476 19 is_stmt 0 view .LVU120
 409 0048 05A9     		add	r1, sp, #20
 410 004a 01A8     		add	r0, sp, #4
 411 004c FFF7FEFF 		bl	HAL_FLASHEx_Erase
 412              	.LVL49:
 413 0050 0446     		mov	r4, r0
 414              	.LVL50:
 478:Src/eeprom.c  ****     {
ARM GAS  /var/folders/2w/5wbrmvx534s_vk8svtxz852c0000gn/T//ccMMOFI5.s 			page 20


 415              		.loc 1 478 5 is_stmt 1 view .LVU121
 416 0052 EFE7     		b	.L34
 417              	.L38:
 418              		.align	2
 419              	.L37:
 420 0054 00000108 		.word	134283264
 421 0058 00800108 		.word	134316032
 422 005c 00000208 		.word	134348800
 423              		.cfi_endproc
 424              	.LFE70:
 426              		.section	.text.EE_ReadVariable,"ax",%progbits
 427              		.align	1
 428              		.global	EE_ReadVariable
 429              		.syntax unified
 430              		.thumb
 431              		.thumb_func
 433              	EE_ReadVariable:
 434              	.LVL51:
 435              	.LFB68:
 363:Src/eeprom.c  ****   uint16_t validpage = PAGE0;
 436              		.loc 1 363 1 view -0
 437              		.cfi_startproc
 438              		@ args = 0, pretend = 0, frame = 0
 439              		@ frame_needed = 0, uses_anonymous_args = 0
 363:Src/eeprom.c  ****   uint16_t validpage = PAGE0;
 440              		.loc 1 363 1 is_stmt 0 view .LVU123
 441 0000 38B5     		push	{r3, r4, r5, lr}
 442              	.LCFI5:
 443              		.cfi_def_cfa_offset 16
 444              		.cfi_offset 3, -16
 445              		.cfi_offset 4, -12
 446              		.cfi_offset 5, -8
 447              		.cfi_offset 14, -4
 448 0002 0446     		mov	r4, r0
 449 0004 0D46     		mov	r5, r1
 364:Src/eeprom.c  ****   uint16_t addressvalue = 0x5555, readstatus = 1;
 450              		.loc 1 364 3 is_stmt 1 view .LVU124
 451              	.LVL52:
 365:Src/eeprom.c  ****   uint32_t address = EEPROM_START_ADDRESS, PageStartAddress = EEPROM_START_ADDRESS;
 452              		.loc 1 365 3 view .LVU125
 366:Src/eeprom.c  **** 
 453              		.loc 1 366 3 view .LVU126
 369:Src/eeprom.c  **** 
 454              		.loc 1 369 3 view .LVU127
 369:Src/eeprom.c  **** 
 455              		.loc 1 369 15 is_stmt 0 view .LVU128
 456 0006 0020     		movs	r0, #0
 457              	.LVL53:
 369:Src/eeprom.c  **** 
 458              		.loc 1 369 15 view .LVU129
 459 0008 FFF7FEFF 		bl	EE_FindValidPage
 460              	.LVL54:
 372:Src/eeprom.c  ****   {
 461              		.loc 1 372 3 is_stmt 1 view .LVU130
 372:Src/eeprom.c  ****   {
 462              		.loc 1 372 6 is_stmt 0 view .LVU131
 463 000c AB28     		cmp	r0, #171
ARM GAS  /var/folders/2w/5wbrmvx534s_vk8svtxz852c0000gn/T//ccMMOFI5.s 			page 21


 464 000e 19D0     		beq	.L40
 378:Src/eeprom.c  **** 
 465              		.loc 1 378 3 is_stmt 1 view .LVU132
 378:Src/eeprom.c  **** 
 466              		.loc 1 378 22 is_stmt 0 view .LVU133
 467 0010 00F5803C 		add	ip, r0, #65536
 468 0014 0CF1200C 		add	ip, ip, #32
 378:Src/eeprom.c  **** 
 469              		.loc 1 378 20 view .LVU134
 470 0018 4FEACC2C 		lsl	ip, ip, #11
 471              	.LVL55:
 381:Src/eeprom.c  **** 
 472              		.loc 1 381 3 is_stmt 1 view .LVU135
 381:Src/eeprom.c  **** 
 473              		.loc 1 381 67 is_stmt 0 view .LVU136
 474 001c 0130     		adds	r0, r0, #1
 475              	.LVL56:
 381:Src/eeprom.c  **** 
 476              		.loc 1 381 11 view .LVU137
 477 001e 0A4B     		ldr	r3, .L47
 478 0020 03EBC023 		add	r3, r3, r0, lsl #11
 479              	.LVL57:
 384:Src/eeprom.c  ****   {
 480              		.loc 1 384 3 is_stmt 1 view .LVU138
 481              	.L41:
 384:Src/eeprom.c  ****   {
 482              		.loc 1 384 9 view .LVU139
 384:Src/eeprom.c  ****   {
 483              		.loc 1 384 38 is_stmt 0 view .LVU140
 484 0024 0CF10202 		add	r2, ip, #2
 384:Src/eeprom.c  ****   {
 485              		.loc 1 384 9 view .LVU141
 486 0028 9A42     		cmp	r2, r3
 487 002a 0AD2     		bcs	.L45
 387:Src/eeprom.c  **** 
 488              		.loc 1 387 5 is_stmt 1 view .LVU142
 387:Src/eeprom.c  **** 
 489              		.loc 1 387 18 is_stmt 0 view .LVU143
 490 002c 1A88     		ldrh	r2, [r3]
 491 002e 92B2     		uxth	r2, r2
 492              	.LVL58:
 390:Src/eeprom.c  ****     {
 493              		.loc 1 390 5 is_stmt 1 view .LVU144
 390:Src/eeprom.c  ****     {
 494              		.loc 1 390 8 is_stmt 0 view .LVU145
 495 0030 A242     		cmp	r2, r4
 496 0032 01D0     		beq	.L46
 403:Src/eeprom.c  ****     }
 497              		.loc 1 403 7 is_stmt 1 view .LVU146
 403:Src/eeprom.c  ****     }
 498              		.loc 1 403 15 is_stmt 0 view .LVU147
 499 0034 043B     		subs	r3, r3, #4
 500              	.LVL59:
 403:Src/eeprom.c  ****     }
 501              		.loc 1 403 15 view .LVU148
 502 0036 F5E7     		b	.L41
 503              	.L46:
ARM GAS  /var/folders/2w/5wbrmvx534s_vk8svtxz852c0000gn/T//ccMMOFI5.s 			page 22


 393:Src/eeprom.c  **** 
 504              		.loc 1 393 7 is_stmt 1 view .LVU149
 393:Src/eeprom.c  **** 
 505              		.loc 1 393 16 is_stmt 0 view .LVU150
 506 0038 33F8023C 		ldrh	r3, [r3, #-2]
 507              	.LVL60:
 393:Src/eeprom.c  **** 
 508              		.loc 1 393 13 view .LVU151
 509 003c 2B80     		strh	r3, [r5]	@ movhi
 396:Src/eeprom.c  **** 
 510              		.loc 1 396 7 is_stmt 1 view .LVU152
 511              	.LVL61:
 398:Src/eeprom.c  ****     }
 512              		.loc 1 398 7 view .LVU153
 396:Src/eeprom.c  **** 
 513              		.loc 1 396 18 is_stmt 0 view .LVU154
 514 003e 0020     		movs	r0, #0
 398:Src/eeprom.c  ****     }
 515              		.loc 1 398 7 view .LVU155
 516 0040 00E0     		b	.L40
 517              	.LVL62:
 518              	.L45:
 365:Src/eeprom.c  ****   uint32_t address = EEPROM_START_ADDRESS, PageStartAddress = EEPROM_START_ADDRESS;
 519              		.loc 1 365 35 view .LVU156
 520 0042 0120     		movs	r0, #1
 521              	.LVL63:
 522              	.L40:
 409:Src/eeprom.c  **** 
 523              		.loc 1 409 1 view .LVU157
 524 0044 38BD     		pop	{r3, r4, r5, pc}
 525              	.LVL64:
 526              	.L48:
 409:Src/eeprom.c  **** 
 527              		.loc 1 409 1 view .LVU158
 528 0046 00BF     		.align	2
 529              	.L47:
 530 0048 FEFF0008 		.word	134283262
 531              		.cfi_endproc
 532              	.LFE68:
 534              		.section	.text.EE_Init,"ax",%progbits
 535              		.align	1
 536              		.global	EE_Init
 537              		.syntax unified
 538              		.thumb
 539              		.thumb_func
 541              	EE_Init:
 542              	.LFB66:
  72:Src/eeprom.c  ****   uint16_t pagestatus0 = 6, pagestatus1 = 6;
 543              		.loc 1 72 1 is_stmt 1 view -0
 544              		.cfi_startproc
 545              		@ args = 0, pretend = 0, frame = 24
 546              		@ frame_needed = 0, uses_anonymous_args = 0
 547 0000 F0B5     		push	{r4, r5, r6, r7, lr}
 548              	.LCFI6:
 549              		.cfi_def_cfa_offset 20
 550              		.cfi_offset 4, -20
 551              		.cfi_offset 5, -16
ARM GAS  /var/folders/2w/5wbrmvx534s_vk8svtxz852c0000gn/T//ccMMOFI5.s 			page 23


 552              		.cfi_offset 6, -12
 553              		.cfi_offset 7, -8
 554              		.cfi_offset 14, -4
 555 0002 87B0     		sub	sp, sp, #28
 556              	.LCFI7:
 557              		.cfi_def_cfa_offset 48
  73:Src/eeprom.c  ****   uint16_t varidx = 0;
 558              		.loc 1 73 3 view .LVU160
 559              	.LVL65:
  74:Src/eeprom.c  ****   uint16_t eepromstatus = 0, readstatus = 0;
 560              		.loc 1 74 3 view .LVU161
  75:Src/eeprom.c  ****   int16_t x = -1;
 561              		.loc 1 75 3 view .LVU162
  76:Src/eeprom.c  ****   HAL_StatusTypeDef  flashstatus;
 562              		.loc 1 76 3 view .LVU163
  77:Src/eeprom.c  ****   uint32_t page_error = 0;
 563              		.loc 1 77 3 view .LVU164
  78:Src/eeprom.c  ****   FLASH_EraseInitTypeDef s_eraseinit;
 564              		.loc 1 78 3 view .LVU165
  78:Src/eeprom.c  ****   FLASH_EraseInitTypeDef s_eraseinit;
 565              		.loc 1 78 12 is_stmt 0 view .LVU166
 566 0004 0022     		movs	r2, #0
 567 0006 0592     		str	r2, [sp, #20]
  79:Src/eeprom.c  **** 
 568              		.loc 1 79 3 is_stmt 1 view .LVU167
  83:Src/eeprom.c  ****   /* Get Page1 status */
 569              		.loc 1 83 3 view .LVU168
  83:Src/eeprom.c  ****   /* Get Page1 status */
 570              		.loc 1 83 15 is_stmt 0 view .LVU169
 571 0008 8C4B     		ldr	r3, .L108
 572 000a 1E88     		ldrh	r6, [r3]
 573 000c B6B2     		uxth	r6, r6
 574              	.LVL66:
  85:Src/eeprom.c  **** 
 575              		.loc 1 85 3 is_stmt 1 view .LVU170
  85:Src/eeprom.c  **** 
 576              		.loc 1 85 15 is_stmt 0 view .LVU171
 577 000e 8C49     		ldr	r1, .L108+4
 578 0010 0D88     		ldrh	r5, [r1]
 579 0012 ADB2     		uxth	r5, r5
 580              	.LVL67:
  88:Src/eeprom.c  ****   s_eraseinit.PageAddress = PAGE0_ID;
 581              		.loc 1 88 3 is_stmt 1 view .LVU172
  88:Src/eeprom.c  ****   s_eraseinit.PageAddress = PAGE0_ID;
 582              		.loc 1 88 27 is_stmt 0 view .LVU173
 583 0014 0192     		str	r2, [sp, #4]
  89:Src/eeprom.c  ****   s_eraseinit.NbPages     = 1;
 584              		.loc 1 89 3 is_stmt 1 view .LVU174
  89:Src/eeprom.c  ****   s_eraseinit.NbPages     = 1;
 585              		.loc 1 89 27 is_stmt 0 view .LVU175
 586 0016 0393     		str	r3, [sp, #12]
  90:Src/eeprom.c  **** 
 587              		.loc 1 90 3 is_stmt 1 view .LVU176
  90:Src/eeprom.c  **** 
 588              		.loc 1 90 27 is_stmt 0 view .LVU177
 589 0018 0123     		movs	r3, #1
 590 001a 0493     		str	r3, [sp, #16]
ARM GAS  /var/folders/2w/5wbrmvx534s_vk8svtxz852c0000gn/T//ccMMOFI5.s 			page 24


  93:Src/eeprom.c  ****   {
 591              		.loc 1 93 3 is_stmt 1 view .LVU178
 592 001c 4EF6EE63 		movw	r3, #61166
 593 0020 9E42     		cmp	r6, r3
 594 0022 40D0     		beq	.L50
 595 0024 4FF6FF73 		movw	r3, #65535
 596 0028 9E42     		cmp	r6, r3
 597 002a 0BD0     		beq	.L51
 598 002c 002E     		cmp	r6, #0
 599 002e 00F0A280 		beq	.L87
 302:Src/eeprom.c  ****       /* If erase/program operation was failed, a Flash error code is returned */
 600              		.loc 1 302 7 view .LVU179
 302:Src/eeprom.c  ****       /* If erase/program operation was failed, a Flash error code is returned */
 601              		.loc 1 302 21 is_stmt 0 view .LVU180
 602 0032 FFF7FEFF 		bl	EE_Format
 603              	.LVL68:
 304:Src/eeprom.c  ****       {
 604              		.loc 1 304 7 is_stmt 1 view .LVU181
 304:Src/eeprom.c  ****       {
 605              		.loc 1 304 10 is_stmt 0 view .LVU182
 606 0036 0028     		cmp	r0, #0
 607 0038 40F0FE80 		bne	.L88
 311:Src/eeprom.c  **** }
 608              		.loc 1 311 10 view .LVU183
 609 003c 0025     		movs	r5, #0
 610              	.LVL69:
 611              	.L55:
 312:Src/eeprom.c  **** 
 612              		.loc 1 312 1 view .LVU184
 613 003e 2846     		mov	r0, r5
 614 0040 07B0     		add	sp, sp, #28
 615              	.LCFI8:
 616              		.cfi_remember_state
 617              		.cfi_def_cfa_offset 20
 618              		@ sp needed
 619 0042 F0BD     		pop	{r4, r5, r6, r7, pc}
 620              	.LVL70:
 621              	.L51:
 622              	.LCFI9:
 623              		.cfi_restore_state
  96:Src/eeprom.c  ****       {
 624              		.loc 1 96 7 is_stmt 1 view .LVU185
  96:Src/eeprom.c  ****       {
 625              		.loc 1 96 10 is_stmt 0 view .LVU186
 626 0044 45B1     		cbz	r5, .L89
 109:Src/eeprom.c  ****       {
 627              		.loc 1 109 12 is_stmt 1 view .LVU187
 109:Src/eeprom.c  ****       {
 628              		.loc 1 109 15 is_stmt 0 view .LVU188
 629 0046 4EF6EE63 		movw	r3, #61166
 630 004a 9D42     		cmp	r5, r3
 631 004c 13D0     		beq	.L90
 132:Src/eeprom.c  ****         /* If erase/program operation was failed, a Flash error code is returned */
 632              		.loc 1 132 9 is_stmt 1 view .LVU189
 132:Src/eeprom.c  ****         /* If erase/program operation was failed, a Flash error code is returned */
 633              		.loc 1 132 23 is_stmt 0 view .LVU190
 634 004e FFF7FEFF 		bl	EE_Format
ARM GAS  /var/folders/2w/5wbrmvx534s_vk8svtxz852c0000gn/T//ccMMOFI5.s 			page 25


 635              	.LVL71:
 134:Src/eeprom.c  ****         {
 636              		.loc 1 134 9 is_stmt 1 view .LVU191
 134:Src/eeprom.c  ****         {
 637              		.loc 1 134 12 is_stmt 0 view .LVU192
 638 0052 30BB     		cbnz	r0, .L91
 311:Src/eeprom.c  **** }
 639              		.loc 1 311 10 view .LVU193
 640 0054 0025     		movs	r5, #0
 641              	.LVL72:
 311:Src/eeprom.c  **** }
 642              		.loc 1 311 10 view .LVU194
 643 0056 F2E7     		b	.L55
 644              	.LVL73:
 645              	.L89:
  99:Src/eeprom.c  ****         {
 646              		.loc 1 99 9 is_stmt 1 view .LVU195
  99:Src/eeprom.c  ****         {
 647              		.loc 1 99 13 is_stmt 0 view .LVU196
 648 0058 7848     		ldr	r0, .L108
 649 005a FFF7FEFF 		bl	EE_VerifyPageFullyErased
 650              	.LVL74:
  99:Src/eeprom.c  ****         {
 651              		.loc 1 99 11 view .LVU197
 652 005e 0446     		mov	r4, r0
 653 0060 0028     		cmp	r0, #0
 654 0062 ECD1     		bne	.L55
 101:Src/eeprom.c  ****           /* If erase operation was failed, a Flash error code is returned */
 655              		.loc 1 101 11 is_stmt 1 view .LVU198
 101:Src/eeprom.c  ****           /* If erase operation was failed, a Flash error code is returned */
 656              		.loc 1 101 25 is_stmt 0 view .LVU199
 657 0064 05A9     		add	r1, sp, #20
 658 0066 01A8     		add	r0, sp, #4
 659 0068 FFF7FEFF 		bl	HAL_FLASHEx_Erase
 660              	.LVL75:
 103:Src/eeprom.c  ****           {
 661              		.loc 1 103 11 is_stmt 1 view .LVU200
 103:Src/eeprom.c  ****           {
 662              		.loc 1 103 14 is_stmt 0 view .LVU201
 663 006c 08B9     		cbnz	r0, .L92
 311:Src/eeprom.c  **** }
 664              		.loc 1 311 10 view .LVU202
 665 006e 2546     		mov	r5, r4
 666              	.LVL76:
 311:Src/eeprom.c  **** }
 667              		.loc 1 311 10 view .LVU203
 668 0070 E5E7     		b	.L55
 669              	.LVL77:
 670              	.L92:
 105:Src/eeprom.c  ****           }
 671              		.loc 1 105 13 is_stmt 1 view .LVU204
 105:Src/eeprom.c  ****           }
 672              		.loc 1 105 20 is_stmt 0 view .LVU205
 673 0072 85B2     		uxth	r5, r0
 674              	.LVL78:
 105:Src/eeprom.c  ****           }
 675              		.loc 1 105 20 view .LVU206
ARM GAS  /var/folders/2w/5wbrmvx534s_vk8svtxz852c0000gn/T//ccMMOFI5.s 			page 26


 676 0074 E3E7     		b	.L55
 677              	.LVL79:
 678              	.L90:
 112:Src/eeprom.c  ****         {
 679              		.loc 1 112 9 is_stmt 1 view .LVU207
 112:Src/eeprom.c  ****         {
 680              		.loc 1 112 13 is_stmt 0 view .LVU208
 681 0076 7148     		ldr	r0, .L108
 682 0078 FFF7FEFF 		bl	EE_VerifyPageFullyErased
 683              	.LVL80:
 112:Src/eeprom.c  ****         {
 684              		.loc 1 112 11 view .LVU209
 685 007c 20B9     		cbnz	r0, .L57
 114:Src/eeprom.c  ****           /* If erase operation was failed, a Flash error code is returned */
 686              		.loc 1 114 11 is_stmt 1 view .LVU210
 114:Src/eeprom.c  ****           /* If erase operation was failed, a Flash error code is returned */
 687              		.loc 1 114 25 is_stmt 0 view .LVU211
 688 007e 05A9     		add	r1, sp, #20
 689 0080 01A8     		add	r0, sp, #4
 690 0082 FFF7FEFF 		bl	HAL_FLASHEx_Erase
 691              	.LVL81:
 116:Src/eeprom.c  ****           {
 692              		.loc 1 116 11 is_stmt 1 view .LVU212
 116:Src/eeprom.c  ****           {
 693              		.loc 1 116 14 is_stmt 0 view .LVU213
 694 0086 40B9     		cbnz	r0, .L93
 695              	.LVL82:
 696              	.L57:
 122:Src/eeprom.c  ****         /* If program operation was failed, a Flash error code is returned */
 697              		.loc 1 122 9 is_stmt 1 view .LVU214
 122:Src/eeprom.c  ****         /* If program operation was failed, a Flash error code is returned */
 698              		.loc 1 122 23 is_stmt 0 view .LVU215
 699 0088 0022     		movs	r2, #0
 700 008a 0023     		movs	r3, #0
 701 008c 6C49     		ldr	r1, .L108+4
 702 008e 0120     		movs	r0, #1
 703 0090 FFF7FEFF 		bl	HAL_FLASH_Program
 704              	.LVL83:
 124:Src/eeprom.c  ****         {
 705              		.loc 1 124 9 is_stmt 1 view .LVU216
 124:Src/eeprom.c  ****         {
 706              		.loc 1 124 12 is_stmt 0 view .LVU217
 707 0094 18B9     		cbnz	r0, .L94
 311:Src/eeprom.c  **** }
 708              		.loc 1 311 10 view .LVU218
 709 0096 0025     		movs	r5, #0
 710              	.LVL84:
 311:Src/eeprom.c  **** }
 711              		.loc 1 311 10 view .LVU219
 712 0098 D1E7     		b	.L55
 713              	.LVL85:
 714              	.L93:
 118:Src/eeprom.c  ****           }
 715              		.loc 1 118 13 is_stmt 1 view .LVU220
 118:Src/eeprom.c  ****           }
 716              		.loc 1 118 20 is_stmt 0 view .LVU221
 717 009a 85B2     		uxth	r5, r0
ARM GAS  /var/folders/2w/5wbrmvx534s_vk8svtxz852c0000gn/T//ccMMOFI5.s 			page 27


 718              	.LVL86:
 118:Src/eeprom.c  ****           }
 719              		.loc 1 118 20 view .LVU222
 720 009c CFE7     		b	.L55
 721              	.LVL87:
 722              	.L94:
 126:Src/eeprom.c  ****         }
 723              		.loc 1 126 11 is_stmt 1 view .LVU223
 126:Src/eeprom.c  ****         }
 724              		.loc 1 126 18 is_stmt 0 view .LVU224
 725 009e 85B2     		uxth	r5, r0
 726              	.LVL88:
 126:Src/eeprom.c  ****         }
 727              		.loc 1 126 18 view .LVU225
 728 00a0 CDE7     		b	.L55
 729              	.LVL89:
 730              	.L91:
 136:Src/eeprom.c  ****         }
 731              		.loc 1 136 11 is_stmt 1 view .LVU226
 136:Src/eeprom.c  ****         }
 732              		.loc 1 136 18 is_stmt 0 view .LVU227
 733 00a2 85B2     		uxth	r5, r0
 734              	.LVL90:
 136:Src/eeprom.c  ****         }
 735              		.loc 1 136 18 view .LVU228
 736 00a4 CBE7     		b	.L55
 737              	.LVL91:
 738              	.L50:
 142:Src/eeprom.c  ****       {
 739              		.loc 1 142 7 is_stmt 1 view .LVU229
 142:Src/eeprom.c  ****       {
 740              		.loc 1 142 10 is_stmt 0 view .LVU230
 741 00a6 55B3     		cbz	r5, .L75
 189:Src/eeprom.c  ****       {
 742              		.loc 1 189 12 is_stmt 1 view .LVU231
 189:Src/eeprom.c  ****       {
 743              		.loc 1 189 15 is_stmt 0 view .LVU232
 744 00a8 4FF6FF73 		movw	r3, #65535
 745 00ac 9D42     		cmp	r5, r3
 746 00ae 48D0     		beq	.L95
 215:Src/eeprom.c  ****         /* If erase/program operation was failed, a Flash error code is returned */
 747              		.loc 1 215 9 is_stmt 1 view .LVU233
 215:Src/eeprom.c  ****         /* If erase/program operation was failed, a Flash error code is returned */
 748              		.loc 1 215 23 is_stmt 0 view .LVU234
 749 00b0 FFF7FEFF 		bl	EE_Format
 750              	.LVL92:
 217:Src/eeprom.c  ****         {
 751              		.loc 1 217 9 is_stmt 1 view .LVU235
 217:Src/eeprom.c  ****         {
 752              		.loc 1 217 12 is_stmt 0 view .LVU236
 753 00b4 0028     		cmp	r0, #0
 754 00b6 5CD1     		bne	.L96
 311:Src/eeprom.c  **** }
 755              		.loc 1 311 10 view .LVU237
 756 00b8 0025     		movs	r5, #0
 757              	.LVL93:
 311:Src/eeprom.c  **** }
ARM GAS  /var/folders/2w/5wbrmvx534s_vk8svtxz852c0000gn/T//ccMMOFI5.s 			page 28


 758              		.loc 1 311 10 view .LVU238
 759 00ba C0E7     		b	.L55
 760              	.LVL94:
 761              	.L98:
 149:Src/eeprom.c  ****           }
 762              		.loc 1 149 13 is_stmt 1 view .LVU239
 149:Src/eeprom.c  ****           }
 763              		.loc 1 149 15 is_stmt 0 view .LVU240
 764 00bc 27B2     		sxth	r7, r4
 765              	.LVL95:
 149:Src/eeprom.c  ****           }
 766              		.loc 1 149 15 view .LVU241
 767 00be 0CE0     		b	.L60
 768              	.L61:
 145:Src/eeprom.c  ****         {
 769              		.loc 1 145 46 is_stmt 1 discriminator 2 view .LVU242
 145:Src/eeprom.c  ****         {
 770              		.loc 1 145 52 is_stmt 0 discriminator 2 view .LVU243
 771 00c0 0134     		adds	r4, r4, #1
 772              	.LVL96:
 145:Src/eeprom.c  ****         {
 773              		.loc 1 145 52 discriminator 2 view .LVU244
 774 00c2 A4B2     		uxth	r4, r4
 775              	.LVL97:
 776              	.L58:
 145:Src/eeprom.c  ****         {
 777              		.loc 1 145 26 is_stmt 1 discriminator 1 view .LVU245
 145:Src/eeprom.c  ****         {
 778              		.loc 1 145 9 is_stmt 0 discriminator 1 view .LVU246
 779 00c4 122C     		cmp	r4, #18
 780 00c6 1ED8     		bhi	.L97
 147:Src/eeprom.c  ****           {
 781              		.loc 1 147 11 is_stmt 1 view .LVU247
 147:Src/eeprom.c  ****           {
 782              		.loc 1 147 17 is_stmt 0 view .LVU248
 783 00c8 5C4B     		ldr	r3, .L108
 784 00ca DB88     		ldrh	r3, [r3, #6]
 785 00cc 9BB2     		uxth	r3, r3
 147:Src/eeprom.c  ****           {
 786              		.loc 1 147 60 view .LVU249
 787 00ce 2646     		mov	r6, r4
 147:Src/eeprom.c  ****           {
 788              		.loc 1 147 76 view .LVU250
 789 00d0 5C4A     		ldr	r2, .L108+8
 790 00d2 32F81400 		ldrh	r0, [r2, r4, lsl #1]
 147:Src/eeprom.c  ****           {
 791              		.loc 1 147 14 view .LVU251
 792 00d6 8342     		cmp	r3, r0
 793 00d8 F0D0     		beq	.L98
 794              	.L60:
 151:Src/eeprom.c  ****           {
 795              		.loc 1 151 11 is_stmt 1 view .LVU252
 151:Src/eeprom.c  ****           {
 796              		.loc 1 151 14 is_stmt 0 view .LVU253
 797 00da BE42     		cmp	r6, r7
 798 00dc F0D0     		beq	.L61
 154:Src/eeprom.c  ****             /* In case variable corresponding to the virtual address was found */
ARM GAS  /var/folders/2w/5wbrmvx534s_vk8svtxz852c0000gn/T//ccMMOFI5.s 			page 29


 799              		.loc 1 154 13 is_stmt 1 view .LVU254
 154:Src/eeprom.c  ****             /* In case variable corresponding to the virtual address was found */
 800              		.loc 1 154 26 is_stmt 0 view .LVU255
 801 00de 5A49     		ldr	r1, .L108+12
 802 00e0 FFF7FEFF 		bl	EE_ReadVariable
 803              	.LVL98:
 156:Src/eeprom.c  ****             {
 804              		.loc 1 156 13 is_stmt 1 view .LVU256
 156:Src/eeprom.c  ****             {
 805              		.loc 1 156 16 is_stmt 0 view .LVU257
 806 00e4 0128     		cmp	r0, #1
 807 00e6 EBD0     		beq	.L61
 159:Src/eeprom.c  ****               /* If program operation was failed, a Flash error code is returned */
 808              		.loc 1 159 15 is_stmt 1 view .LVU258
 159:Src/eeprom.c  ****               /* If program operation was failed, a Flash error code is returned */
 809              		.loc 1 159 30 is_stmt 0 view .LVU259
 810 00e8 574B     		ldr	r3, .L108+12
 811 00ea 1988     		ldrh	r1, [r3]
 812 00ec 554B     		ldr	r3, .L108+8
 813 00ee 33F81600 		ldrh	r0, [r3, r6, lsl #1]
 814              	.LVL99:
 159:Src/eeprom.c  ****               /* If program operation was failed, a Flash error code is returned */
 815              		.loc 1 159 30 view .LVU260
 816 00f2 FFF7FEFF 		bl	EE_VerifyPageFullWriteVariable
 817              	.LVL100:
 161:Src/eeprom.c  ****               {
 818              		.loc 1 161 15 is_stmt 1 view .LVU261
 161:Src/eeprom.c  ****               {
 819              		.loc 1 161 18 is_stmt 0 view .LVU262
 820 00f6 0028     		cmp	r0, #0
 821 00f8 E2D0     		beq	.L61
 163:Src/eeprom.c  ****               }
 822              		.loc 1 163 24 view .LVU263
 823 00fa 0546     		mov	r5, r0
 824              	.LVL101:
 163:Src/eeprom.c  ****               }
 825              		.loc 1 163 24 view .LVU264
 826 00fc 9FE7     		b	.L55
 827              	.LVL102:
 828              	.L75:
 145:Src/eeprom.c  ****         {
 829              		.loc 1 145 21 view .LVU265
 830 00fe 2C46     		mov	r4, r5
  76:Src/eeprom.c  ****   HAL_StatusTypeDef  flashstatus;
 831              		.loc 1 76 11 view .LVU266
 832 0100 4FF0FF37 		mov	r7, #-1
 833 0104 DEE7     		b	.L58
 834              	.LVL103:
 835              	.L97:
 169:Src/eeprom.c  ****         /* If program operation was failed, a Flash error code is returned */
 836              		.loc 1 169 9 is_stmt 1 view .LVU267
 169:Src/eeprom.c  ****         /* If program operation was failed, a Flash error code is returned */
 837              		.loc 1 169 23 is_stmt 0 view .LVU268
 838 0106 0022     		movs	r2, #0
 839 0108 0023     		movs	r3, #0
 840 010a 4C49     		ldr	r1, .L108
 841 010c 0120     		movs	r0, #1
ARM GAS  /var/folders/2w/5wbrmvx534s_vk8svtxz852c0000gn/T//ccMMOFI5.s 			page 30


 842 010e FFF7FEFF 		bl	HAL_FLASH_Program
 843              	.LVL104:
 171:Src/eeprom.c  ****         {
 844              		.loc 1 171 9 is_stmt 1 view .LVU269
 171:Src/eeprom.c  ****         {
 845              		.loc 1 171 12 is_stmt 0 view .LVU270
 846 0112 08B1     		cbz	r0, .L63
 173:Src/eeprom.c  ****         }
 847              		.loc 1 173 11 is_stmt 1 view .LVU271
 173:Src/eeprom.c  ****         }
 848              		.loc 1 173 18 is_stmt 0 view .LVU272
 849 0114 85B2     		uxth	r5, r0
 850              	.LVL105:
 173:Src/eeprom.c  ****         }
 851              		.loc 1 173 18 view .LVU273
 852 0116 92E7     		b	.L55
 853              	.LVL106:
 854              	.L63:
 175:Src/eeprom.c  ****         s_eraseinit.PageAddress = PAGE1_ID;
 855              		.loc 1 175 9 is_stmt 1 view .LVU274
 175:Src/eeprom.c  ****         s_eraseinit.PageAddress = PAGE1_ID;
 856              		.loc 1 175 33 is_stmt 0 view .LVU275
 857 0118 0023     		movs	r3, #0
 858 011a 0193     		str	r3, [sp, #4]
 176:Src/eeprom.c  ****         s_eraseinit.NbPages     = 1;
 859              		.loc 1 176 9 is_stmt 1 view .LVU276
 176:Src/eeprom.c  ****         s_eraseinit.NbPages     = 1;
 860              		.loc 1 176 33 is_stmt 0 view .LVU277
 861 011c 4B4B     		ldr	r3, .L108+16
 862 011e 0393     		str	r3, [sp, #12]
 177:Src/eeprom.c  ****         /* Erase Page1 */
 863              		.loc 1 177 9 is_stmt 1 view .LVU278
 177:Src/eeprom.c  ****         /* Erase Page1 */
 864              		.loc 1 177 33 is_stmt 0 view .LVU279
 865 0120 0123     		movs	r3, #1
 866 0122 0493     		str	r3, [sp, #16]
 179:Src/eeprom.c  ****         {
 867              		.loc 1 179 9 is_stmt 1 view .LVU280
 179:Src/eeprom.c  ****         {
 868              		.loc 1 179 13 is_stmt 0 view .LVU281
 869 0124 4648     		ldr	r0, .L108+4
 870              	.LVL107:
 179:Src/eeprom.c  ****         {
 871              		.loc 1 179 13 view .LVU282
 872 0126 FFF7FEFF 		bl	EE_VerifyPageFullyErased
 873              	.LVL108:
 179:Src/eeprom.c  ****         {
 874              		.loc 1 179 11 view .LVU283
 875 012a 0446     		mov	r4, r0
 876              	.LVL109:
 179:Src/eeprom.c  ****         {
 877              		.loc 1 179 11 view .LVU284
 878 012c 0028     		cmp	r0, #0
 879 012e 86D1     		bne	.L55
 181:Src/eeprom.c  ****           /* If erase operation was failed, a Flash error code is returned */
 880              		.loc 1 181 11 is_stmt 1 view .LVU285
 181:Src/eeprom.c  ****           /* If erase operation was failed, a Flash error code is returned */
ARM GAS  /var/folders/2w/5wbrmvx534s_vk8svtxz852c0000gn/T//ccMMOFI5.s 			page 31


 881              		.loc 1 181 25 is_stmt 0 view .LVU286
 882 0130 05A9     		add	r1, sp, #20
 883 0132 01A8     		add	r0, sp, #4
 884 0134 FFF7FEFF 		bl	HAL_FLASHEx_Erase
 885              	.LVL110:
 183:Src/eeprom.c  ****           {
 886              		.loc 1 183 11 is_stmt 1 view .LVU287
 183:Src/eeprom.c  ****           {
 887              		.loc 1 183 14 is_stmt 0 view .LVU288
 888 0138 08B9     		cbnz	r0, .L99
 311:Src/eeprom.c  **** }
 889              		.loc 1 311 10 view .LVU289
 890 013a 2546     		mov	r5, r4
 891              	.LVL111:
 311:Src/eeprom.c  **** }
 892              		.loc 1 311 10 view .LVU290
 893 013c 7FE7     		b	.L55
 894              	.LVL112:
 895              	.L99:
 185:Src/eeprom.c  ****           }
 896              		.loc 1 185 13 is_stmt 1 view .LVU291
 185:Src/eeprom.c  ****           }
 897              		.loc 1 185 20 is_stmt 0 view .LVU292
 898 013e 85B2     		uxth	r5, r0
 899              	.LVL113:
 185:Src/eeprom.c  ****           }
 900              		.loc 1 185 20 view .LVU293
 901 0140 7DE7     		b	.L55
 902              	.LVL114:
 903              	.L95:
 191:Src/eeprom.c  ****         s_eraseinit.PageAddress = PAGE1_ID;
 904              		.loc 1 191 9 is_stmt 1 view .LVU294
 192:Src/eeprom.c  ****         s_eraseinit.NbPages     = 1;
 905              		.loc 1 192 9 view .LVU295
 192:Src/eeprom.c  ****         s_eraseinit.NbPages     = 1;
 906              		.loc 1 192 33 is_stmt 0 view .LVU296
 907 0142 424B     		ldr	r3, .L108+16
 908 0144 0393     		str	r3, [sp, #12]
 193:Src/eeprom.c  ****         /* Erase Page1 */
 909              		.loc 1 193 9 is_stmt 1 view .LVU297
 195:Src/eeprom.c  ****         {
 910              		.loc 1 195 9 view .LVU298
 195:Src/eeprom.c  ****         {
 911              		.loc 1 195 13 is_stmt 0 view .LVU299
 912 0146 3E48     		ldr	r0, .L108+4
 913 0148 FFF7FEFF 		bl	EE_VerifyPageFullyErased
 914              	.LVL115:
 195:Src/eeprom.c  ****         {
 915              		.loc 1 195 11 view .LVU300
 916 014c 20B9     		cbnz	r0, .L65
 197:Src/eeprom.c  ****           /* If erase operation was failed, a Flash error code is returned */
 917              		.loc 1 197 11 is_stmt 1 view .LVU301
 197:Src/eeprom.c  ****           /* If erase operation was failed, a Flash error code is returned */
 918              		.loc 1 197 25 is_stmt 0 view .LVU302
 919 014e 05A9     		add	r1, sp, #20
 920 0150 01A8     		add	r0, sp, #4
 921 0152 FFF7FEFF 		bl	HAL_FLASHEx_Erase
ARM GAS  /var/folders/2w/5wbrmvx534s_vk8svtxz852c0000gn/T//ccMMOFI5.s 			page 32


 922              	.LVL116:
 199:Src/eeprom.c  ****           {
 923              		.loc 1 199 11 is_stmt 1 view .LVU303
 199:Src/eeprom.c  ****           {
 924              		.loc 1 199 14 is_stmt 0 view .LVU304
 925 0156 40B9     		cbnz	r0, .L100
 926              	.LVL117:
 927              	.L65:
 205:Src/eeprom.c  ****         /* If program operation was failed, a Flash error code is returned */
 928              		.loc 1 205 9 is_stmt 1 view .LVU305
 205:Src/eeprom.c  ****         /* If program operation was failed, a Flash error code is returned */
 929              		.loc 1 205 23 is_stmt 0 view .LVU306
 930 0158 0022     		movs	r2, #0
 931 015a 0023     		movs	r3, #0
 932 015c 3749     		ldr	r1, .L108
 933 015e 0120     		movs	r0, #1
 934 0160 FFF7FEFF 		bl	HAL_FLASH_Program
 935              	.LVL118:
 207:Src/eeprom.c  ****         {
 936              		.loc 1 207 9 is_stmt 1 view .LVU307
 207:Src/eeprom.c  ****         {
 937              		.loc 1 207 12 is_stmt 0 view .LVU308
 938 0164 18B9     		cbnz	r0, .L101
 311:Src/eeprom.c  **** }
 939              		.loc 1 311 10 view .LVU309
 940 0166 0025     		movs	r5, #0
 941              	.LVL119:
 311:Src/eeprom.c  **** }
 942              		.loc 1 311 10 view .LVU310
 943 0168 69E7     		b	.L55
 944              	.LVL120:
 945              	.L100:
 201:Src/eeprom.c  ****           }
 946              		.loc 1 201 13 is_stmt 1 view .LVU311
 201:Src/eeprom.c  ****           }
 947              		.loc 1 201 20 is_stmt 0 view .LVU312
 948 016a 85B2     		uxth	r5, r0
 949              	.LVL121:
 201:Src/eeprom.c  ****           }
 950              		.loc 1 201 20 view .LVU313
 951 016c 67E7     		b	.L55
 952              	.LVL122:
 953              	.L101:
 209:Src/eeprom.c  ****         }
 954              		.loc 1 209 11 is_stmt 1 view .LVU314
 209:Src/eeprom.c  ****         }
 955              		.loc 1 209 18 is_stmt 0 view .LVU315
 956 016e 85B2     		uxth	r5, r0
 957              	.LVL123:
 209:Src/eeprom.c  ****         }
 958              		.loc 1 209 18 view .LVU316
 959 0170 65E7     		b	.L55
 960              	.LVL124:
 961              	.L96:
 219:Src/eeprom.c  ****         }
 962              		.loc 1 219 11 is_stmt 1 view .LVU317
 219:Src/eeprom.c  ****         }
ARM GAS  /var/folders/2w/5wbrmvx534s_vk8svtxz852c0000gn/T//ccMMOFI5.s 			page 33


 963              		.loc 1 219 18 is_stmt 0 view .LVU318
 964 0172 85B2     		uxth	r5, r0
 965              	.LVL125:
 219:Src/eeprom.c  ****         }
 966              		.loc 1 219 18 view .LVU319
 967 0174 63E7     		b	.L55
 968              	.LVL126:
 969              	.L87:
 225:Src/eeprom.c  ****       {
 970              		.loc 1 225 7 is_stmt 1 view .LVU320
 225:Src/eeprom.c  ****       {
 971              		.loc 1 225 10 is_stmt 0 view .LVU321
 972 0176 3DB1     		cbz	r5, .L102
 235:Src/eeprom.c  ****       {
 973              		.loc 1 235 12 is_stmt 1 view .LVU322
 235:Src/eeprom.c  ****       {
 974              		.loc 1 235 15 is_stmt 0 view .LVU323
 975 0178 4FF6FF73 		movw	r3, #65535
 976 017c 9D42     		cmp	r5, r3
 977 017e 0AD0     		beq	.L103
 254:Src/eeprom.c  ****         {
 978              		.loc 1 254 21 view .LVU324
 979 0180 3446     		mov	r4, r6
  76:Src/eeprom.c  ****   HAL_StatusTypeDef  flashstatus;
 980              		.loc 1 76 11 view .LVU325
 981 0182 4FF0FF37 		mov	r7, #-1
 982 0186 1CE0     		b	.L67
 983              	.L102:
 228:Src/eeprom.c  ****         /* If erase/program operation was failed, a Flash error code is returned */
 984              		.loc 1 228 9 is_stmt 1 view .LVU326
 228:Src/eeprom.c  ****         /* If erase/program operation was failed, a Flash error code is returned */
 985              		.loc 1 228 23 is_stmt 0 view .LVU327
 986 0188 FFF7FEFF 		bl	EE_Format
 987              	.LVL127:
 230:Src/eeprom.c  ****         {
 988              		.loc 1 230 9 is_stmt 1 view .LVU328
 230:Src/eeprom.c  ****         {
 989              		.loc 1 230 12 is_stmt 0 view .LVU329
 990 018c 0028     		cmp	r0, #0
 991 018e 3FF456AF 		beq	.L55
 232:Src/eeprom.c  ****         }
 992              		.loc 1 232 11 is_stmt 1 view .LVU330
 232:Src/eeprom.c  ****         }
 993              		.loc 1 232 18 is_stmt 0 view .LVU331
 994 0192 85B2     		uxth	r5, r0
 995              	.LVL128:
 232:Src/eeprom.c  ****         }
 996              		.loc 1 232 18 view .LVU332
 997 0194 53E7     		b	.L55
 998              	.LVL129:
 999              	.L103:
 237:Src/eeprom.c  ****         s_eraseinit.PageAddress = PAGE1_ID;
 1000              		.loc 1 237 9 is_stmt 1 view .LVU333
 238:Src/eeprom.c  ****         s_eraseinit.NbPages     = 1;
 1001              		.loc 1 238 9 view .LVU334
 238:Src/eeprom.c  ****         s_eraseinit.NbPages     = 1;
 1002              		.loc 1 238 33 is_stmt 0 view .LVU335
ARM GAS  /var/folders/2w/5wbrmvx534s_vk8svtxz852c0000gn/T//ccMMOFI5.s 			page 34


 1003 0196 2D4B     		ldr	r3, .L108+16
 1004 0198 0393     		str	r3, [sp, #12]
 239:Src/eeprom.c  ****         /* Erase Page1 */
 1005              		.loc 1 239 9 is_stmt 1 view .LVU336
 241:Src/eeprom.c  ****         {
 1006              		.loc 1 241 9 view .LVU337
 241:Src/eeprom.c  ****         {
 1007              		.loc 1 241 13 is_stmt 0 view .LVU338
 1008 019a 2948     		ldr	r0, .L108+4
 1009 019c FFF7FEFF 		bl	EE_VerifyPageFullyErased
 1010              	.LVL130:
 241:Src/eeprom.c  ****         {
 1011              		.loc 1 241 11 view .LVU339
 1012 01a0 0546     		mov	r5, r0
 1013              	.LVL131:
 241:Src/eeprom.c  ****         {
 1014              		.loc 1 241 11 view .LVU340
 1015 01a2 08B1     		cbz	r0, .L104
 311:Src/eeprom.c  **** }
 1016              		.loc 1 311 10 view .LVU341
 1017 01a4 3546     		mov	r5, r6
 1018 01a6 4AE7     		b	.L55
 1019              	.L104:
 243:Src/eeprom.c  ****           /* If erase operation was failed, a Flash error code is returned */
 1020              		.loc 1 243 11 is_stmt 1 view .LVU342
 243:Src/eeprom.c  ****           /* If erase operation was failed, a Flash error code is returned */
 1021              		.loc 1 243 25 is_stmt 0 view .LVU343
 1022 01a8 05A9     		add	r1, sp, #20
 1023 01aa 01A8     		add	r0, sp, #4
 1024 01ac FFF7FEFF 		bl	HAL_FLASHEx_Erase
 1025              	.LVL132:
 245:Src/eeprom.c  ****           {
 1026              		.loc 1 245 11 is_stmt 1 view .LVU344
 245:Src/eeprom.c  ****           {
 1027              		.loc 1 245 14 is_stmt 0 view .LVU345
 1028 01b0 0028     		cmp	r0, #0
 1029 01b2 3FF444AF 		beq	.L55
 247:Src/eeprom.c  ****           }
 1030              		.loc 1 247 13 is_stmt 1 view .LVU346
 247:Src/eeprom.c  ****           }
 1031              		.loc 1 247 20 is_stmt 0 view .LVU347
 1032 01b6 85B2     		uxth	r5, r0
 1033 01b8 41E7     		b	.L55
 1034              	.LVL133:
 1035              	.L106:
 258:Src/eeprom.c  ****           }
 1036              		.loc 1 258 13 is_stmt 1 view .LVU348
 258:Src/eeprom.c  ****           }
 1037              		.loc 1 258 15 is_stmt 0 view .LVU349
 1038 01ba 27B2     		sxth	r7, r4
 1039              	.LVL134:
 258:Src/eeprom.c  ****           }
 1040              		.loc 1 258 15 view .LVU350
 1041 01bc 0CE0     		b	.L68
 1042              	.L69:
 254:Src/eeprom.c  ****         {
 1043              		.loc 1 254 46 is_stmt 1 discriminator 2 view .LVU351
ARM GAS  /var/folders/2w/5wbrmvx534s_vk8svtxz852c0000gn/T//ccMMOFI5.s 			page 35


 254:Src/eeprom.c  ****         {
 1044              		.loc 1 254 52 is_stmt 0 discriminator 2 view .LVU352
 1045 01be 0134     		adds	r4, r4, #1
 1046              	.LVL135:
 254:Src/eeprom.c  ****         {
 1047              		.loc 1 254 52 discriminator 2 view .LVU353
 1048 01c0 A4B2     		uxth	r4, r4
 1049              	.LVL136:
 1050              	.L67:
 254:Src/eeprom.c  ****         {
 1051              		.loc 1 254 26 is_stmt 1 discriminator 1 view .LVU354
 254:Src/eeprom.c  ****         {
 1052              		.loc 1 254 9 is_stmt 0 discriminator 1 view .LVU355
 1053 01c2 122C     		cmp	r4, #18
 1054 01c4 1AD8     		bhi	.L105
 256:Src/eeprom.c  ****           {
 1055              		.loc 1 256 11 is_stmt 1 view .LVU356
 256:Src/eeprom.c  ****           {
 1056              		.loc 1 256 16 is_stmt 0 view .LVU357
 1057 01c6 1E4B     		ldr	r3, .L108+4
 1058 01c8 DB88     		ldrh	r3, [r3, #6]
 1059 01ca 9BB2     		uxth	r3, r3
 256:Src/eeprom.c  ****           {
 1060              		.loc 1 256 59 view .LVU358
 1061 01cc 2546     		mov	r5, r4
 256:Src/eeprom.c  ****           {
 1062              		.loc 1 256 75 view .LVU359
 1063 01ce 1D4A     		ldr	r2, .L108+8
 1064 01d0 32F81400 		ldrh	r0, [r2, r4, lsl #1]
 256:Src/eeprom.c  ****           {
 1065              		.loc 1 256 14 view .LVU360
 1066 01d4 8342     		cmp	r3, r0
 1067 01d6 F0D0     		beq	.L106
 1068              	.L68:
 260:Src/eeprom.c  ****           {
 1069              		.loc 1 260 11 is_stmt 1 view .LVU361
 260:Src/eeprom.c  ****           {
 1070              		.loc 1 260 14 is_stmt 0 view .LVU362
 1071 01d8 BD42     		cmp	r5, r7
 1072 01da F0D0     		beq	.L69
 263:Src/eeprom.c  ****             /* In case variable corresponding to the virtual address was found */
 1073              		.loc 1 263 13 is_stmt 1 view .LVU363
 263:Src/eeprom.c  ****             /* In case variable corresponding to the virtual address was found */
 1074              		.loc 1 263 26 is_stmt 0 view .LVU364
 1075 01dc 1A49     		ldr	r1, .L108+12
 1076 01de FFF7FEFF 		bl	EE_ReadVariable
 1077              	.LVL137:
 265:Src/eeprom.c  ****             {
 1078              		.loc 1 265 13 is_stmt 1 view .LVU365
 265:Src/eeprom.c  ****             {
 1079              		.loc 1 265 16 is_stmt 0 view .LVU366
 1080 01e2 0128     		cmp	r0, #1
 1081 01e4 EBD0     		beq	.L69
 268:Src/eeprom.c  ****               /* If program operation was failed, a Flash error code is returned */
 1082              		.loc 1 268 15 is_stmt 1 view .LVU367
 268:Src/eeprom.c  ****               /* If program operation was failed, a Flash error code is returned */
 1083              		.loc 1 268 30 is_stmt 0 view .LVU368
ARM GAS  /var/folders/2w/5wbrmvx534s_vk8svtxz852c0000gn/T//ccMMOFI5.s 			page 36


 1084 01e6 184B     		ldr	r3, .L108+12
 1085 01e8 1988     		ldrh	r1, [r3]
 1086 01ea 164B     		ldr	r3, .L108+8
 1087 01ec 33F81500 		ldrh	r0, [r3, r5, lsl #1]
 1088              	.LVL138:
 268:Src/eeprom.c  ****               /* If program operation was failed, a Flash error code is returned */
 1089              		.loc 1 268 30 view .LVU369
 1090 01f0 FFF7FEFF 		bl	EE_VerifyPageFullWriteVariable
 1091              	.LVL139:
 270:Src/eeprom.c  ****               {
 1092              		.loc 1 270 15 is_stmt 1 view .LVU370
 270:Src/eeprom.c  ****               {
 1093              		.loc 1 270 18 is_stmt 0 view .LVU371
 1094 01f4 0546     		mov	r5, r0
 1095 01f6 0028     		cmp	r0, #0
 1096 01f8 E1D0     		beq	.L69
 1097 01fa 20E7     		b	.L55
 1098              	.LVL140:
 1099              	.L105:
 278:Src/eeprom.c  ****         /* If program operation was failed, a Flash error code is returned */
 1100              		.loc 1 278 9 is_stmt 1 view .LVU372
 278:Src/eeprom.c  ****         /* If program operation was failed, a Flash error code is returned */
 1101              		.loc 1 278 23 is_stmt 0 view .LVU373
 1102 01fc 0022     		movs	r2, #0
 1103 01fe 0023     		movs	r3, #0
 1104 0200 0F49     		ldr	r1, .L108+4
 1105 0202 0120     		movs	r0, #1
 1106 0204 FFF7FEFF 		bl	HAL_FLASH_Program
 1107              	.LVL141:
 280:Src/eeprom.c  ****         {
 1108              		.loc 1 280 9 is_stmt 1 view .LVU374
 280:Src/eeprom.c  ****         {
 1109              		.loc 1 280 12 is_stmt 0 view .LVU375
 1110 0208 08B1     		cbz	r0, .L71
 282:Src/eeprom.c  ****         }
 1111              		.loc 1 282 11 is_stmt 1 view .LVU376
 282:Src/eeprom.c  ****         }
 1112              		.loc 1 282 18 is_stmt 0 view .LVU377
 1113 020a 85B2     		uxth	r5, r0
 1114 020c 17E7     		b	.L55
 1115              	.L71:
 284:Src/eeprom.c  ****         s_eraseinit.PageAddress = PAGE0_ID;
 1116              		.loc 1 284 9 is_stmt 1 view .LVU378
 284:Src/eeprom.c  ****         s_eraseinit.PageAddress = PAGE0_ID;
 1117              		.loc 1 284 33 is_stmt 0 view .LVU379
 1118 020e 0023     		movs	r3, #0
 1119 0210 0193     		str	r3, [sp, #4]
 285:Src/eeprom.c  ****         s_eraseinit.NbPages     = 1;
 1120              		.loc 1 285 9 is_stmt 1 view .LVU380
 285:Src/eeprom.c  ****         s_eraseinit.NbPages     = 1;
 1121              		.loc 1 285 33 is_stmt 0 view .LVU381
 1122 0212 0A48     		ldr	r0, .L108
 1123              	.LVL142:
 285:Src/eeprom.c  ****         s_eraseinit.NbPages     = 1;
 1124              		.loc 1 285 33 view .LVU382
 1125 0214 0390     		str	r0, [sp, #12]
 286:Src/eeprom.c  ****         /* Erase Page0 */
ARM GAS  /var/folders/2w/5wbrmvx534s_vk8svtxz852c0000gn/T//ccMMOFI5.s 			page 37


 1126              		.loc 1 286 9 is_stmt 1 view .LVU383
 286:Src/eeprom.c  ****         /* Erase Page0 */
 1127              		.loc 1 286 33 is_stmt 0 view .LVU384
 1128 0216 0123     		movs	r3, #1
 1129 0218 0493     		str	r3, [sp, #16]
 288:Src/eeprom.c  ****         {
 1130              		.loc 1 288 9 is_stmt 1 view .LVU385
 288:Src/eeprom.c  ****         {
 1131              		.loc 1 288 13 is_stmt 0 view .LVU386
 1132 021a FFF7FEFF 		bl	EE_VerifyPageFullyErased
 1133              	.LVL143:
 288:Src/eeprom.c  ****         {
 1134              		.loc 1 288 11 view .LVU387
 1135 021e 0546     		mov	r5, r0
 1136 0220 08B1     		cbz	r0, .L107
 311:Src/eeprom.c  **** }
 1137              		.loc 1 311 10 view .LVU388
 1138 0222 3546     		mov	r5, r6
 1139 0224 0BE7     		b	.L55
 1140              	.L107:
 290:Src/eeprom.c  ****           /* If erase operation was failed, a Flash error code is returned */
 1141              		.loc 1 290 11 is_stmt 1 view .LVU389
 290:Src/eeprom.c  ****           /* If erase operation was failed, a Flash error code is returned */
 1142              		.loc 1 290 25 is_stmt 0 view .LVU390
 1143 0226 05A9     		add	r1, sp, #20
 1144 0228 01A8     		add	r0, sp, #4
 1145 022a FFF7FEFF 		bl	HAL_FLASHEx_Erase
 1146              	.LVL144:
 292:Src/eeprom.c  ****           {
 1147              		.loc 1 292 11 is_stmt 1 view .LVU391
 292:Src/eeprom.c  ****           {
 1148              		.loc 1 292 14 is_stmt 0 view .LVU392
 1149 022e 0028     		cmp	r0, #0
 1150 0230 3FF405AF 		beq	.L55
 294:Src/eeprom.c  ****           }
 1151              		.loc 1 294 13 is_stmt 1 view .LVU393
 294:Src/eeprom.c  ****           }
 1152              		.loc 1 294 20 is_stmt 0 view .LVU394
 1153 0234 85B2     		uxth	r5, r0
 1154 0236 02E7     		b	.L55
 1155              	.LVL145:
 1156              	.L88:
 306:Src/eeprom.c  ****       }
 1157              		.loc 1 306 9 is_stmt 1 view .LVU395
 306:Src/eeprom.c  ****       }
 1158              		.loc 1 306 16 is_stmt 0 view .LVU396
 1159 0238 85B2     		uxth	r5, r0
 1160              	.LVL146:
 306:Src/eeprom.c  ****       }
 1161              		.loc 1 306 16 view .LVU397
 1162 023a 00E7     		b	.L55
 1163              	.L109:
 1164              		.align	2
 1165              	.L108:
 1166 023c 00000108 		.word	134283264
 1167 0240 00000208 		.word	134348800
 1168 0244 00000000 		.word	VirtAddVarTab
ARM GAS  /var/folders/2w/5wbrmvx534s_vk8svtxz852c0000gn/T//ccMMOFI5.s 			page 38


 1169 0248 00000000 		.word	.LANCHOR0
 1170 024c 00800108 		.word	134316032
 1171              		.cfi_endproc
 1172              	.LFE66:
 1174              		.section	.text.EE_PageTransfer,"ax",%progbits
 1175              		.align	1
 1176              		.syntax unified
 1177              		.thumb
 1178              		.thumb_func
 1180              	EE_PageTransfer:
 1181              	.LVL147:
 1182              	.LFB73:
 617:Src/eeprom.c  **** 
 618:Src/eeprom.c  **** /**
 619:Src/eeprom.c  ****   * @brief  Transfers last updated variables data from the full Page to
 620:Src/eeprom.c  ****   *   an empty one.
 621:Src/eeprom.c  ****   * @param  VirtAddress: 16 bit virtual address of the variable
 622:Src/eeprom.c  ****   * @param  Data: 16 bit data to be written as variable value
 623:Src/eeprom.c  ****   * @retval Success or error status:
 624:Src/eeprom.c  ****   *           - FLASH_COMPLETE: on success
 625:Src/eeprom.c  ****   *           - PAGE_FULL: if valid page is full
 626:Src/eeprom.c  ****   *           - NO_VALID_PAGE: if no valid page was found
 627:Src/eeprom.c  ****   *           - Flash error code: on write Flash error
 628:Src/eeprom.c  ****   */
 629:Src/eeprom.c  **** static uint16_t EE_PageTransfer(uint16_t VirtAddress, uint16_t Data)
 630:Src/eeprom.c  **** {
 1183              		.loc 1 630 1 is_stmt 1 view -0
 1184              		.cfi_startproc
 1185              		@ args = 0, pretend = 0, frame = 24
 1186              		@ frame_needed = 0, uses_anonymous_args = 0
 1187              		.loc 1 630 1 is_stmt 0 view .LVU399
 1188 0000 2DE9F041 		push	{r4, r5, r6, r7, r8, lr}
 1189              	.LCFI10:
 1190              		.cfi_def_cfa_offset 24
 1191              		.cfi_offset 4, -24
 1192              		.cfi_offset 5, -20
 1193              		.cfi_offset 6, -16
 1194              		.cfi_offset 7, -12
 1195              		.cfi_offset 8, -8
 1196              		.cfi_offset 14, -4
 1197 0004 86B0     		sub	sp, sp, #24
 1198              	.LCFI11:
 1199              		.cfi_def_cfa_offset 48
 1200 0006 0546     		mov	r5, r0
 1201 0008 0E46     		mov	r6, r1
 631:Src/eeprom.c  ****   HAL_StatusTypeDef flashstatus = HAL_OK;
 1202              		.loc 1 631 3 is_stmt 1 view .LVU400
 1203              	.LVL148:
 632:Src/eeprom.c  ****   uint32_t newpageaddress = EEPROM_START_ADDRESS;
 1204              		.loc 1 632 3 view .LVU401
 633:Src/eeprom.c  ****   uint32_t oldpageid = 0;
 1205              		.loc 1 633 3 view .LVU402
 634:Src/eeprom.c  ****   uint16_t validpage = PAGE0, varidx = 0;
 1206              		.loc 1 634 3 view .LVU403
 635:Src/eeprom.c  ****   uint16_t eepromstatus = 0, readstatus = 0;
 1207              		.loc 1 635 3 view .LVU404
 636:Src/eeprom.c  ****   uint32_t page_error = 0;
ARM GAS  /var/folders/2w/5wbrmvx534s_vk8svtxz852c0000gn/T//ccMMOFI5.s 			page 39


 1208              		.loc 1 636 3 view .LVU405
 1209              		.loc 1 636 12 is_stmt 0 view .LVU406
 1210 000a 0020     		movs	r0, #0
 1211              	.LVL149:
 1212              		.loc 1 636 12 view .LVU407
 1213 000c 0590     		str	r0, [sp, #20]
 637:Src/eeprom.c  ****   FLASH_EraseInitTypeDef s_eraseinit;
 1214              		.loc 1 637 3 is_stmt 1 view .LVU408
 638:Src/eeprom.c  **** 
 639:Src/eeprom.c  ****   /* Get active Page for read operation */
 640:Src/eeprom.c  ****   validpage = EE_FindValidPage(READ_FROM_VALID_PAGE);
 1215              		.loc 1 640 3 view .LVU409
 1216              		.loc 1 640 15 is_stmt 0 view .LVU410
 1217 000e FFF7FEFF 		bl	EE_FindValidPage
 1218              	.LVL150:
 641:Src/eeprom.c  **** 
 642:Src/eeprom.c  ****   if (validpage == PAGE1)       /* Page1 valid */
 1219              		.loc 1 642 3 is_stmt 1 view .LVU411
 1220              		.loc 1 642 6 is_stmt 0 view .LVU412
 1221 0012 4028     		cmp	r0, #64
 1222 0014 11D0     		beq	.L119
 643:Src/eeprom.c  ****   {
 644:Src/eeprom.c  ****     /* New page address where variable will be moved to */
 645:Src/eeprom.c  ****     newpageaddress = PAGE0_BASE_ADDRESS;
 646:Src/eeprom.c  **** 
 647:Src/eeprom.c  ****     /* Old page ID where variable will be taken from */
 648:Src/eeprom.c  ****     oldpageid = PAGE1_ID;
 649:Src/eeprom.c  ****   }
 650:Src/eeprom.c  ****   else if (validpage == PAGE0)  /* Page0 valid */
 1223              		.loc 1 650 8 is_stmt 1 view .LVU413
 1224              		.loc 1 650 11 is_stmt 0 view .LVU414
 1225 0016 0028     		cmp	r0, #0
 1226 0018 4BD1     		bne	.L120
 651:Src/eeprom.c  ****   {
 652:Src/eeprom.c  ****     /* New page address  where variable will be moved to */
 653:Src/eeprom.c  ****     newpageaddress = PAGE1_BASE_ADDRESS;
 654:Src/eeprom.c  **** 
 655:Src/eeprom.c  ****     /* Old page ID where variable will be taken from */
 656:Src/eeprom.c  ****     oldpageid = PAGE0_ID;
 1227              		.loc 1 656 15 view .LVU415
 1228 001a DFF89C80 		ldr	r8, .L125
 653:Src/eeprom.c  **** 
 1229              		.loc 1 653 20 view .LVU416
 1230 001e 274F     		ldr	r7, .L125+4
 1231              	.L111:
 1232              	.LVL151:
 657:Src/eeprom.c  ****   }
 658:Src/eeprom.c  ****   else
 659:Src/eeprom.c  ****   {
 660:Src/eeprom.c  ****     return NO_VALID_PAGE;       /* No valid Page */
 661:Src/eeprom.c  ****   }
 662:Src/eeprom.c  **** 
 663:Src/eeprom.c  ****   /* Set the new Page status to RECEIVE_DATA status */
 664:Src/eeprom.c  ****   flashstatus = HAL_FLASH_Program(FLASH_TYPEPROGRAM_HALFWORD, newpageaddress, RECEIVE_DATA);
 1233              		.loc 1 664 3 is_stmt 1 view .LVU417
 1234              		.loc 1 664 17 is_stmt 0 view .LVU418
 1235 0020 4EF6EE62 		movw	r2, #61166
ARM GAS  /var/folders/2w/5wbrmvx534s_vk8svtxz852c0000gn/T//ccMMOFI5.s 			page 40


 1236 0024 0023     		movs	r3, #0
 1237 0026 3946     		mov	r1, r7
 1238 0028 0120     		movs	r0, #1
 1239              	.LVL152:
 1240              		.loc 1 664 17 view .LVU419
 1241 002a FFF7FEFF 		bl	HAL_FLASH_Program
 1242              	.LVL153:
 665:Src/eeprom.c  ****   /* If program operation was failed, a Flash error code is returned */
 666:Src/eeprom.c  ****   if (flashstatus != HAL_OK)
 1243              		.loc 1 666 3 is_stmt 1 view .LVU420
 1244              		.loc 1 666 6 is_stmt 0 view .LVU421
 1245 002e 40B1     		cbz	r0, .L113
 667:Src/eeprom.c  ****   {
 668:Src/eeprom.c  ****     return flashstatus;
 1246              		.loc 1 668 5 is_stmt 1 view .LVU422
 1247              		.loc 1 668 12 is_stmt 0 view .LVU423
 1248 0030 84B2     		uxth	r4, r0
 1249              	.LVL154:
 1250              	.L112:
 669:Src/eeprom.c  ****   }
 670:Src/eeprom.c  **** 
 671:Src/eeprom.c  ****   /* Write the variable passed as parameter in the new active page */
 672:Src/eeprom.c  ****   eepromstatus = EE_VerifyPageFullWriteVariable(VirtAddress, Data);
 673:Src/eeprom.c  ****   /* If program operation was failed, a Flash error code is returned */
 674:Src/eeprom.c  ****   if (eepromstatus != HAL_OK)
 675:Src/eeprom.c  ****   {
 676:Src/eeprom.c  ****     return eepromstatus;
 677:Src/eeprom.c  ****   }
 678:Src/eeprom.c  **** 
 679:Src/eeprom.c  ****   /* Transfer process: transfer variables from old to the new active page */
 680:Src/eeprom.c  ****   for (varidx = 0; varidx < NB_OF_VAR; varidx++)
 681:Src/eeprom.c  ****   {
 682:Src/eeprom.c  ****     if (VirtAddVarTab[varidx] != VirtAddress)  /* Check each variable except the one passed as para
 683:Src/eeprom.c  ****     {
 684:Src/eeprom.c  ****       /* Read the other last variable updates */
 685:Src/eeprom.c  ****       readstatus = EE_ReadVariable(VirtAddVarTab[varidx], &DataVar);
 686:Src/eeprom.c  ****       /* In case variable corresponding to the virtual address was found */
 687:Src/eeprom.c  ****       if (readstatus != 0x1)
 688:Src/eeprom.c  ****       {
 689:Src/eeprom.c  ****         /* Transfer the variable to the new active page */
 690:Src/eeprom.c  ****         eepromstatus = EE_VerifyPageFullWriteVariable(VirtAddVarTab[varidx], DataVar);
 691:Src/eeprom.c  ****         /* If program operation was failed, a Flash error code is returned */
 692:Src/eeprom.c  ****         if (eepromstatus != HAL_OK)
 693:Src/eeprom.c  ****         {
 694:Src/eeprom.c  ****           return eepromstatus;
 695:Src/eeprom.c  ****         }
 696:Src/eeprom.c  ****       }
 697:Src/eeprom.c  ****     }
 698:Src/eeprom.c  ****   }
 699:Src/eeprom.c  **** 
 700:Src/eeprom.c  ****   s_eraseinit.TypeErase   = FLASH_TYPEERASE_PAGES;
 701:Src/eeprom.c  ****   s_eraseinit.PageAddress = oldpageid;
 702:Src/eeprom.c  ****   s_eraseinit.NbPages     = 1;
 703:Src/eeprom.c  **** 
 704:Src/eeprom.c  ****   /* Erase the old Page: Set old Page status to ERASED status */
 705:Src/eeprom.c  ****   flashstatus = HAL_FLASHEx_Erase(&s_eraseinit, &page_error);
 706:Src/eeprom.c  ****   /* If erase operation was failed, a Flash error code is returned */
ARM GAS  /var/folders/2w/5wbrmvx534s_vk8svtxz852c0000gn/T//ccMMOFI5.s 			page 41


 707:Src/eeprom.c  ****   if (flashstatus != HAL_OK)
 708:Src/eeprom.c  ****   {
 709:Src/eeprom.c  ****     return flashstatus;
 710:Src/eeprom.c  ****   }
 711:Src/eeprom.c  **** 
 712:Src/eeprom.c  ****   /* Set new Page status to VALID_PAGE status */
 713:Src/eeprom.c  ****   flashstatus = HAL_FLASH_Program(FLASH_TYPEPROGRAM_HALFWORD, newpageaddress, VALID_PAGE);
 714:Src/eeprom.c  ****   /* If program operation was failed, a Flash error code is returned */
 715:Src/eeprom.c  ****   if (flashstatus != HAL_OK)
 716:Src/eeprom.c  ****   {
 717:Src/eeprom.c  ****     return flashstatus;
 718:Src/eeprom.c  ****   }
 719:Src/eeprom.c  **** 
 720:Src/eeprom.c  **** 
 721:Src/eeprom.c  **** 
 722:Src/eeprom.c  ****   /* Return last operation flash status */
 723:Src/eeprom.c  ****   return flashstatus;
 724:Src/eeprom.c  **** }
 1251              		.loc 1 724 1 view .LVU424
 1252 0032 2046     		mov	r0, r4
 1253 0034 06B0     		add	sp, sp, #24
 1254              	.LCFI12:
 1255              		.cfi_remember_state
 1256              		.cfi_def_cfa_offset 24
 1257              		@ sp needed
 1258 0036 BDE8F081 		pop	{r4, r5, r6, r7, r8, pc}
 1259              	.LVL155:
 1260              	.L119:
 1261              	.LCFI13:
 1262              		.cfi_restore_state
 648:Src/eeprom.c  ****   }
 1263              		.loc 1 648 15 view .LVU425
 1264 003a DFF88480 		ldr	r8, .L125+8
 645:Src/eeprom.c  **** 
 1265              		.loc 1 645 20 view .LVU426
 1266 003e 1E4F     		ldr	r7, .L125
 1267 0040 EEE7     		b	.L111
 1268              	.LVL156:
 1269              	.L113:
 672:Src/eeprom.c  ****   /* If program operation was failed, a Flash error code is returned */
 1270              		.loc 1 672 3 is_stmt 1 view .LVU427
 672:Src/eeprom.c  ****   /* If program operation was failed, a Flash error code is returned */
 1271              		.loc 1 672 18 is_stmt 0 view .LVU428
 1272 0042 3146     		mov	r1, r6
 1273 0044 2846     		mov	r0, r5
 1274              	.LVL157:
 672:Src/eeprom.c  ****   /* If program operation was failed, a Flash error code is returned */
 1275              		.loc 1 672 18 view .LVU429
 1276 0046 FFF7FEFF 		bl	EE_VerifyPageFullWriteVariable
 1277              	.LVL158:
 674:Src/eeprom.c  ****   {
 1278              		.loc 1 674 3 is_stmt 1 view .LVU430
 674:Src/eeprom.c  ****   {
 1279              		.loc 1 674 6 is_stmt 0 view .LVU431
 1280 004a 0446     		mov	r4, r0
 1281 004c 10B1     		cbz	r0, .L114
 1282 004e F0E7     		b	.L112
ARM GAS  /var/folders/2w/5wbrmvx534s_vk8svtxz852c0000gn/T//ccMMOFI5.s 			page 42


 1283              	.LVL159:
 1284              	.L115:
 680:Src/eeprom.c  ****   {
 1285              		.loc 1 680 40 is_stmt 1 discriminator 2 view .LVU432
 680:Src/eeprom.c  ****   {
 1286              		.loc 1 680 46 is_stmt 0 discriminator 2 view .LVU433
 1287 0050 0134     		adds	r4, r4, #1
 1288              	.LVL160:
 680:Src/eeprom.c  ****   {
 1289              		.loc 1 680 46 discriminator 2 view .LVU434
 1290 0052 A4B2     		uxth	r4, r4
 1291              	.LVL161:
 1292              	.L114:
 680:Src/eeprom.c  ****   {
 1293              		.loc 1 680 20 is_stmt 1 discriminator 1 view .LVU435
 680:Src/eeprom.c  ****   {
 1294              		.loc 1 680 3 is_stmt 0 discriminator 1 view .LVU436
 1295 0054 122C     		cmp	r4, #18
 1296 0056 14D8     		bhi	.L123
 682:Src/eeprom.c  ****     {
 1297              		.loc 1 682 5 is_stmt 1 view .LVU437
 682:Src/eeprom.c  ****     {
 1298              		.loc 1 682 22 is_stmt 0 view .LVU438
 1299 0058 1A4B     		ldr	r3, .L125+12
 1300 005a 33F81400 		ldrh	r0, [r3, r4, lsl #1]
 682:Src/eeprom.c  ****     {
 1301              		.loc 1 682 8 view .LVU439
 1302 005e A842     		cmp	r0, r5
 1303 0060 F6D0     		beq	.L115
 685:Src/eeprom.c  ****       /* In case variable corresponding to the virtual address was found */
 1304              		.loc 1 685 7 is_stmt 1 view .LVU440
 685:Src/eeprom.c  ****       /* In case variable corresponding to the virtual address was found */
 1305              		.loc 1 685 20 is_stmt 0 view .LVU441
 1306 0062 1949     		ldr	r1, .L125+16
 1307 0064 FFF7FEFF 		bl	EE_ReadVariable
 1308              	.LVL162:
 687:Src/eeprom.c  ****       {
 1309              		.loc 1 687 7 is_stmt 1 view .LVU442
 687:Src/eeprom.c  ****       {
 1310              		.loc 1 687 10 is_stmt 0 view .LVU443
 1311 0068 0128     		cmp	r0, #1
 1312 006a F1D0     		beq	.L115
 690:Src/eeprom.c  ****         /* If program operation was failed, a Flash error code is returned */
 1313              		.loc 1 690 9 is_stmt 1 view .LVU444
 690:Src/eeprom.c  ****         /* If program operation was failed, a Flash error code is returned */
 1314              		.loc 1 690 24 is_stmt 0 view .LVU445
 1315 006c 164B     		ldr	r3, .L125+16
 1316 006e 1988     		ldrh	r1, [r3]
 1317 0070 144B     		ldr	r3, .L125+12
 1318 0072 33F81400 		ldrh	r0, [r3, r4, lsl #1]
 1319              	.LVL163:
 690:Src/eeprom.c  ****         /* If program operation was failed, a Flash error code is returned */
 1320              		.loc 1 690 24 view .LVU446
 1321 0076 FFF7FEFF 		bl	EE_VerifyPageFullWriteVariable
 1322              	.LVL164:
 692:Src/eeprom.c  ****         {
 1323              		.loc 1 692 9 is_stmt 1 view .LVU447
ARM GAS  /var/folders/2w/5wbrmvx534s_vk8svtxz852c0000gn/T//ccMMOFI5.s 			page 43


 692:Src/eeprom.c  ****         {
 1324              		.loc 1 692 12 is_stmt 0 view .LVU448
 1325 007a 0028     		cmp	r0, #0
 1326 007c E8D0     		beq	.L115
 694:Src/eeprom.c  ****         }
 1327              		.loc 1 694 18 view .LVU449
 1328 007e 0446     		mov	r4, r0
 1329              	.LVL165:
 694:Src/eeprom.c  ****         }
 1330              		.loc 1 694 18 view .LVU450
 1331 0080 D7E7     		b	.L112
 1332              	.LVL166:
 1333              	.L123:
 700:Src/eeprom.c  ****   s_eraseinit.PageAddress = oldpageid;
 1334              		.loc 1 700 3 is_stmt 1 view .LVU451
 700:Src/eeprom.c  ****   s_eraseinit.PageAddress = oldpageid;
 1335              		.loc 1 700 27 is_stmt 0 view .LVU452
 1336 0082 0023     		movs	r3, #0
 1337 0084 0193     		str	r3, [sp, #4]
 701:Src/eeprom.c  ****   s_eraseinit.NbPages     = 1;
 1338              		.loc 1 701 3 is_stmt 1 view .LVU453
 701:Src/eeprom.c  ****   s_eraseinit.NbPages     = 1;
 1339              		.loc 1 701 27 is_stmt 0 view .LVU454
 1340 0086 CDF80C80 		str	r8, [sp, #12]
 702:Src/eeprom.c  **** 
 1341              		.loc 1 702 3 is_stmt 1 view .LVU455
 702:Src/eeprom.c  **** 
 1342              		.loc 1 702 27 is_stmt 0 view .LVU456
 1343 008a 0123     		movs	r3, #1
 1344 008c 0493     		str	r3, [sp, #16]
 705:Src/eeprom.c  ****   /* If erase operation was failed, a Flash error code is returned */
 1345              		.loc 1 705 3 is_stmt 1 view .LVU457
 705:Src/eeprom.c  ****   /* If erase operation was failed, a Flash error code is returned */
 1346              		.loc 1 705 17 is_stmt 0 view .LVU458
 1347 008e 05A9     		add	r1, sp, #20
 1348 0090 01A8     		add	r0, sp, #4
 1349 0092 FFF7FEFF 		bl	HAL_FLASHEx_Erase
 1350              	.LVL167:
 707:Src/eeprom.c  ****   {
 1351              		.loc 1 707 3 is_stmt 1 view .LVU459
 707:Src/eeprom.c  ****   {
 1352              		.loc 1 707 6 is_stmt 0 view .LVU460
 1353 0096 08B1     		cbz	r0, .L117
 709:Src/eeprom.c  ****   }
 1354              		.loc 1 709 5 is_stmt 1 view .LVU461
 709:Src/eeprom.c  ****   }
 1355              		.loc 1 709 12 is_stmt 0 view .LVU462
 1356 0098 84B2     		uxth	r4, r0
 1357              	.LVL168:
 709:Src/eeprom.c  ****   }
 1358              		.loc 1 709 12 view .LVU463
 1359 009a CAE7     		b	.L112
 1360              	.LVL169:
 1361              	.L117:
 713:Src/eeprom.c  ****   /* If program operation was failed, a Flash error code is returned */
 1362              		.loc 1 713 3 is_stmt 1 view .LVU464
 713:Src/eeprom.c  ****   /* If program operation was failed, a Flash error code is returned */
ARM GAS  /var/folders/2w/5wbrmvx534s_vk8svtxz852c0000gn/T//ccMMOFI5.s 			page 44


 1363              		.loc 1 713 17 is_stmt 0 view .LVU465
 1364 009c 0022     		movs	r2, #0
 1365 009e 0023     		movs	r3, #0
 1366 00a0 3946     		mov	r1, r7
 1367 00a2 0120     		movs	r0, #1
 1368              	.LVL170:
 713:Src/eeprom.c  ****   /* If program operation was failed, a Flash error code is returned */
 1369              		.loc 1 713 17 view .LVU466
 1370 00a4 FFF7FEFF 		bl	HAL_FLASH_Program
 1371              	.LVL171:
 715:Src/eeprom.c  ****   {
 1372              		.loc 1 715 3 is_stmt 1 view .LVU467
 715:Src/eeprom.c  ****   {
 1373              		.loc 1 715 6 is_stmt 0 view .LVU468
 1374 00a8 08B9     		cbnz	r0, .L124
 723:Src/eeprom.c  **** }
 1375              		.loc 1 723 3 is_stmt 1 view .LVU469
 723:Src/eeprom.c  **** }
 1376              		.loc 1 723 10 is_stmt 0 view .LVU470
 1377 00aa 84B2     		uxth	r4, r0
 1378              	.LVL172:
 723:Src/eeprom.c  **** }
 1379              		.loc 1 723 10 view .LVU471
 1380 00ac C1E7     		b	.L112
 1381              	.LVL173:
 1382              	.L124:
 717:Src/eeprom.c  ****   }
 1383              		.loc 1 717 5 is_stmt 1 view .LVU472
 717:Src/eeprom.c  ****   }
 1384              		.loc 1 717 12 is_stmt 0 view .LVU473
 1385 00ae 84B2     		uxth	r4, r0
 1386              	.LVL174:
 717:Src/eeprom.c  ****   }
 1387              		.loc 1 717 12 view .LVU474
 1388 00b0 BFE7     		b	.L112
 1389              	.LVL175:
 1390              	.L120:
 660:Src/eeprom.c  ****   }
 1391              		.loc 1 660 12 view .LVU475
 1392 00b2 AB24     		movs	r4, #171
 1393 00b4 BDE7     		b	.L112
 1394              	.L126:
 1395 00b6 00BF     		.align	2
 1396              	.L125:
 1397 00b8 00000108 		.word	134283264
 1398 00bc 00000208 		.word	134348800
 1399 00c0 00800108 		.word	134316032
 1400 00c4 00000000 		.word	VirtAddVarTab
 1401 00c8 00000000 		.word	.LANCHOR0
 1402              		.cfi_endproc
 1403              	.LFE73:
 1405              		.section	.text.EE_WriteVariable,"ax",%progbits
 1406              		.align	1
 1407              		.global	EE_WriteVariable
 1408              		.syntax unified
 1409              		.thumb
 1410              		.thumb_func
ARM GAS  /var/folders/2w/5wbrmvx534s_vk8svtxz852c0000gn/T//ccMMOFI5.s 			page 45


 1412              	EE_WriteVariable:
 1413              	.LVL176:
 1414              	.LFB69:
 422:Src/eeprom.c  ****   uint16_t Status = 0;
 1415              		.loc 1 422 1 is_stmt 1 view -0
 1416              		.cfi_startproc
 1417              		@ args = 0, pretend = 0, frame = 0
 1418              		@ frame_needed = 0, uses_anonymous_args = 0
 422:Src/eeprom.c  ****   uint16_t Status = 0;
 1419              		.loc 1 422 1 is_stmt 0 view .LVU477
 1420 0000 38B5     		push	{r3, r4, r5, lr}
 1421              	.LCFI14:
 1422              		.cfi_def_cfa_offset 16
 1423              		.cfi_offset 3, -16
 1424              		.cfi_offset 4, -12
 1425              		.cfi_offset 5, -8
 1426              		.cfi_offset 14, -4
 1427 0002 0446     		mov	r4, r0
 1428 0004 0D46     		mov	r5, r1
 423:Src/eeprom.c  **** 
 1429              		.loc 1 423 3 is_stmt 1 view .LVU478
 1430              	.LVL177:
 426:Src/eeprom.c  **** 
 1431              		.loc 1 426 3 view .LVU479
 426:Src/eeprom.c  **** 
 1432              		.loc 1 426 12 is_stmt 0 view .LVU480
 1433 0006 FFF7FEFF 		bl	EE_VerifyPageFullWriteVariable
 1434              	.LVL178:
 429:Src/eeprom.c  ****   {
 1435              		.loc 1 429 3 is_stmt 1 view .LVU481
 429:Src/eeprom.c  ****   {
 1436              		.loc 1 429 6 is_stmt 0 view .LVU482
 1437 000a 8028     		cmp	r0, #128
 1438 000c 00D0     		beq	.L130
 1439              	.L128:
 436:Src/eeprom.c  **** }
 1440              		.loc 1 436 3 is_stmt 1 view .LVU483
 437:Src/eeprom.c  **** 
 1441              		.loc 1 437 1 is_stmt 0 view .LVU484
 1442 000e 38BD     		pop	{r3, r4, r5, pc}
 1443              	.L130:
 432:Src/eeprom.c  ****   }
 1444              		.loc 1 432 5 is_stmt 1 view .LVU485
 432:Src/eeprom.c  ****   }
 1445              		.loc 1 432 14 is_stmt 0 view .LVU486
 1446 0010 2946     		mov	r1, r5
 1447 0012 2046     		mov	r0, r4
 1448              	.LVL179:
 432:Src/eeprom.c  ****   }
 1449              		.loc 1 432 14 view .LVU487
 1450 0014 FFF7FEFF 		bl	EE_PageTransfer
 1451              	.LVL180:
 432:Src/eeprom.c  ****   }
 1452              		.loc 1 432 14 view .LVU488
 1453 0018 F9E7     		b	.L128
 1454              		.cfi_endproc
 1455              	.LFE69:
ARM GAS  /var/folders/2w/5wbrmvx534s_vk8svtxz852c0000gn/T//ccMMOFI5.s 			page 46


 1457              		.global	DataVar
 1458              		.section	.bss.DataVar,"aw",%nobits
 1459              		.align	1
 1460              		.set	.LANCHOR0,. + 0
 1463              	DataVar:
 1464 0000 0000     		.space	2
 1465              		.text
 1466              	.Letext0:
 1467              		.file 2 "/opt/homebrew/Cellar/arm-none-eabi-gcc/10.3-2021.10/gcc/arm-none-eabi/include/machine/_de
 1468              		.file 3 "/opt/homebrew/Cellar/arm-none-eabi-gcc/10.3-2021.10/gcc/arm-none-eabi/include/sys/_stdint
 1469              		.file 4 "Drivers/STM32F1xx_HAL_Driver/Inc/stm32f1xx_hal_def.h"
 1470              		.file 5 "Drivers/STM32F1xx_HAL_Driver/Inc/stm32f1xx_hal_flash_ex.h"
 1471              		.file 6 "Drivers/STM32F1xx_HAL_Driver/Inc/stm32f1xx_hal_flash.h"
ARM GAS  /var/folders/2w/5wbrmvx534s_vk8svtxz852c0000gn/T//ccMMOFI5.s 			page 47

