ARM GAS  /var/folders/2w/5wbrmvx534s_vk8svtxz852c0000gn/T//ccezG4XL.s 			page 1


   1              		.cpu cortex-m3
   2              		.arch armv7-m
   3              		.fpu softvfp
   4              		.eabi_attribute 20, 1
   5              		.eabi_attribute 21, 1
   6              		.eabi_attribute 23, 3
   7              		.eabi_attribute 24, 1
   8              		.eabi_attribute 25, 1
   9              		.eabi_attribute 26, 1
  10              		.eabi_attribute 30, 1
  11              		.eabi_attribute 34, 1
  12              		.eabi_attribute 18, 4
  13              		.file	"hd44780.c"
  14              		.text
  15              	.Ltext0:
  16              		.cfi_sections	.debug_frame
  17              		.section	.text.LCD_I2C_WriteOut,"ax",%progbits
  18              		.align	1
  19              		.global	LCD_I2C_WriteOut
  20              		.syntax unified
  21              		.thumb
  22              		.thumb_func
  24              	LCD_I2C_WriteOut:
  25              	.LVL0:
  26              	.LFB67:
  27              		.file 1 "Src/hd44780.c"
   1:Src/hd44780.c **** /*
   2:Src/hd44780.c ****  *  * hd44780.c
   3:Src/hd44780.c ****  *
   4:Src/hd44780.c ****  *  Created on: Feb 20, 2014
   5:Src/hd44780.c ****  *      Author: Peter
   6:Src/hd44780.c ****  */
   7:Src/hd44780.c **** 
   8:Src/hd44780.c **** #include "hd44780.h"
   9:Src/hd44780.c **** 
  10:Src/hd44780.c **** uint32_t PCF8574_Type0Pins[8] = { 4, 5, 6, 7, 0, 1, 2, 3 };
  11:Src/hd44780.c **** uint8_t LCDerrorFlag = 0;
  12:Src/hd44780.c **** 
  13:Src/hd44780.c **** void LCD_WaitForBusyFlag(LCD_PCF8574_HandleTypeDef* handle) {
  14:Src/hd44780.c **** 	uint8_t flag;
  15:Src/hd44780.c **** 	LCD_GetBusyFlag(handle, &flag);
  16:Src/hd44780.c **** 	//uint32_t startTick=HAL_GetTick();
  17:Src/hd44780.c **** 	//while (flag == 1 && HAL_GetTick()-startTick<handle->pcf8574.PCF_I2C_TIMEOUT) {
  18:Src/hd44780.c **** 	//	LCD_GetBusyFlag(handle, &flag);
  19:Src/hd44780.c **** 	//}
  20:Src/hd44780.c **** 	return;
  21:Src/hd44780.c **** }
  22:Src/hd44780.c **** 
  23:Src/hd44780.c **** LCD_RESULT LCD_I2C_WriteOut(LCD_PCF8574_HandleTypeDef* handle) {
  28              		.loc 1 23 64 view -0
  29              		.cfi_startproc
  30              		@ args = 0, pretend = 0, frame = 0
  31              		@ frame_needed = 0, uses_anonymous_args = 0
  32              		.loc 1 23 64 is_stmt 0 view .LVU1
  33 0000 08B5     		push	{r3, lr}
  34              	.LCFI0:
  35              		.cfi_def_cfa_offset 8
ARM GAS  /var/folders/2w/5wbrmvx534s_vk8svtxz852c0000gn/T//ccezG4XL.s 			page 2


  36              		.cfi_offset 3, -8
  37              		.cfi_offset 14, -4
  24:Src/hd44780.c **** 	if (!LCDerrorFlag) {
  38              		.loc 1 24 2 is_stmt 1 view .LVU2
  39              		.loc 1 24 6 is_stmt 0 view .LVU3
  40 0002 084B     		ldr	r3, .L6
  41 0004 1B78     		ldrb	r3, [r3]	@ zero_extendqisi2
  42              		.loc 1 24 5 view .LVU4
  43 0006 0BB1     		cbz	r3, .L5
  25:Src/hd44780.c **** 		if (PCF8574_Write(&handle->pcf8574, handle->state) != PCF8574_OK) {
  26:Src/hd44780.c **** 			//handle->errorCallback(LCD_ERROR);
  27:Src/hd44780.c **** 			LCDerrorFlag = 1;
  28:Src/hd44780.c **** 			return LCD_ERROR;
  29:Src/hd44780.c **** 		}
  30:Src/hd44780.c **** 		return LCD_OK;
  31:Src/hd44780.c **** 	}
  32:Src/hd44780.c **** 	return LCD_ERROR;
  44              		.loc 1 32 9 view .LVU5
  45 0008 0120     		movs	r0, #1
  46              	.LVL1:
  47              	.L2:
  33:Src/hd44780.c **** }
  48              		.loc 1 33 1 view .LVU6
  49 000a 08BD     		pop	{r3, pc}
  50              	.LVL2:
  51              	.L5:
  25:Src/hd44780.c **** 		if (PCF8574_Write(&handle->pcf8574, handle->state) != PCF8574_OK) {
  52              		.loc 1 25 3 is_stmt 1 view .LVU7
  25:Src/hd44780.c **** 		if (PCF8574_Write(&handle->pcf8574, handle->state) != PCF8574_OK) {
  53              		.loc 1 25 7 is_stmt 0 view .LVU8
  54 000c 90F83410 		ldrb	r1, [r0, #52]	@ zero_extendqisi2
  55 0010 4030     		adds	r0, r0, #64
  56              	.LVL3:
  25:Src/hd44780.c **** 		if (PCF8574_Write(&handle->pcf8574, handle->state) != PCF8574_OK) {
  57              		.loc 1 25 7 view .LVU9
  58 0012 FFF7FEFF 		bl	PCF8574_Write
  59              	.LVL4:
  25:Src/hd44780.c **** 		if (PCF8574_Write(&handle->pcf8574, handle->state) != PCF8574_OK) {
  60              		.loc 1 25 6 view .LVU10
  61 0016 0028     		cmp	r0, #0
  62 0018 F7D0     		beq	.L2
  27:Src/hd44780.c **** 			return LCD_ERROR;
  63              		.loc 1 27 4 is_stmt 1 view .LVU11
  27:Src/hd44780.c **** 			return LCD_ERROR;
  64              		.loc 1 27 17 is_stmt 0 view .LVU12
  65 001a 0120     		movs	r0, #1
  66 001c 014B     		ldr	r3, .L6
  67 001e 1870     		strb	r0, [r3]
  28:Src/hd44780.c **** 		}
  68              		.loc 1 28 4 is_stmt 1 view .LVU13
  28:Src/hd44780.c **** 		}
  69              		.loc 1 28 11 is_stmt 0 view .LVU14
  70 0020 F3E7     		b	.L2
  71              	.L7:
  72 0022 00BF     		.align	2
  73              	.L6:
  74 0024 00000000 		.word	.LANCHOR0
ARM GAS  /var/folders/2w/5wbrmvx534s_vk8svtxz852c0000gn/T//ccezG4XL.s 			page 3


  75              		.cfi_endproc
  76              	.LFE67:
  78              		.section	.text.LCD_StateWriteBit,"ax",%progbits
  79              		.align	1
  80              		.global	LCD_StateWriteBit
  81              		.syntax unified
  82              		.thumb
  83              		.thumb_func
  85              	LCD_StateWriteBit:
  86              	.LVL5:
  87              	.LFB69:
  34:Src/hd44780.c **** 
  35:Src/hd44780.c **** LCD_RESULT LCD_StateLEDControl(LCD_PCF8574_HandleTypeDef* handle, uint8_t on) {
  36:Src/hd44780.c **** 	return LCD_StateWriteBit(handle, on & 1, LCD_PIN_LED);
  37:Src/hd44780.c **** }
  38:Src/hd44780.c **** 
  39:Src/hd44780.c **** LCD_RESULT LCD_StateWriteBit(LCD_PCF8574_HandleTypeDef* handle, uint8_t value,
  40:Src/hd44780.c **** 		LCD_PIN pin) {
  88              		.loc 1 40 16 is_stmt 1 view -0
  89              		.cfi_startproc
  90              		@ args = 0, pretend = 0, frame = 0
  91              		@ frame_needed = 0, uses_anonymous_args = 0
  92              		.loc 1 40 16 is_stmt 0 view .LVU16
  93 0000 08B5     		push	{r3, lr}
  94              	.LCFI1:
  95              		.cfi_def_cfa_offset 8
  96              		.cfi_offset 3, -8
  97              		.cfi_offset 14, -4
  41:Src/hd44780.c **** 
  42:Src/hd44780.c **** 	if (value) {
  98              		.loc 1 42 2 is_stmt 1 view .LVU17
  99              		.loc 1 42 5 is_stmt 0 view .LVU18
 100 0002 69B1     		cbz	r1, .L9
  43:Src/hd44780.c **** 		handle->state |= 1 << handle->pins[pin];
 101              		.loc 1 43 3 is_stmt 1 view .LVU19
 102              		.loc 1 43 31 is_stmt 0 view .LVU20
 103 0004 836B     		ldr	r3, [r0, #56]
 104              		.loc 1 43 37 view .LVU21
 105 0006 53F82220 		ldr	r2, [r3, r2, lsl #2]
 106              	.LVL6:
 107              		.loc 1 43 22 view .LVU22
 108 000a 0123     		movs	r3, #1
 109 000c 03FA02F2 		lsl	r2, r3, r2
 110              		.loc 1 43 17 view .LVU23
 111 0010 90F83430 		ldrb	r3, [r0, #52]	@ zero_extendqisi2
 112 0014 1343     		orrs	r3, r3, r2
 113 0016 80F83430 		strb	r3, [r0, #52]
 114              	.L10:
  44:Src/hd44780.c **** 	} else {
  45:Src/hd44780.c **** 		handle->state &= ~(1 << handle->pins[pin]);
  46:Src/hd44780.c **** 	}
  47:Src/hd44780.c **** 	return LCD_I2C_WriteOut(handle);
 115              		.loc 1 47 2 is_stmt 1 view .LVU24
 116              		.loc 1 47 9 is_stmt 0 view .LVU25
 117 001a FFF7FEFF 		bl	LCD_I2C_WriteOut
 118              	.LVL7:
  48:Src/hd44780.c **** }
ARM GAS  /var/folders/2w/5wbrmvx534s_vk8svtxz852c0000gn/T//ccezG4XL.s 			page 4


 119              		.loc 1 48 1 view .LVU26
 120 001e 08BD     		pop	{r3, pc}
 121              	.LVL8:
 122              	.L9:
  45:Src/hd44780.c **** 	}
 123              		.loc 1 45 3 is_stmt 1 view .LVU27
  45:Src/hd44780.c **** 	}
 124              		.loc 1 45 33 is_stmt 0 view .LVU28
 125 0020 836B     		ldr	r3, [r0, #56]
  45:Src/hd44780.c **** 	}
 126              		.loc 1 45 39 view .LVU29
 127 0022 53F82220 		ldr	r2, [r3, r2, lsl #2]
 128              	.LVL9:
  45:Src/hd44780.c **** 	}
 129              		.loc 1 45 24 view .LVU30
 130 0026 0123     		movs	r3, #1
 131 0028 03FA02F2 		lsl	r2, r3, r2
  45:Src/hd44780.c **** 	}
 132              		.loc 1 45 17 view .LVU31
 133 002c 90F83430 		ldrb	r3, [r0, #52]	@ zero_extendqisi2
 134 0030 23EA0203 		bic	r3, r3, r2
 135 0034 80F83430 		strb	r3, [r0, #52]
 136 0038 EFE7     		b	.L10
 137              		.cfi_endproc
 138              	.LFE69:
 140              		.section	.text.LCD_StateLEDControl,"ax",%progbits
 141              		.align	1
 142              		.global	LCD_StateLEDControl
 143              		.syntax unified
 144              		.thumb
 145              		.thumb_func
 147              	LCD_StateLEDControl:
 148              	.LVL10:
 149              	.LFB68:
  35:Src/hd44780.c **** 	return LCD_StateWriteBit(handle, on & 1, LCD_PIN_LED);
 150              		.loc 1 35 79 is_stmt 1 view -0
 151              		.cfi_startproc
 152              		@ args = 0, pretend = 0, frame = 0
 153              		@ frame_needed = 0, uses_anonymous_args = 0
  35:Src/hd44780.c **** 	return LCD_StateWriteBit(handle, on & 1, LCD_PIN_LED);
 154              		.loc 1 35 79 is_stmt 0 view .LVU33
 155 0000 08B5     		push	{r3, lr}
 156              	.LCFI2:
 157              		.cfi_def_cfa_offset 8
 158              		.cfi_offset 3, -8
 159              		.cfi_offset 14, -4
  36:Src/hd44780.c **** }
 160              		.loc 1 36 2 is_stmt 1 view .LVU34
  36:Src/hd44780.c **** }
 161              		.loc 1 36 9 is_stmt 0 view .LVU35
 162 0002 0722     		movs	r2, #7
 163 0004 01F00101 		and	r1, r1, #1
 164              	.LVL11:
  36:Src/hd44780.c **** }
 165              		.loc 1 36 9 view .LVU36
 166 0008 FFF7FEFF 		bl	LCD_StateWriteBit
 167              	.LVL12:
ARM GAS  /var/folders/2w/5wbrmvx534s_vk8svtxz852c0000gn/T//ccezG4XL.s 			page 5


  37:Src/hd44780.c **** 
 168              		.loc 1 37 1 view .LVU37
 169 000c 08BD     		pop	{r3, pc}
 170              		.cfi_endproc
 171              	.LFE68:
 173              		.section	.text.LCD_WriteToDataBus,"ax",%progbits
 174              		.align	1
 175              		.global	LCD_WriteToDataBus
 176              		.syntax unified
 177              		.thumb
 178              		.thumb_func
 180              	LCD_WriteToDataBus:
 181              	.LVL13:
 182              	.LFB71:
  49:Src/hd44780.c **** 
  50:Src/hd44780.c **** LCD_RESULT LCD_Init(LCD_PCF8574_HandleTypeDef* handle) {
  51:Src/hd44780.c **** 	handle->D = 1;
  52:Src/hd44780.c **** 	handle->B = 0;
  53:Src/hd44780.c **** 	handle->C = 0;
  54:Src/hd44780.c **** 	if (handle->type == TYPE0) {
  55:Src/hd44780.c **** 		handle->pins = PCF8574_Type0Pins;
  56:Src/hd44780.c **** 	} else {
  57:Src/hd44780.c **** 		//handle->errorCallback(LCD_ERROR);
  58:Src/hd44780.c **** 		return LCD_ERROR;	// no type of subinterface was specified
  59:Src/hd44780.c **** 	}
  60:Src/hd44780.c **** 	if (PCF8574_Init(&handle->pcf8574) != PCF8574_OK) {
  61:Src/hd44780.c **** 		//handle->errorCallback(LCD_ERROR);
  62:Src/hd44780.c **** 		return LCD_ERROR;
  63:Src/hd44780.c **** 	}
  64:Src/hd44780.c **** 
  65:Src/hd44780.c **** 	//HAL_Delay(50);
  66:Src/hd44780.c **** 	LCD_StateWriteBit(handle, 0, LCD_PIN_RS);
  67:Src/hd44780.c **** 	LCD_StateWriteBit(handle, 0, LCD_PIN_RW);
  68:Src/hd44780.c **** 	LCD_StateWriteBit(handle, 0, LCD_PIN_E);
  69:Src/hd44780.c **** 
  70:Src/hd44780.c **** 	LCD_WriteToDataBus(handle, 3);
  71:Src/hd44780.c **** 
  72:Src/hd44780.c **** 	LCD_StateWriteBit(handle, 1, LCD_PIN_E);
  73:Src/hd44780.c **** 	HAL_Delay(1);
  74:Src/hd44780.c **** 	LCD_StateWriteBit(handle, 0, LCD_PIN_E);
  75:Src/hd44780.c **** 	HAL_Delay(5);
  76:Src/hd44780.c **** 
  77:Src/hd44780.c **** 	LCD_WriteToDataBus(handle, 3);
  78:Src/hd44780.c **** 
  79:Src/hd44780.c **** 	LCD_StateWriteBit(handle, 1, LCD_PIN_E);
  80:Src/hd44780.c **** 	HAL_Delay(1);
  81:Src/hd44780.c **** 	LCD_StateWriteBit(handle, 0, LCD_PIN_E);
  82:Src/hd44780.c **** 	HAL_Delay(1);
  83:Src/hd44780.c **** 
  84:Src/hd44780.c **** 	LCD_WriteToDataBus(handle, 3);
  85:Src/hd44780.c **** 
  86:Src/hd44780.c **** 	LCD_StateWriteBit(handle, 1, LCD_PIN_E);
  87:Src/hd44780.c **** 	HAL_Delay(1);
  88:Src/hd44780.c **** 	LCD_StateWriteBit(handle, 0, LCD_PIN_E);
  89:Src/hd44780.c **** 	HAL_Delay(1);
  90:Src/hd44780.c **** 
  91:Src/hd44780.c **** 	LCD_WriteToDataBus(handle, 2);
ARM GAS  /var/folders/2w/5wbrmvx534s_vk8svtxz852c0000gn/T//ccezG4XL.s 			page 6


  92:Src/hd44780.c **** 
  93:Src/hd44780.c **** 	LCD_StateWriteBit(handle, 1, LCD_PIN_E);
  94:Src/hd44780.c **** 	HAL_Delay(1);
  95:Src/hd44780.c **** 	LCD_StateWriteBit(handle, 0, LCD_PIN_E);
  96:Src/hd44780.c **** 	HAL_Delay(1);
  97:Src/hd44780.c **** 
  98:Src/hd44780.c **** 	uint8_t cmd = 0;
  99:Src/hd44780.c **** 	cmd = cmd | (handle->NUMBER_OF_LINES << 3);
 100:Src/hd44780.c **** 	cmd = cmd | (1 << 5);
 101:Src/hd44780.c **** 
 102:Src/hd44780.c **** 	LCD_WriteCMD(handle, cmd);	// setting interface
 103:Src/hd44780.c **** 
 104:Src/hd44780.c **** 	cmd = 0;
 105:Src/hd44780.c **** 	cmd = cmd | (1 << 3);
 106:Src/hd44780.c **** 	cmd = cmd | (handle->C << 1);
 107:Src/hd44780.c **** 	cmd = cmd | handle->B;
 108:Src/hd44780.c **** 
 109:Src/hd44780.c **** 	LCD_WriteCMD(handle, cmd);	// setting display/cursor
 110:Src/hd44780.c **** 
 111:Src/hd44780.c **** 	LCD_ClearDisplay(handle);
 112:Src/hd44780.c **** 
 113:Src/hd44780.c **** 	LCD_EntryModeSet(handle, DIRECTION_INCREMENT, SHIFT_NO);
 114:Src/hd44780.c **** 
 115:Src/hd44780.c **** 	LCD_DisplayON(handle);
 116:Src/hd44780.c **** 
 117:Src/hd44780.c **** 	LCD_StateLEDControl(handle, 1);	// LED power on
 118:Src/hd44780.c **** 
 119:Src/hd44780.c **** 	return LCD_OK;
 120:Src/hd44780.c **** 
 121:Src/hd44780.c **** }
 122:Src/hd44780.c **** 
 123:Src/hd44780.c **** LCD_RESULT LCD_WriteToDataBus(LCD_PCF8574_HandleTypeDef* handle, uint8_t data) {
 183              		.loc 1 123 80 is_stmt 1 view -0
 184              		.cfi_startproc
 185              		@ args = 0, pretend = 0, frame = 0
 186              		@ frame_needed = 0, uses_anonymous_args = 0
 187              		.loc 1 123 80 is_stmt 0 view .LVU39
 188 0000 08B5     		push	{r3, lr}
 189              	.LCFI3:
 190              		.cfi_def_cfa_offset 8
 191              		.cfi_offset 3, -8
 192              		.cfi_offset 14, -4
 124:Src/hd44780.c **** 	if ((data & 1) == 1) {
 193              		.loc 1 124 2 is_stmt 1 view .LVU40
 194              		.loc 1 124 5 is_stmt 0 view .LVU41
 195 0002 11F0010F 		tst	r1, #1
 196 0006 33D0     		beq	.L15
 125:Src/hd44780.c **** 		handle->state |= 1 << handle->pins[LCD_PIN_D4];
 197              		.loc 1 125 3 is_stmt 1 view .LVU42
 198              		.loc 1 125 31 is_stmt 0 view .LVU43
 199 0008 836B     		ldr	r3, [r0, #56]
 200              		.loc 1 125 37 view .LVU44
 201 000a 1A68     		ldr	r2, [r3]
 202              		.loc 1 125 22 view .LVU45
 203 000c 0123     		movs	r3, #1
 204 000e 03FA02F2 		lsl	r2, r3, r2
 205              		.loc 1 125 17 view .LVU46
ARM GAS  /var/folders/2w/5wbrmvx534s_vk8svtxz852c0000gn/T//ccezG4XL.s 			page 7


 206 0012 90F83430 		ldrb	r3, [r0, #52]	@ zero_extendqisi2
 207 0016 1343     		orrs	r3, r3, r2
 208 0018 80F83430 		strb	r3, [r0, #52]
 209              	.L16:
 126:Src/hd44780.c **** 	} else {
 127:Src/hd44780.c **** 		handle->state &= ~(1 << handle->pins[LCD_PIN_D4]);
 128:Src/hd44780.c **** 	}
 129:Src/hd44780.c **** 
 130:Src/hd44780.c **** 	if ((data & 2) == 2) {
 210              		.loc 1 130 2 is_stmt 1 view .LVU47
 211              		.loc 1 130 5 is_stmt 0 view .LVU48
 212 001c 11F0020F 		tst	r1, #2
 213 0020 32D0     		beq	.L17
 131:Src/hd44780.c **** 		handle->state |= 1 << handle->pins[LCD_PIN_D5];
 214              		.loc 1 131 3 is_stmt 1 view .LVU49
 215              		.loc 1 131 31 is_stmt 0 view .LVU50
 216 0022 836B     		ldr	r3, [r0, #56]
 217              		.loc 1 131 37 view .LVU51
 218 0024 5A68     		ldr	r2, [r3, #4]
 219              		.loc 1 131 22 view .LVU52
 220 0026 0123     		movs	r3, #1
 221 0028 03FA02F2 		lsl	r2, r3, r2
 222              		.loc 1 131 17 view .LVU53
 223 002c 90F83430 		ldrb	r3, [r0, #52]	@ zero_extendqisi2
 224 0030 1343     		orrs	r3, r3, r2
 225 0032 80F83430 		strb	r3, [r0, #52]
 226              	.L18:
 132:Src/hd44780.c **** 	} else {
 133:Src/hd44780.c **** 		handle->state &= ~(1 << handle->pins[LCD_PIN_D5]);
 134:Src/hd44780.c **** 	}
 135:Src/hd44780.c **** 
 136:Src/hd44780.c **** 	if ((data & 4) == 4) {
 227              		.loc 1 136 2 is_stmt 1 view .LVU54
 228              		.loc 1 136 5 is_stmt 0 view .LVU55
 229 0036 11F0040F 		tst	r1, #4
 230 003a 31D0     		beq	.L19
 137:Src/hd44780.c **** 		handle->state |= 1 << handle->pins[LCD_PIN_D6];
 231              		.loc 1 137 3 is_stmt 1 view .LVU56
 232              		.loc 1 137 31 is_stmt 0 view .LVU57
 233 003c 836B     		ldr	r3, [r0, #56]
 234              		.loc 1 137 37 view .LVU58
 235 003e 9A68     		ldr	r2, [r3, #8]
 236              		.loc 1 137 22 view .LVU59
 237 0040 0123     		movs	r3, #1
 238 0042 03FA02F2 		lsl	r2, r3, r2
 239              		.loc 1 137 17 view .LVU60
 240 0046 90F83430 		ldrb	r3, [r0, #52]	@ zero_extendqisi2
 241 004a 1343     		orrs	r3, r3, r2
 242 004c 80F83430 		strb	r3, [r0, #52]
 243              	.L20:
 138:Src/hd44780.c **** 	} else {
 139:Src/hd44780.c **** 		handle->state &= ~(1 << handle->pins[LCD_PIN_D6]);
 140:Src/hd44780.c **** 	}
 141:Src/hd44780.c **** 
 142:Src/hd44780.c **** 	if ((data & 8) == 8) {
 244              		.loc 1 142 2 is_stmt 1 view .LVU61
 245              		.loc 1 142 5 is_stmt 0 view .LVU62
ARM GAS  /var/folders/2w/5wbrmvx534s_vk8svtxz852c0000gn/T//ccezG4XL.s 			page 8


 246 0050 11F0080F 		tst	r1, #8
 247 0054 30D0     		beq	.L21
 143:Src/hd44780.c **** 		handle->state |= 1 << handle->pins[LCD_PIN_D7];
 248              		.loc 1 143 3 is_stmt 1 view .LVU63
 249              		.loc 1 143 31 is_stmt 0 view .LVU64
 250 0056 836B     		ldr	r3, [r0, #56]
 251              		.loc 1 143 37 view .LVU65
 252 0058 DA68     		ldr	r2, [r3, #12]
 253              		.loc 1 143 22 view .LVU66
 254 005a 0123     		movs	r3, #1
 255 005c 03FA02F2 		lsl	r2, r3, r2
 256              		.loc 1 143 17 view .LVU67
 257 0060 90F83430 		ldrb	r3, [r0, #52]	@ zero_extendqisi2
 258 0064 1343     		orrs	r3, r3, r2
 259 0066 80F83430 		strb	r3, [r0, #52]
 260              	.L22:
 144:Src/hd44780.c **** 	} else {
 145:Src/hd44780.c **** 		handle->state &= ~(1 << handle->pins[LCD_PIN_D7]);
 146:Src/hd44780.c **** 	}
 147:Src/hd44780.c **** 
 148:Src/hd44780.c **** 	return LCD_I2C_WriteOut(handle);
 261              		.loc 1 148 2 is_stmt 1 view .LVU68
 262              		.loc 1 148 9 is_stmt 0 view .LVU69
 263 006a FFF7FEFF 		bl	LCD_I2C_WriteOut
 264              	.LVL14:
 149:Src/hd44780.c **** }
 265              		.loc 1 149 1 view .LVU70
 266 006e 08BD     		pop	{r3, pc}
 267              	.LVL15:
 268              	.L15:
 127:Src/hd44780.c **** 	}
 269              		.loc 1 127 3 is_stmt 1 view .LVU71
 127:Src/hd44780.c **** 	}
 270              		.loc 1 127 33 is_stmt 0 view .LVU72
 271 0070 836B     		ldr	r3, [r0, #56]
 127:Src/hd44780.c **** 	}
 272              		.loc 1 127 39 view .LVU73
 273 0072 1A68     		ldr	r2, [r3]
 127:Src/hd44780.c **** 	}
 274              		.loc 1 127 24 view .LVU74
 275 0074 0123     		movs	r3, #1
 276 0076 03FA02F2 		lsl	r2, r3, r2
 127:Src/hd44780.c **** 	}
 277              		.loc 1 127 17 view .LVU75
 278 007a 90F83430 		ldrb	r3, [r0, #52]	@ zero_extendqisi2
 279 007e 23EA0203 		bic	r3, r3, r2
 280 0082 80F83430 		strb	r3, [r0, #52]
 281 0086 C9E7     		b	.L16
 282              	.L17:
 133:Src/hd44780.c **** 	}
 283              		.loc 1 133 3 is_stmt 1 view .LVU76
 133:Src/hd44780.c **** 	}
 284              		.loc 1 133 33 is_stmt 0 view .LVU77
 285 0088 836B     		ldr	r3, [r0, #56]
 133:Src/hd44780.c **** 	}
 286              		.loc 1 133 39 view .LVU78
 287 008a 5A68     		ldr	r2, [r3, #4]
ARM GAS  /var/folders/2w/5wbrmvx534s_vk8svtxz852c0000gn/T//ccezG4XL.s 			page 9


 133:Src/hd44780.c **** 	}
 288              		.loc 1 133 24 view .LVU79
 289 008c 0123     		movs	r3, #1
 290 008e 03FA02F2 		lsl	r2, r3, r2
 133:Src/hd44780.c **** 	}
 291              		.loc 1 133 17 view .LVU80
 292 0092 90F83430 		ldrb	r3, [r0, #52]	@ zero_extendqisi2
 293 0096 23EA0203 		bic	r3, r3, r2
 294 009a 80F83430 		strb	r3, [r0, #52]
 295 009e CAE7     		b	.L18
 296              	.L19:
 139:Src/hd44780.c **** 	}
 297              		.loc 1 139 3 is_stmt 1 view .LVU81
 139:Src/hd44780.c **** 	}
 298              		.loc 1 139 33 is_stmt 0 view .LVU82
 299 00a0 836B     		ldr	r3, [r0, #56]
 139:Src/hd44780.c **** 	}
 300              		.loc 1 139 39 view .LVU83
 301 00a2 9A68     		ldr	r2, [r3, #8]
 139:Src/hd44780.c **** 	}
 302              		.loc 1 139 24 view .LVU84
 303 00a4 0123     		movs	r3, #1
 304 00a6 03FA02F2 		lsl	r2, r3, r2
 139:Src/hd44780.c **** 	}
 305              		.loc 1 139 17 view .LVU85
 306 00aa 90F83430 		ldrb	r3, [r0, #52]	@ zero_extendqisi2
 307 00ae 23EA0203 		bic	r3, r3, r2
 308 00b2 80F83430 		strb	r3, [r0, #52]
 309 00b6 CBE7     		b	.L20
 310              	.L21:
 145:Src/hd44780.c **** 	}
 311              		.loc 1 145 3 is_stmt 1 view .LVU86
 145:Src/hd44780.c **** 	}
 312              		.loc 1 145 33 is_stmt 0 view .LVU87
 313 00b8 836B     		ldr	r3, [r0, #56]
 145:Src/hd44780.c **** 	}
 314              		.loc 1 145 39 view .LVU88
 315 00ba DA68     		ldr	r2, [r3, #12]
 145:Src/hd44780.c **** 	}
 316              		.loc 1 145 24 view .LVU89
 317 00bc 0123     		movs	r3, #1
 318 00be 03FA02F2 		lsl	r2, r3, r2
 145:Src/hd44780.c **** 	}
 319              		.loc 1 145 17 view .LVU90
 320 00c2 90F83430 		ldrb	r3, [r0, #52]	@ zero_extendqisi2
 321 00c6 23EA0203 		bic	r3, r3, r2
 322 00ca 80F83430 		strb	r3, [r0, #52]
 323 00ce CCE7     		b	.L22
 324              		.cfi_endproc
 325              	.LFE71:
 327              		.section	.text.LCD_GetBusyFlag,"ax",%progbits
 328              		.align	1
 329              		.global	LCD_GetBusyFlag
 330              		.syntax unified
 331              		.thumb
 332              		.thumb_func
 334              	LCD_GetBusyFlag:
ARM GAS  /var/folders/2w/5wbrmvx534s_vk8svtxz852c0000gn/T//ccezG4XL.s 			page 10


 335              	.LVL16:
 336              	.LFB72:
 150:Src/hd44780.c **** 
 151:Src/hd44780.c **** LCD_RESULT LCD_GetBusyFlag(LCD_PCF8574_HandleTypeDef* handle, uint8_t* flag) {
 337              		.loc 1 151 78 is_stmt 1 view -0
 338              		.cfi_startproc
 339              		@ args = 0, pretend = 0, frame = 0
 340              		@ frame_needed = 0, uses_anonymous_args = 0
 341              		.loc 1 151 78 is_stmt 0 view .LVU92
 342 0000 10B5     		push	{r4, lr}
 343              	.LCFI4:
 344              		.cfi_def_cfa_offset 8
 345              		.cfi_offset 4, -8
 346              		.cfi_offset 14, -4
 347 0002 0446     		mov	r4, r0
 152:Src/hd44780.c **** 
 153:Src/hd44780.c **** 	LCD_StateWriteBit(handle, 0, LCD_PIN_E);
 348              		.loc 1 153 2 is_stmt 1 view .LVU93
 349 0004 0622     		movs	r2, #6
 350 0006 0021     		movs	r1, #0
 351              	.LVL17:
 352              		.loc 1 153 2 is_stmt 0 view .LVU94
 353 0008 FFF7FEFF 		bl	LCD_StateWriteBit
 354              	.LVL18:
 154:Src/hd44780.c **** 	LCD_StateWriteBit(handle, 0, LCD_PIN_RS);
 355              		.loc 1 154 2 is_stmt 1 view .LVU95
 356 000c 0422     		movs	r2, #4
 357 000e 0021     		movs	r1, #0
 358 0010 2046     		mov	r0, r4
 359 0012 FFF7FEFF 		bl	LCD_StateWriteBit
 360              	.LVL19:
 155:Src/hd44780.c **** 	LCD_StateWriteBit(handle, 1, LCD_PIN_RW);
 361              		.loc 1 155 2 view .LVU96
 362 0016 0522     		movs	r2, #5
 363 0018 0121     		movs	r1, #1
 364 001a 2046     		mov	r0, r4
 365 001c FFF7FEFF 		bl	LCD_StateWriteBit
 366              	.LVL20:
 156:Src/hd44780.c **** 
 157:Src/hd44780.c **** 	LCD_StateWriteBit(handle, 1, LCD_PIN_E);
 367              		.loc 1 157 2 view .LVU97
 368 0020 0622     		movs	r2, #6
 369 0022 0121     		movs	r1, #1
 370 0024 2046     		mov	r0, r4
 371 0026 FFF7FEFF 		bl	LCD_StateWriteBit
 372              	.LVL21:
 158:Src/hd44780.c **** 
 159:Src/hd44780.c **** 	//PCF8574_Read(&handle->pcf8574, flag);
 160:Src/hd44780.c **** 
 161:Src/hd44780.c **** 	//*flag &= 1 << handle->pins[LCD_PIN_D7];
 162:Src/hd44780.c **** 	//*flag >>= handle->pins[LCD_PIN_D7];
 163:Src/hd44780.c **** 
 164:Src/hd44780.c **** 	LCD_StateWriteBit(handle, 0, LCD_PIN_E);
 373              		.loc 1 164 2 view .LVU98
 374 002a 0622     		movs	r2, #6
 375 002c 0021     		movs	r1, #0
 376 002e 2046     		mov	r0, r4
ARM GAS  /var/folders/2w/5wbrmvx534s_vk8svtxz852c0000gn/T//ccezG4XL.s 			page 11


 377 0030 FFF7FEFF 		bl	LCD_StateWriteBit
 378              	.LVL22:
 165:Src/hd44780.c **** 
 166:Src/hd44780.c **** 	LCD_StateWriteBit(handle, 1, LCD_PIN_E);
 379              		.loc 1 166 2 view .LVU99
 380 0034 0622     		movs	r2, #6
 381 0036 0121     		movs	r1, #1
 382 0038 2046     		mov	r0, r4
 383 003a FFF7FEFF 		bl	LCD_StateWriteBit
 384              	.LVL23:
 167:Src/hd44780.c **** 
 168:Src/hd44780.c **** 	//uint8_t flag2;
 169:Src/hd44780.c **** 	//PCF8574_Read(&handle->pcf8574, &flag2);
 170:Src/hd44780.c **** 
 171:Src/hd44780.c **** 	LCD_StateWriteBit(handle, 0, LCD_PIN_E);
 385              		.loc 1 171 2 view .LVU100
 386 003e 0622     		movs	r2, #6
 387 0040 0021     		movs	r1, #0
 388 0042 2046     		mov	r0, r4
 389 0044 FFF7FEFF 		bl	LCD_StateWriteBit
 390              	.LVL24:
 172:Src/hd44780.c **** 	LCD_StateWriteBit(handle, 0, LCD_PIN_RW);
 391              		.loc 1 172 2 view .LVU101
 392 0048 0522     		movs	r2, #5
 393 004a 0021     		movs	r1, #0
 394 004c 2046     		mov	r0, r4
 395 004e FFF7FEFF 		bl	LCD_StateWriteBit
 396              	.LVL25:
 173:Src/hd44780.c **** 
 174:Src/hd44780.c **** 	return LCD_OK;
 397              		.loc 1 174 2 view .LVU102
 175:Src/hd44780.c **** 
 176:Src/hd44780.c **** }
 398              		.loc 1 176 1 is_stmt 0 view .LVU103
 399 0052 0020     		movs	r0, #0
 400 0054 10BD     		pop	{r4, pc}
 401              		.loc 1 176 1 view .LVU104
 402              		.cfi_endproc
 403              	.LFE72:
 405              		.section	.text.LCD_WaitForBusyFlag,"ax",%progbits
 406              		.align	1
 407              		.global	LCD_WaitForBusyFlag
 408              		.syntax unified
 409              		.thumb
 410              		.thumb_func
 412              	LCD_WaitForBusyFlag:
 413              	.LVL26:
 414              	.LFB66:
  13:Src/hd44780.c **** 	uint8_t flag;
 415              		.loc 1 13 61 is_stmt 1 view -0
 416              		.cfi_startproc
 417              		@ args = 0, pretend = 0, frame = 8
 418              		@ frame_needed = 0, uses_anonymous_args = 0
  13:Src/hd44780.c **** 	uint8_t flag;
 419              		.loc 1 13 61 is_stmt 0 view .LVU106
 420 0000 00B5     		push	{lr}
 421              	.LCFI5:
ARM GAS  /var/folders/2w/5wbrmvx534s_vk8svtxz852c0000gn/T//ccezG4XL.s 			page 12


 422              		.cfi_def_cfa_offset 4
 423              		.cfi_offset 14, -4
 424 0002 83B0     		sub	sp, sp, #12
 425              	.LCFI6:
 426              		.cfi_def_cfa_offset 16
  14:Src/hd44780.c **** 	LCD_GetBusyFlag(handle, &flag);
 427              		.loc 1 14 2 is_stmt 1 view .LVU107
  15:Src/hd44780.c **** 	//uint32_t startTick=HAL_GetTick();
 428              		.loc 1 15 2 view .LVU108
 429 0004 0DF10701 		add	r1, sp, #7
 430 0008 FFF7FEFF 		bl	LCD_GetBusyFlag
 431              	.LVL27:
  20:Src/hd44780.c **** }
 432              		.loc 1 20 2 view .LVU109
  21:Src/hd44780.c **** 
 433              		.loc 1 21 1 is_stmt 0 view .LVU110
 434 000c 03B0     		add	sp, sp, #12
 435              	.LCFI7:
 436              		.cfi_def_cfa_offset 4
 437              		@ sp needed
 438 000e 5DF804FB 		ldr	pc, [sp], #4
 439              		.cfi_endproc
 440              	.LFE66:
 442              		.section	.text.LCD_WriteCMD,"ax",%progbits
 443              		.align	1
 444              		.global	LCD_WriteCMD
 445              		.syntax unified
 446              		.thumb
 447              		.thumb_func
 449              	LCD_WriteCMD:
 450              	.LVL28:
 451              	.LFB73:
 177:Src/hd44780.c **** 
 178:Src/hd44780.c **** LCD_RESULT LCD_WriteCMD(LCD_PCF8574_HandleTypeDef* handle, uint8_t cmd) {
 452              		.loc 1 178 73 is_stmt 1 view -0
 453              		.cfi_startproc
 454              		@ args = 0, pretend = 0, frame = 0
 455              		@ frame_needed = 0, uses_anonymous_args = 0
 456              		.loc 1 178 73 is_stmt 0 view .LVU112
 457 0000 70B5     		push	{r4, r5, r6, lr}
 458              	.LCFI8:
 459              		.cfi_def_cfa_offset 16
 460              		.cfi_offset 4, -16
 461              		.cfi_offset 5, -12
 462              		.cfi_offset 6, -8
 463              		.cfi_offset 14, -4
 179:Src/hd44780.c **** 	if (!LCDerrorFlag) {
 464              		.loc 1 179 2 is_stmt 1 view .LVU113
 465              		.loc 1 179 6 is_stmt 0 view .LVU114
 466 0002 184B     		ldr	r3, .L33
 467 0004 1D78     		ldrb	r5, [r3]	@ zero_extendqisi2
 468              		.loc 1 179 5 view .LVU115
 469 0006 15B1     		cbz	r5, .L32
 180:Src/hd44780.c **** 		LCD_StateWriteBit(handle, 0, LCD_PIN_E);
 181:Src/hd44780.c **** 		LCD_StateWriteBit(handle, 0, LCD_PIN_RS);
 182:Src/hd44780.c **** 
 183:Src/hd44780.c **** 		LCD_WriteToDataBus(handle, cmd >> 4);
ARM GAS  /var/folders/2w/5wbrmvx534s_vk8svtxz852c0000gn/T//ccezG4XL.s 			page 13


 184:Src/hd44780.c **** 		LCD_StateWriteBit(handle, 1, LCD_PIN_E);
 185:Src/hd44780.c **** 		LCD_StateWriteBit(handle, 0, LCD_PIN_E);
 186:Src/hd44780.c **** 
 187:Src/hd44780.c **** 		LCD_WriteToDataBus(handle, cmd);
 188:Src/hd44780.c **** 		LCD_StateWriteBit(handle, 1, LCD_PIN_E);
 189:Src/hd44780.c **** 		LCD_StateWriteBit(handle, 0, LCD_PIN_E);
 190:Src/hd44780.c **** 
 191:Src/hd44780.c **** 		LCD_WaitForBusyFlag(handle);
 192:Src/hd44780.c **** 
 193:Src/hd44780.c **** 		return LCD_OK;
 194:Src/hd44780.c **** 	} return LCD_ERROR;
 470              		.loc 1 194 11 view .LVU116
 471 0008 0125     		movs	r5, #1
 472              	.LVL29:
 473              	.L29:
 195:Src/hd44780.c **** 
 196:Src/hd44780.c **** }
 474              		.loc 1 196 1 view .LVU117
 475 000a 2846     		mov	r0, r5
 476 000c 70BD     		pop	{r4, r5, r6, pc}
 477              	.LVL30:
 478              	.L32:
 479              		.loc 1 196 1 view .LVU118
 480 000e 0446     		mov	r4, r0
 481 0010 0E46     		mov	r6, r1
 180:Src/hd44780.c **** 		LCD_StateWriteBit(handle, 0, LCD_PIN_E);
 482              		.loc 1 180 3 is_stmt 1 view .LVU119
 483 0012 0622     		movs	r2, #6
 484 0014 0021     		movs	r1, #0
 485              	.LVL31:
 180:Src/hd44780.c **** 		LCD_StateWriteBit(handle, 0, LCD_PIN_E);
 486              		.loc 1 180 3 is_stmt 0 view .LVU120
 487 0016 FFF7FEFF 		bl	LCD_StateWriteBit
 488              	.LVL32:
 181:Src/hd44780.c **** 
 489              		.loc 1 181 3 is_stmt 1 view .LVU121
 490 001a 0422     		movs	r2, #4
 491 001c 0021     		movs	r1, #0
 492 001e 2046     		mov	r0, r4
 493 0020 FFF7FEFF 		bl	LCD_StateWriteBit
 494              	.LVL33:
 183:Src/hd44780.c **** 		LCD_StateWriteBit(handle, 1, LCD_PIN_E);
 495              		.loc 1 183 3 view .LVU122
 496 0024 3109     		lsrs	r1, r6, #4
 497 0026 2046     		mov	r0, r4
 498 0028 FFF7FEFF 		bl	LCD_WriteToDataBus
 499              	.LVL34:
 184:Src/hd44780.c **** 		LCD_StateWriteBit(handle, 0, LCD_PIN_E);
 500              		.loc 1 184 3 view .LVU123
 501 002c 0622     		movs	r2, #6
 502 002e 0121     		movs	r1, #1
 503 0030 2046     		mov	r0, r4
 504 0032 FFF7FEFF 		bl	LCD_StateWriteBit
 505              	.LVL35:
 185:Src/hd44780.c **** 
 506              		.loc 1 185 3 view .LVU124
 507 0036 0622     		movs	r2, #6
ARM GAS  /var/folders/2w/5wbrmvx534s_vk8svtxz852c0000gn/T//ccezG4XL.s 			page 14


 508 0038 0021     		movs	r1, #0
 509 003a 2046     		mov	r0, r4
 510 003c FFF7FEFF 		bl	LCD_StateWriteBit
 511              	.LVL36:
 187:Src/hd44780.c **** 		LCD_StateWriteBit(handle, 1, LCD_PIN_E);
 512              		.loc 1 187 3 view .LVU125
 513 0040 3146     		mov	r1, r6
 514 0042 2046     		mov	r0, r4
 515 0044 FFF7FEFF 		bl	LCD_WriteToDataBus
 516              	.LVL37:
 188:Src/hd44780.c **** 		LCD_StateWriteBit(handle, 0, LCD_PIN_E);
 517              		.loc 1 188 3 view .LVU126
 518 0048 0622     		movs	r2, #6
 519 004a 0121     		movs	r1, #1
 520 004c 2046     		mov	r0, r4
 521 004e FFF7FEFF 		bl	LCD_StateWriteBit
 522              	.LVL38:
 189:Src/hd44780.c **** 
 523              		.loc 1 189 3 view .LVU127
 524 0052 0622     		movs	r2, #6
 525 0054 0021     		movs	r1, #0
 526 0056 2046     		mov	r0, r4
 527 0058 FFF7FEFF 		bl	LCD_StateWriteBit
 528              	.LVL39:
 191:Src/hd44780.c **** 
 529              		.loc 1 191 3 view .LVU128
 530 005c 2046     		mov	r0, r4
 531 005e FFF7FEFF 		bl	LCD_WaitForBusyFlag
 532              	.LVL40:
 193:Src/hd44780.c **** 	} return LCD_ERROR;
 533              		.loc 1 193 3 view .LVU129
 193:Src/hd44780.c **** 	} return LCD_ERROR;
 534              		.loc 1 193 10 is_stmt 0 view .LVU130
 535 0062 D2E7     		b	.L29
 536              	.L34:
 537              		.align	2
 538              	.L33:
 539 0064 00000000 		.word	.LANCHOR0
 540              		.cfi_endproc
 541              	.LFE73:
 543              		.section	.text.LCD_WriteDATA,"ax",%progbits
 544              		.align	1
 545              		.global	LCD_WriteDATA
 546              		.syntax unified
 547              		.thumb
 548              		.thumb_func
 550              	LCD_WriteDATA:
 551              	.LVL41:
 552              	.LFB74:
 197:Src/hd44780.c **** 
 198:Src/hd44780.c **** LCD_RESULT LCD_WriteDATA(LCD_PCF8574_HandleTypeDef* handle, uint8_t data) {
 553              		.loc 1 198 75 is_stmt 1 view -0
 554              		.cfi_startproc
 555              		@ args = 0, pretend = 0, frame = 0
 556              		@ frame_needed = 0, uses_anonymous_args = 0
 557              		.loc 1 198 75 is_stmt 0 view .LVU132
 558 0000 38B5     		push	{r3, r4, r5, lr}
ARM GAS  /var/folders/2w/5wbrmvx534s_vk8svtxz852c0000gn/T//ccezG4XL.s 			page 15


 559              	.LCFI9:
 560              		.cfi_def_cfa_offset 16
 561              		.cfi_offset 3, -16
 562              		.cfi_offset 4, -12
 563              		.cfi_offset 5, -8
 564              		.cfi_offset 14, -4
 565 0002 0446     		mov	r4, r0
 566 0004 0D46     		mov	r5, r1
 199:Src/hd44780.c **** 
 200:Src/hd44780.c **** 	LCD_StateWriteBit(handle, 0, LCD_PIN_E);
 567              		.loc 1 200 2 is_stmt 1 view .LVU133
 568 0006 0622     		movs	r2, #6
 569 0008 0021     		movs	r1, #0
 570              	.LVL42:
 571              		.loc 1 200 2 is_stmt 0 view .LVU134
 572 000a FFF7FEFF 		bl	LCD_StateWriteBit
 573              	.LVL43:
 201:Src/hd44780.c **** 	LCD_StateWriteBit(handle, 1, LCD_PIN_RS);
 574              		.loc 1 201 2 is_stmt 1 view .LVU135
 575 000e 0422     		movs	r2, #4
 576 0010 0121     		movs	r1, #1
 577 0012 2046     		mov	r0, r4
 578 0014 FFF7FEFF 		bl	LCD_StateWriteBit
 579              	.LVL44:
 202:Src/hd44780.c **** 
 203:Src/hd44780.c **** 	LCD_WriteToDataBus(handle, data >> 4);
 580              		.loc 1 203 2 view .LVU136
 581 0018 2909     		lsrs	r1, r5, #4
 582 001a 2046     		mov	r0, r4
 583 001c FFF7FEFF 		bl	LCD_WriteToDataBus
 584              	.LVL45:
 204:Src/hd44780.c **** 	LCD_StateWriteBit(handle, 1, LCD_PIN_E);
 585              		.loc 1 204 2 view .LVU137
 586 0020 0622     		movs	r2, #6
 587 0022 0121     		movs	r1, #1
 588 0024 2046     		mov	r0, r4
 589 0026 FFF7FEFF 		bl	LCD_StateWriteBit
 590              	.LVL46:
 205:Src/hd44780.c **** 	LCD_StateWriteBit(handle, 0, LCD_PIN_E);
 591              		.loc 1 205 2 view .LVU138
 592 002a 0622     		movs	r2, #6
 593 002c 0021     		movs	r1, #0
 594 002e 2046     		mov	r0, r4
 595 0030 FFF7FEFF 		bl	LCD_StateWriteBit
 596              	.LVL47:
 206:Src/hd44780.c **** 
 207:Src/hd44780.c **** 	LCD_WriteToDataBus(handle, data);
 597              		.loc 1 207 2 view .LVU139
 598 0034 2946     		mov	r1, r5
 599 0036 2046     		mov	r0, r4
 600 0038 FFF7FEFF 		bl	LCD_WriteToDataBus
 601              	.LVL48:
 208:Src/hd44780.c **** 	LCD_StateWriteBit(handle, 1, LCD_PIN_E);
 602              		.loc 1 208 2 view .LVU140
 603 003c 0622     		movs	r2, #6
 604 003e 0121     		movs	r1, #1
 605 0040 2046     		mov	r0, r4
ARM GAS  /var/folders/2w/5wbrmvx534s_vk8svtxz852c0000gn/T//ccezG4XL.s 			page 16


 606 0042 FFF7FEFF 		bl	LCD_StateWriteBit
 607              	.LVL49:
 209:Src/hd44780.c **** 	LCD_StateWriteBit(handle, 0, LCD_PIN_E);
 608              		.loc 1 209 2 view .LVU141
 609 0046 0622     		movs	r2, #6
 610 0048 0021     		movs	r1, #0
 611 004a 2046     		mov	r0, r4
 612 004c FFF7FEFF 		bl	LCD_StateWriteBit
 613              	.LVL50:
 210:Src/hd44780.c **** 
 211:Src/hd44780.c **** 	LCD_WaitForBusyFlag(handle);
 614              		.loc 1 211 2 view .LVU142
 615 0050 2046     		mov	r0, r4
 616 0052 FFF7FEFF 		bl	LCD_WaitForBusyFlag
 617              	.LVL51:
 212:Src/hd44780.c **** 
 213:Src/hd44780.c **** 	return LCD_OK;
 618              		.loc 1 213 2 view .LVU143
 214:Src/hd44780.c **** 
 215:Src/hd44780.c **** }
 619              		.loc 1 215 1 is_stmt 0 view .LVU144
 620 0056 0020     		movs	r0, #0
 621 0058 38BD     		pop	{r3, r4, r5, pc}
 622              		.loc 1 215 1 view .LVU145
 623              		.cfi_endproc
 624              	.LFE74:
 626              		.section	.text.LCD_SetLocation,"ax",%progbits
 627              		.align	1
 628              		.global	LCD_SetLocation
 629              		.syntax unified
 630              		.thumb
 631              		.thumb_func
 633              	LCD_SetLocation:
 634              	.LVL52:
 635              	.LFB75:
 216:Src/hd44780.c **** 
 217:Src/hd44780.c **** LCD_RESULT LCD_SetLocation(LCD_PCF8574_HandleTypeDef* handle, uint8_t x,
 218:Src/hd44780.c **** 		uint8_t y) {
 636              		.loc 1 218 14 is_stmt 1 view -0
 637              		.cfi_startproc
 638              		@ args = 0, pretend = 0, frame = 0
 639              		@ frame_needed = 0, uses_anonymous_args = 0
 640              		.loc 1 218 14 is_stmt 0 view .LVU147
 641 0000 08B5     		push	{r3, lr}
 642              	.LCFI10:
 643              		.cfi_def_cfa_offset 8
 644              		.cfi_offset 3, -8
 645              		.cfi_offset 14, -4
 219:Src/hd44780.c **** 
 220:Src/hd44780.c **** 	uint8_t add = 0x40 * y + x;
 646              		.loc 1 220 2 is_stmt 1 view .LVU148
 647              		.loc 1 220 25 is_stmt 0 view .LVU149
 648 0002 9201     		lsls	r2, r2, #6
 649              	.LVL53:
 650              		.loc 1 220 25 view .LVU150
 651 0004 D2B2     		uxtb	r2, r2
 652              		.loc 1 220 10 view .LVU151
ARM GAS  /var/folders/2w/5wbrmvx534s_vk8svtxz852c0000gn/T//ccezG4XL.s 			page 17


 653 0006 1144     		add	r1, r1, r2
 654              	.LVL54:
 221:Src/hd44780.c **** 	uint8_t cmd = 1 << 7;
 655              		.loc 1 221 2 is_stmt 1 view .LVU152
 222:Src/hd44780.c **** 	cmd = cmd | add;
 656              		.loc 1 222 2 view .LVU153
 657              		.loc 1 222 6 is_stmt 0 view .LVU154
 658 0008 61F07F01 		orn	r1, r1, #127
 659              	.LVL55:
 223:Src/hd44780.c **** 	return LCD_WriteCMD(handle, cmd);
 660              		.loc 1 223 2 is_stmt 1 view .LVU155
 661              		.loc 1 223 9 is_stmt 0 view .LVU156
 662 000c C9B2     		uxtb	r1, r1
 663              		.loc 1 223 9 view .LVU157
 664 000e FFF7FEFF 		bl	LCD_WriteCMD
 665              	.LVL56:
 224:Src/hd44780.c **** 
 225:Src/hd44780.c **** }
 666              		.loc 1 225 1 view .LVU158
 667 0012 08BD     		pop	{r3, pc}
 668              		.cfi_endproc
 669              	.LFE75:
 671              		.section	.text.LCD_WriteString,"ax",%progbits
 672              		.align	1
 673              		.global	LCD_WriteString
 674              		.syntax unified
 675              		.thumb
 676              		.thumb_func
 678              	LCD_WriteString:
 679              	.LVL57:
 680              	.LFB76:
 226:Src/hd44780.c **** 
 227:Src/hd44780.c **** LCD_RESULT LCD_WriteString(LCD_PCF8574_HandleTypeDef* handle, char *s) {
 681              		.loc 1 227 72 is_stmt 1 view -0
 682              		.cfi_startproc
 683              		@ args = 0, pretend = 0, frame = 0
 684              		@ frame_needed = 0, uses_anonymous_args = 0
 228:Src/hd44780.c **** 	int i = 0;
 685              		.loc 1 228 2 view .LVU160
 229:Src/hd44780.c **** 
 230:Src/hd44780.c **** 	if (s != 0) {
 686              		.loc 1 230 2 view .LVU161
 687              		.loc 1 230 5 is_stmt 0 view .LVU162
 688 0000 99B1     		cbz	r1, .L47
 227:Src/hd44780.c **** 	int i = 0;
 689              		.loc 1 227 72 view .LVU163
 690 0002 70B5     		push	{r4, r5, r6, lr}
 691              	.LCFI11:
 692              		.cfi_def_cfa_offset 16
 693              		.cfi_offset 4, -16
 694              		.cfi_offset 5, -12
 695              		.cfi_offset 6, -8
 696              		.cfi_offset 14, -4
 697 0004 0546     		mov	r5, r0
 698 0006 0E46     		mov	r6, r1
 228:Src/hd44780.c **** 	int i = 0;
 699              		.loc 1 228 6 view .LVU164
ARM GAS  /var/folders/2w/5wbrmvx534s_vk8svtxz852c0000gn/T//ccezG4XL.s 			page 18


 700 0008 0024     		movs	r4, #0
 701 000a 07E0     		b	.L40
 702              	.LVL58:
 703              	.L42:
 231:Src/hd44780.c **** 
 232:Src/hd44780.c **** 		while (i < 80 && s[i] != 0) {
 233:Src/hd44780.c **** 			LCD_WaitForBusyFlag(handle);
 704              		.loc 1 233 4 is_stmt 1 view .LVU165
 705 000c 2846     		mov	r0, r5
 706 000e FFF7FEFF 		bl	LCD_WaitForBusyFlag
 707              	.LVL59:
 234:Src/hd44780.c **** 			LCD_WriteDATA(handle, s[i]);
 708              		.loc 1 234 4 view .LVU166
 709 0012 315D     		ldrb	r1, [r6, r4]	@ zero_extendqisi2
 710 0014 2846     		mov	r0, r5
 711 0016 FFF7FEFF 		bl	LCD_WriteDATA
 712              	.LVL60:
 235:Src/hd44780.c **** 			i++;
 713              		.loc 1 235 4 view .LVU167
 714              		.loc 1 235 5 is_stmt 0 view .LVU168
 715 001a 0134     		adds	r4, r4, #1
 716              	.LVL61:
 717              	.L40:
 232:Src/hd44780.c **** 			LCD_WaitForBusyFlag(handle);
 718              		.loc 1 232 9 is_stmt 1 view .LVU169
 719 001c 4F2C     		cmp	r4, #79
 720 001e 02DC     		bgt	.L41
 232:Src/hd44780.c **** 			LCD_WaitForBusyFlag(handle);
 721              		.loc 1 232 21 is_stmt 0 discriminator 1 view .LVU170
 722 0020 335D     		ldrb	r3, [r6, r4]	@ zero_extendqisi2
 232:Src/hd44780.c **** 			LCD_WaitForBusyFlag(handle);
 723              		.loc 1 232 17 discriminator 1 view .LVU171
 724 0022 002B     		cmp	r3, #0
 725 0024 F2D1     		bne	.L42
 726              	.L41:
 236:Src/hd44780.c **** 		}
 237:Src/hd44780.c **** 	}
 238:Src/hd44780.c **** 	return LCD_OK;
 727              		.loc 1 238 2 is_stmt 1 view .LVU172
 239:Src/hd44780.c **** }
 728              		.loc 1 239 1 is_stmt 0 view .LVU173
 729 0026 0020     		movs	r0, #0
 730 0028 70BD     		pop	{r4, r5, r6, pc}
 731              	.LVL62:
 732              	.L47:
 733              	.LCFI12:
 734              		.cfi_def_cfa_offset 0
 735              		.cfi_restore 4
 736              		.cfi_restore 5
 737              		.cfi_restore 6
 738              		.cfi_restore 14
 238:Src/hd44780.c **** }
 739              		.loc 1 238 2 is_stmt 1 view .LVU174
 740              		.loc 1 239 1 is_stmt 0 view .LVU175
 741 002a 0020     		movs	r0, #0
 742              	.LVL63:
 743              		.loc 1 239 1 view .LVU176
ARM GAS  /var/folders/2w/5wbrmvx534s_vk8svtxz852c0000gn/T//ccezG4XL.s 			page 19


 744 002c 7047     		bx	lr
 745              		.cfi_endproc
 746              	.LFE76:
 748              		.section	.text.LCD_ClearDisplay,"ax",%progbits
 749              		.align	1
 750              		.global	LCD_ClearDisplay
 751              		.syntax unified
 752              		.thumb
 753              		.thumb_func
 755              	LCD_ClearDisplay:
 756              	.LVL64:
 757              	.LFB77:
 240:Src/hd44780.c **** 
 241:Src/hd44780.c **** LCD_RESULT LCD_ClearDisplay(LCD_PCF8574_HandleTypeDef* handle) {
 758              		.loc 1 241 64 is_stmt 1 view -0
 759              		.cfi_startproc
 760              		@ args = 0, pretend = 0, frame = 0
 761              		@ frame_needed = 0, uses_anonymous_args = 0
 762              		.loc 1 241 64 is_stmt 0 view .LVU178
 763 0000 08B5     		push	{r3, lr}
 764              	.LCFI13:
 765              		.cfi_def_cfa_offset 8
 766              		.cfi_offset 3, -8
 767              		.cfi_offset 14, -4
 242:Src/hd44780.c **** 	return LCD_WriteCMD(handle, 1);
 768              		.loc 1 242 2 is_stmt 1 view .LVU179
 769              		.loc 1 242 9 is_stmt 0 view .LVU180
 770 0002 0121     		movs	r1, #1
 771 0004 FFF7FEFF 		bl	LCD_WriteCMD
 772              	.LVL65:
 243:Src/hd44780.c **** }
 773              		.loc 1 243 1 view .LVU181
 774 0008 08BD     		pop	{r3, pc}
 775              		.cfi_endproc
 776              	.LFE77:
 778              		.section	.text.LCD_DisplayON,"ax",%progbits
 779              		.align	1
 780              		.global	LCD_DisplayON
 781              		.syntax unified
 782              		.thumb
 783              		.thumb_func
 785              	LCD_DisplayON:
 786              	.LVL66:
 787              	.LFB78:
 244:Src/hd44780.c **** 
 245:Src/hd44780.c **** LCD_RESULT LCD_DisplayON(LCD_PCF8574_HandleTypeDef* handle) {
 788              		.loc 1 245 61 is_stmt 1 view -0
 789              		.cfi_startproc
 790              		@ args = 0, pretend = 0, frame = 0
 791              		@ frame_needed = 0, uses_anonymous_args = 0
 792              		.loc 1 245 61 is_stmt 0 view .LVU183
 793 0000 08B5     		push	{r3, lr}
 794              	.LCFI14:
 795              		.cfi_def_cfa_offset 8
 796              		.cfi_offset 3, -8
 797              		.cfi_offset 14, -4
 246:Src/hd44780.c **** 	handle->D = 1;
ARM GAS  /var/folders/2w/5wbrmvx534s_vk8svtxz852c0000gn/T//ccezG4XL.s 			page 20


 798              		.loc 1 246 2 is_stmt 1 view .LVU184
 799              		.loc 1 246 12 is_stmt 0 view .LVU185
 800 0002 0123     		movs	r3, #1
 801 0004 4370     		strb	r3, [r0, #1]
 247:Src/hd44780.c **** 	uint8_t cmd = 0;
 802              		.loc 1 247 2 is_stmt 1 view .LVU186
 803              	.LVL67:
 248:Src/hd44780.c **** 	cmd = cmd | (1 << 3);
 804              		.loc 1 248 2 view .LVU187
 249:Src/hd44780.c **** 	cmd = cmd | (handle->D << 2);
 805              		.loc 1 249 2 view .LVU188
 250:Src/hd44780.c **** 	cmd = cmd | (handle->C << 1);
 806              		.loc 1 250 2 view .LVU189
 807              		.loc 1 250 21 is_stmt 0 view .LVU190
 808 0006 8378     		ldrb	r3, [r0, #2]	@ zero_extendqisi2
 809              		.loc 1 250 25 view .LVU191
 810 0008 5B00     		lsls	r3, r3, #1
 811              		.loc 1 250 12 view .LVU192
 812 000a 43F00C03 		orr	r3, r3, #12
 813              		.loc 1 250 6 view .LVU193
 814 000e 03F0FE03 		and	r3, r3, #254
 815              	.LVL68:
 251:Src/hd44780.c **** 	cmd = cmd | handle->B;
 816              		.loc 1 251 2 is_stmt 1 view .LVU194
 817              		.loc 1 251 20 is_stmt 0 view .LVU195
 818 0012 C178     		ldrb	r1, [r0, #3]	@ zero_extendqisi2
 819              	.LVL69:
 252:Src/hd44780.c **** 	return LCD_WriteCMD(handle, cmd);
 820              		.loc 1 252 2 is_stmt 1 view .LVU196
 821              		.loc 1 252 9 is_stmt 0 view .LVU197
 822 0014 1943     		orrs	r1, r1, r3
 823              	.LVL70:
 824              		.loc 1 252 9 view .LVU198
 825 0016 FFF7FEFF 		bl	LCD_WriteCMD
 826              	.LVL71:
 253:Src/hd44780.c **** }
 827              		.loc 1 253 1 view .LVU199
 828 001a 08BD     		pop	{r3, pc}
 829              		.cfi_endproc
 830              	.LFE78:
 832              		.section	.text.LCD_DisplayOFF,"ax",%progbits
 833              		.align	1
 834              		.global	LCD_DisplayOFF
 835              		.syntax unified
 836              		.thumb
 837              		.thumb_func
 839              	LCD_DisplayOFF:
 840              	.LVL72:
 841              	.LFB79:
 254:Src/hd44780.c **** 
 255:Src/hd44780.c **** LCD_RESULT LCD_DisplayOFF(LCD_PCF8574_HandleTypeDef* handle) {
 842              		.loc 1 255 62 is_stmt 1 view -0
 843              		.cfi_startproc
 844              		@ args = 0, pretend = 0, frame = 0
 845              		@ frame_needed = 0, uses_anonymous_args = 0
 846              		.loc 1 255 62 is_stmt 0 view .LVU201
 847 0000 08B5     		push	{r3, lr}
ARM GAS  /var/folders/2w/5wbrmvx534s_vk8svtxz852c0000gn/T//ccezG4XL.s 			page 21


 848              	.LCFI15:
 849              		.cfi_def_cfa_offset 8
 850              		.cfi_offset 3, -8
 851              		.cfi_offset 14, -4
 256:Src/hd44780.c **** 	handle->D = 0;
 852              		.loc 1 256 2 is_stmt 1 view .LVU202
 853              		.loc 1 256 12 is_stmt 0 view .LVU203
 854 0002 0023     		movs	r3, #0
 855 0004 4370     		strb	r3, [r0, #1]
 257:Src/hd44780.c **** 	uint8_t cmd = 0;
 856              		.loc 1 257 2 is_stmt 1 view .LVU204
 857              	.LVL73:
 258:Src/hd44780.c **** 	cmd = cmd | (1 << 3);
 858              		.loc 1 258 2 view .LVU205
 259:Src/hd44780.c **** 	cmd = cmd | (handle->D << 2);
 859              		.loc 1 259 2 view .LVU206
 260:Src/hd44780.c **** 	cmd = cmd | (handle->C << 1);
 860              		.loc 1 260 2 view .LVU207
 861              		.loc 1 260 21 is_stmt 0 view .LVU208
 862 0006 8378     		ldrb	r3, [r0, #2]	@ zero_extendqisi2
 863              		.loc 1 260 25 view .LVU209
 864 0008 5B00     		lsls	r3, r3, #1
 865              		.loc 1 260 12 view .LVU210
 866 000a 43F00803 		orr	r3, r3, #8
 867              		.loc 1 260 6 view .LVU211
 868 000e 03F0FE03 		and	r3, r3, #254
 869              	.LVL74:
 261:Src/hd44780.c **** 	cmd = cmd | handle->B;
 870              		.loc 1 261 2 is_stmt 1 view .LVU212
 871              		.loc 1 261 20 is_stmt 0 view .LVU213
 872 0012 C178     		ldrb	r1, [r0, #3]	@ zero_extendqisi2
 873              	.LVL75:
 262:Src/hd44780.c **** 	return LCD_WriteCMD(handle, cmd);
 874              		.loc 1 262 2 is_stmt 1 view .LVU214
 875              		.loc 1 262 9 is_stmt 0 view .LVU215
 876 0014 1943     		orrs	r1, r1, r3
 877              	.LVL76:
 878              		.loc 1 262 9 view .LVU216
 879 0016 FFF7FEFF 		bl	LCD_WriteCMD
 880              	.LVL77:
 263:Src/hd44780.c **** }
 881              		.loc 1 263 1 view .LVU217
 882 001a 08BD     		pop	{r3, pc}
 883              		.cfi_endproc
 884              	.LFE79:
 886              		.section	.text.LCD_CursorON,"ax",%progbits
 887              		.align	1
 888              		.global	LCD_CursorON
 889              		.syntax unified
 890              		.thumb
 891              		.thumb_func
 893              	LCD_CursorON:
 894              	.LVL78:
 895              	.LFB80:
 264:Src/hd44780.c **** 
 265:Src/hd44780.c **** LCD_RESULT LCD_CursorON(LCD_PCF8574_HandleTypeDef* handle, uint8_t blink) {
 896              		.loc 1 265 75 is_stmt 1 view -0
ARM GAS  /var/folders/2w/5wbrmvx534s_vk8svtxz852c0000gn/T//ccezG4XL.s 			page 22


 897              		.cfi_startproc
 898              		@ args = 0, pretend = 0, frame = 0
 899              		@ frame_needed = 0, uses_anonymous_args = 0
 900              		.loc 1 265 75 is_stmt 0 view .LVU219
 901 0000 08B5     		push	{r3, lr}
 902              	.LCFI16:
 903              		.cfi_def_cfa_offset 8
 904              		.cfi_offset 3, -8
 905              		.cfi_offset 14, -4
 266:Src/hd44780.c **** 	handle->C = 1;
 906              		.loc 1 266 2 is_stmt 1 view .LVU220
 907              		.loc 1 266 12 is_stmt 0 view .LVU221
 908 0002 0122     		movs	r2, #1
 909 0004 8270     		strb	r2, [r0, #2]
 267:Src/hd44780.c **** 	blink &= 1;
 910              		.loc 1 267 2 is_stmt 1 view .LVU222
 911              		.loc 1 267 8 is_stmt 0 view .LVU223
 912 0006 1140     		ands	r1, r1, r2
 913              	.LVL79:
 268:Src/hd44780.c **** 	handle->B = blink;
 914              		.loc 1 268 2 is_stmt 1 view .LVU224
 915              		.loc 1 268 12 is_stmt 0 view .LVU225
 916 0008 C170     		strb	r1, [r0, #3]
 269:Src/hd44780.c **** 	uint8_t cmd = 0;
 917              		.loc 1 269 2 is_stmt 1 view .LVU226
 918              	.LVL80:
 270:Src/hd44780.c **** 	cmd = cmd | (1 << 3);
 919              		.loc 1 270 2 view .LVU227
 271:Src/hd44780.c **** 	cmd = cmd | (handle->D << 2);
 920              		.loc 1 271 2 view .LVU228
 921              		.loc 1 271 21 is_stmt 0 view .LVU229
 922 000a 4378     		ldrb	r3, [r0, #1]	@ zero_extendqisi2
 923              		.loc 1 271 25 view .LVU230
 924 000c 9B00     		lsls	r3, r3, #2
 925              		.loc 1 271 12 view .LVU231
 926 000e 43F00803 		orr	r3, r3, #8
 927 0012 5BB2     		sxtb	r3, r3
 928              	.LVL81:
 272:Src/hd44780.c **** 	cmd = cmd | (handle->C << 1);
 929              		.loc 1 272 2 is_stmt 1 view .LVU232
 930              		.loc 1 272 12 is_stmt 0 view .LVU233
 931 0014 43F00203 		orr	r3, r3, #2
 932              	.LVL82:
 933              		.loc 1 272 6 view .LVU234
 934 0018 DBB2     		uxtb	r3, r3
 935              	.LVL83:
 273:Src/hd44780.c **** 	cmd = cmd | handle->B;
 936              		.loc 1 273 2 is_stmt 1 view .LVU235
 274:Src/hd44780.c **** 	return LCD_WriteCMD(handle, cmd);
 937              		.loc 1 274 2 view .LVU236
 938              		.loc 1 274 9 is_stmt 0 view .LVU237
 939 001a 1943     		orrs	r1, r1, r3
 940              	.LVL84:
 941              		.loc 1 274 9 view .LVU238
 942 001c FFF7FEFF 		bl	LCD_WriteCMD
 943              	.LVL85:
 275:Src/hd44780.c **** }
ARM GAS  /var/folders/2w/5wbrmvx534s_vk8svtxz852c0000gn/T//ccezG4XL.s 			page 23


 944              		.loc 1 275 1 view .LVU239
 945 0020 08BD     		pop	{r3, pc}
 946              		.cfi_endproc
 947              	.LFE80:
 949              		.section	.text.LCD_CursorOFF,"ax",%progbits
 950              		.align	1
 951              		.global	LCD_CursorOFF
 952              		.syntax unified
 953              		.thumb
 954              		.thumb_func
 956              	LCD_CursorOFF:
 957              	.LVL86:
 958              	.LFB81:
 276:Src/hd44780.c **** 
 277:Src/hd44780.c **** LCD_RESULT LCD_CursorOFF(LCD_PCF8574_HandleTypeDef* handle) {
 959              		.loc 1 277 61 is_stmt 1 view -0
 960              		.cfi_startproc
 961              		@ args = 0, pretend = 0, frame = 0
 962              		@ frame_needed = 0, uses_anonymous_args = 0
 963              		.loc 1 277 61 is_stmt 0 view .LVU241
 964 0000 08B5     		push	{r3, lr}
 965              	.LCFI17:
 966              		.cfi_def_cfa_offset 8
 967              		.cfi_offset 3, -8
 968              		.cfi_offset 14, -4
 278:Src/hd44780.c **** 	handle->C = 0;
 969              		.loc 1 278 2 is_stmt 1 view .LVU242
 970              		.loc 1 278 12 is_stmt 0 view .LVU243
 971 0002 0023     		movs	r3, #0
 972 0004 8370     		strb	r3, [r0, #2]
 279:Src/hd44780.c **** 	uint8_t cmd = 0;
 973              		.loc 1 279 2 is_stmt 1 view .LVU244
 974              	.LVL87:
 280:Src/hd44780.c **** 	cmd = cmd | (1 << 3);
 975              		.loc 1 280 2 view .LVU245
 281:Src/hd44780.c **** 	cmd = cmd | (handle->D << 2);
 976              		.loc 1 281 2 view .LVU246
 977              		.loc 1 281 21 is_stmt 0 view .LVU247
 978 0006 4378     		ldrb	r3, [r0, #1]	@ zero_extendqisi2
 979              		.loc 1 281 25 view .LVU248
 980 0008 9B00     		lsls	r3, r3, #2
 981              		.loc 1 281 12 view .LVU249
 982 000a 43F00803 		orr	r3, r3, #8
 983              		.loc 1 281 6 view .LVU250
 984 000e 03F0FC03 		and	r3, r3, #252
 985              	.LVL88:
 282:Src/hd44780.c **** 	cmd = cmd | (handle->C << 1);
 986              		.loc 1 282 2 is_stmt 1 view .LVU251
 283:Src/hd44780.c **** 	cmd = cmd | handle->B;
 987              		.loc 1 283 2 view .LVU252
 988              		.loc 1 283 20 is_stmt 0 view .LVU253
 989 0012 C178     		ldrb	r1, [r0, #3]	@ zero_extendqisi2
 990              	.LVL89:
 284:Src/hd44780.c **** 	return LCD_WriteCMD(handle, cmd);
 991              		.loc 1 284 2 is_stmt 1 view .LVU254
 992              		.loc 1 284 9 is_stmt 0 view .LVU255
 993 0014 1943     		orrs	r1, r1, r3
ARM GAS  /var/folders/2w/5wbrmvx534s_vk8svtxz852c0000gn/T//ccezG4XL.s 			page 24


 994              	.LVL90:
 995              		.loc 1 284 9 view .LVU256
 996 0016 FFF7FEFF 		bl	LCD_WriteCMD
 997              	.LVL91:
 285:Src/hd44780.c **** }
 998              		.loc 1 285 1 view .LVU257
 999 001a 08BD     		pop	{r3, pc}
 1000              		.cfi_endproc
 1001              	.LFE81:
 1003              		.section	.text.LCD_ShiftCursor,"ax",%progbits
 1004              		.align	1
 1005              		.global	LCD_ShiftCursor
 1006              		.syntax unified
 1007              		.thumb
 1008              		.thumb_func
 1010              	LCD_ShiftCursor:
 1011              	.LVL92:
 1012              	.LFB82:
 286:Src/hd44780.c **** 
 287:Src/hd44780.c **** LCD_RESULT LCD_ShiftCursor(LCD_PCF8574_HandleTypeDef* handle, uint8_t direction,
 288:Src/hd44780.c **** 		uint8_t steps) {
 1013              		.loc 1 288 18 is_stmt 1 view -0
 1014              		.cfi_startproc
 1015              		@ args = 0, pretend = 0, frame = 0
 1016              		@ frame_needed = 0, uses_anonymous_args = 0
 1017              		.loc 1 288 18 is_stmt 0 view .LVU259
 1018 0000 F8B5     		push	{r3, r4, r5, r6, r7, lr}
 1019              	.LCFI18:
 1020              		.cfi_def_cfa_offset 24
 1021              		.cfi_offset 3, -24
 1022              		.cfi_offset 4, -20
 1023              		.cfi_offset 5, -16
 1024              		.cfi_offset 6, -12
 1025              		.cfi_offset 7, -8
 1026              		.cfi_offset 14, -4
 1027 0002 0746     		mov	r7, r0
 1028 0004 1646     		mov	r6, r2
 289:Src/hd44780.c **** 	direction &= 1;
 1029              		.loc 1 289 2 is_stmt 1 view .LVU260
 1030              		.loc 1 289 12 is_stmt 0 view .LVU261
 1031 0006 01F00105 		and	r5, r1, #1
 1032              	.LVL93:
 290:Src/hd44780.c **** 
 291:Src/hd44780.c **** 	uint8_t cmd = 0;
 1033              		.loc 1 291 2 is_stmt 1 view .LVU262
 292:Src/hd44780.c **** 	cmd |= 1 << 4;
 1034              		.loc 1 292 2 view .LVU263
 293:Src/hd44780.c **** 	cmd |= direction << 2;
 1035              		.loc 1 293 2 view .LVU264
 1036              		.loc 1 293 19 is_stmt 0 view .LVU265
 1037 000a AD00     		lsls	r5, r5, #2
 1038              	.LVL94:
 1039              		.loc 1 293 6 view .LVU266
 1040 000c 45F01005 		orr	r5, r5, #16
 1041              	.LVL95:
 294:Src/hd44780.c **** 
 295:Src/hd44780.c **** 	int i = 0;
ARM GAS  /var/folders/2w/5wbrmvx534s_vk8svtxz852c0000gn/T//ccezG4XL.s 			page 25


 1042              		.loc 1 295 2 is_stmt 1 view .LVU267
 296:Src/hd44780.c **** 	for (i = 0; i < steps; i++) {
 1043              		.loc 1 296 2 view .LVU268
 1044              		.loc 1 296 9 is_stmt 0 view .LVU269
 1045 0010 0024     		movs	r4, #0
 1046              		.loc 1 296 2 view .LVU270
 1047 0012 00E0     		b	.L59
 1048              	.LVL96:
 1049              	.L65:
 1050              		.loc 1 296 25 is_stmt 1 discriminator 2 view .LVU271
 1051              		.loc 1 296 26 is_stmt 0 discriminator 2 view .LVU272
 1052 0014 0134     		adds	r4, r4, #1
 1053              	.LVL97:
 1054              	.L59:
 1055              		.loc 1 296 14 is_stmt 1 discriminator 1 view .LVU273
 1056              		.loc 1 296 2 is_stmt 0 discriminator 1 view .LVU274
 1057 0016 A642     		cmp	r6, r4
 1058 0018 07DD     		ble	.L64
 297:Src/hd44780.c **** 		if (LCD_WriteCMD(handle, cmd) != LCD_OK) {
 1059              		.loc 1 297 3 is_stmt 1 view .LVU275
 1060              		.loc 1 297 7 is_stmt 0 view .LVU276
 1061 001a 2946     		mov	r1, r5
 1062 001c 3846     		mov	r0, r7
 1063 001e FFF7FEFF 		bl	LCD_WriteCMD
 1064              	.LVL98:
 1065              		.loc 1 297 6 view .LVU277
 1066 0022 0028     		cmp	r0, #0
 1067 0024 F6D0     		beq	.L65
 298:Src/hd44780.c **** 			//handle->errorCallback(LCD_ERROR);
 299:Src/hd44780.c **** 			return LCD_ERROR;
 1068              		.loc 1 299 11 view .LVU278
 1069 0026 0120     		movs	r0, #1
 1070 0028 00E0     		b	.L60
 1071              	.L64:
 300:Src/hd44780.c **** 		}
 301:Src/hd44780.c **** 	}
 302:Src/hd44780.c **** 	return LCD_OK;
 1072              		.loc 1 302 9 view .LVU279
 1073 002a 0020     		movs	r0, #0
 1074              	.L60:
 303:Src/hd44780.c **** }
 1075              		.loc 1 303 1 view .LVU280
 1076 002c F8BD     		pop	{r3, r4, r5, r6, r7, pc}
 1077              		.loc 1 303 1 view .LVU281
 1078              		.cfi_endproc
 1079              	.LFE82:
 1081              		.section	.text.LCD_ShiftDisplay,"ax",%progbits
 1082              		.align	1
 1083              		.global	LCD_ShiftDisplay
 1084              		.syntax unified
 1085              		.thumb
 1086              		.thumb_func
 1088              	LCD_ShiftDisplay:
 1089              	.LVL99:
 1090              	.LFB83:
 304:Src/hd44780.c **** 
 305:Src/hd44780.c **** LCD_RESULT LCD_ShiftDisplay(LCD_PCF8574_HandleTypeDef* handle,
ARM GAS  /var/folders/2w/5wbrmvx534s_vk8svtxz852c0000gn/T//ccezG4XL.s 			page 26


 306:Src/hd44780.c **** 		uint8_t direction, uint8_t steps) {
 1091              		.loc 1 306 37 is_stmt 1 view -0
 1092              		.cfi_startproc
 1093              		@ args = 0, pretend = 0, frame = 0
 1094              		@ frame_needed = 0, uses_anonymous_args = 0
 1095              		.loc 1 306 37 is_stmt 0 view .LVU283
 1096 0000 F8B5     		push	{r3, r4, r5, r6, r7, lr}
 1097              	.LCFI19:
 1098              		.cfi_def_cfa_offset 24
 1099              		.cfi_offset 3, -24
 1100              		.cfi_offset 4, -20
 1101              		.cfi_offset 5, -16
 1102              		.cfi_offset 6, -12
 1103              		.cfi_offset 7, -8
 1104              		.cfi_offset 14, -4
 1105 0002 0746     		mov	r7, r0
 1106 0004 1646     		mov	r6, r2
 307:Src/hd44780.c **** 	direction &= 1;
 1107              		.loc 1 307 2 is_stmt 1 view .LVU284
 1108              		.loc 1 307 12 is_stmt 0 view .LVU285
 1109 0006 01F00105 		and	r5, r1, #1
 1110              	.LVL100:
 308:Src/hd44780.c **** 
 309:Src/hd44780.c **** 	uint8_t cmd = 0;
 1111              		.loc 1 309 2 is_stmt 1 view .LVU286
 310:Src/hd44780.c **** 	cmd |= 1 << 4;
 1112              		.loc 1 310 2 view .LVU287
 311:Src/hd44780.c **** 	cmd |= 1 << 3;
 1113              		.loc 1 311 2 view .LVU288
 312:Src/hd44780.c **** 	cmd |= direction << 2;
 1114              		.loc 1 312 2 view .LVU289
 1115              		.loc 1 312 19 is_stmt 0 view .LVU290
 1116 000a AD00     		lsls	r5, r5, #2
 1117              	.LVL101:
 1118              		.loc 1 312 6 view .LVU291
 1119 000c 45F01805 		orr	r5, r5, #24
 1120              	.LVL102:
 313:Src/hd44780.c **** 
 314:Src/hd44780.c **** 	int i = 0;
 1121              		.loc 1 314 2 is_stmt 1 view .LVU292
 315:Src/hd44780.c **** 	for (i = 0; i < steps; i++) {
 1122              		.loc 1 315 2 view .LVU293
 1123              		.loc 1 315 9 is_stmt 0 view .LVU294
 1124 0010 0024     		movs	r4, #0
 1125              		.loc 1 315 2 view .LVU295
 1126 0012 00E0     		b	.L67
 1127              	.LVL103:
 1128              	.L73:
 1129              		.loc 1 315 25 is_stmt 1 discriminator 2 view .LVU296
 1130              		.loc 1 315 26 is_stmt 0 discriminator 2 view .LVU297
 1131 0014 0134     		adds	r4, r4, #1
 1132              	.LVL104:
 1133              	.L67:
 1134              		.loc 1 315 14 is_stmt 1 discriminator 1 view .LVU298
 1135              		.loc 1 315 2 is_stmt 0 discriminator 1 view .LVU299
 1136 0016 A642     		cmp	r6, r4
 1137 0018 07DD     		ble	.L72
ARM GAS  /var/folders/2w/5wbrmvx534s_vk8svtxz852c0000gn/T//ccezG4XL.s 			page 27


 316:Src/hd44780.c **** 		if (LCD_WriteCMD(handle, cmd) != LCD_OK) {
 1138              		.loc 1 316 3 is_stmt 1 view .LVU300
 1139              		.loc 1 316 7 is_stmt 0 view .LVU301
 1140 001a 2946     		mov	r1, r5
 1141 001c 3846     		mov	r0, r7
 1142 001e FFF7FEFF 		bl	LCD_WriteCMD
 1143              	.LVL105:
 1144              		.loc 1 316 6 view .LVU302
 1145 0022 0028     		cmp	r0, #0
 1146 0024 F6D0     		beq	.L73
 317:Src/hd44780.c **** 			//handle->errorCallback(LCD_ERROR);
 318:Src/hd44780.c **** 			return LCD_ERROR;
 1147              		.loc 1 318 11 view .LVU303
 1148 0026 0120     		movs	r0, #1
 1149 0028 00E0     		b	.L68
 1150              	.L72:
 319:Src/hd44780.c **** 		}
 320:Src/hd44780.c **** 	}
 321:Src/hd44780.c **** 	return LCD_OK;
 1151              		.loc 1 321 9 view .LVU304
 1152 002a 0020     		movs	r0, #0
 1153              	.L68:
 322:Src/hd44780.c **** }
 1154              		.loc 1 322 1 view .LVU305
 1155 002c F8BD     		pop	{r3, r4, r5, r6, r7, pc}
 1156              		.loc 1 322 1 view .LVU306
 1157              		.cfi_endproc
 1158              	.LFE83:
 1160              		.section	.text.LCD_WriteNumber,"ax",%progbits
 1161              		.align	1
 1162              		.global	LCD_WriteNumber
 1163              		.syntax unified
 1164              		.thumb
 1165              		.thumb_func
 1167              	LCD_WriteNumber:
 1168              	.LVL106:
 1169              	.LFB84:
 323:Src/hd44780.c **** 
 324:Src/hd44780.c **** LCD_RESULT LCD_WriteNumber(LCD_PCF8574_HandleTypeDef* handle, unsigned long n,
 325:Src/hd44780.c **** 		uint8_t base) {
 1170              		.loc 1 325 17 is_stmt 1 view -0
 1171              		.cfi_startproc
 1172              		@ args = 0, pretend = 0, frame = 40
 1173              		@ frame_needed = 0, uses_anonymous_args = 0
 1174              		.loc 1 325 17 is_stmt 0 view .LVU308
 1175 0000 30B5     		push	{r4, r5, lr}
 1176              	.LCFI20:
 1177              		.cfi_def_cfa_offset 12
 1178              		.cfi_offset 4, -12
 1179              		.cfi_offset 5, -8
 1180              		.cfi_offset 14, -4
 1181 0002 8BB0     		sub	sp, sp, #44
 1182              	.LCFI21:
 1183              		.cfi_def_cfa_offset 56
 1184 0004 8C46     		mov	ip, r1
 326:Src/hd44780.c **** 
 327:Src/hd44780.c **** 	char buf[8 * sizeof(long) + 1]; // Assumes 8-bit chars plus zero byte.
ARM GAS  /var/folders/2w/5wbrmvx534s_vk8svtxz852c0000gn/T//ccezG4XL.s 			page 28


 1185              		.loc 1 327 2 is_stmt 1 view .LVU309
 328:Src/hd44780.c **** 	char *str = &buf[sizeof(buf) - 1];
 1186              		.loc 1 328 2 view .LVU310
 1187              	.LVL107:
 329:Src/hd44780.c **** 
 330:Src/hd44780.c **** 	*str = '\0';
 1188              		.loc 1 330 2 view .LVU311
 1189              		.loc 1 330 7 is_stmt 0 view .LVU312
 1190 0006 0023     		movs	r3, #0
 1191 0008 8DF82430 		strb	r3, [sp, #36]
 331:Src/hd44780.c **** 
 332:Src/hd44780.c **** 	// prevent crash if called with base == 1
 333:Src/hd44780.c **** 	if (base < 2)
 1192              		.loc 1 333 2 is_stmt 1 view .LVU313
 1193              		.loc 1 333 5 is_stmt 0 view .LVU314
 1194 000c 012A     		cmp	r2, #1
 1195 000e 01D9     		bls	.L81
 1196              	.LVL108:
 1197              	.L75:
 334:Src/hd44780.c **** 		base = 10;
 1198              		.loc 1 334 8 view .LVU315
 1199 0010 09A9     		add	r1, sp, #36
 1200              	.LVL109:
 1201              		.loc 1 334 8 view .LVU316
 1202 0012 07E0     		b	.L78
 1203              	.LVL110:
 1204              	.L81:
 1205              		.loc 1 334 8 view .LVU317
 1206 0014 0A22     		movs	r2, #10
 1207              	.LVL111:
 1208              		.loc 1 334 8 view .LVU318
 1209 0016 FBE7     		b	.L75
 1210              	.LVL112:
 1211              	.L83:
 1212              	.LBB2:
 335:Src/hd44780.c **** 
 336:Src/hd44780.c **** 	do {
 337:Src/hd44780.c **** 		unsigned long m = n;
 338:Src/hd44780.c **** 		n /= base;
 339:Src/hd44780.c **** 		char c = m - base * n;
 340:Src/hd44780.c **** 		*--str = c < 10 ? c + '0' : c + 'A' - 10;
 1213              		.loc 1 340 10 discriminator 1 view .LVU319
 1214 0018 3033     		adds	r3, r3, #48
 1215              	.LVL113:
 1216              		.loc 1 340 10 discriminator 1 view .LVU320
 1217 001a DBB2     		uxtb	r3, r3
 1218              	.LVL114:
 1219              	.L77:
 1220              		.loc 1 340 10 discriminator 4 view .LVU321
 1221 001c 01F8013D 		strb	r3, [r1, #-1]!
 1222              	.LVL115:
 1223              		.loc 1 340 10 discriminator 4 view .LVU322
 1224              	.LBE2:
 341:Src/hd44780.c **** 	} while (n);
 1225              		.loc 1 341 10 is_stmt 1 discriminator 4 view .LVU323
 1226              		.loc 1 341 2 is_stmt 0 discriminator 4 view .LVU324
 1227 0020 A542     		cmp	r5, r4
ARM GAS  /var/folders/2w/5wbrmvx534s_vk8svtxz852c0000gn/T//ccezG4XL.s 			page 29


 1228 0022 10D8     		bhi	.L82
 1229              	.LVL116:
 1230              	.L78:
 336:Src/hd44780.c **** 		unsigned long m = n;
 1231              		.loc 1 336 2 is_stmt 1 view .LVU325
 1232              	.LBB3:
 337:Src/hd44780.c **** 		n /= base;
 1233              		.loc 1 337 3 view .LVU326
 338:Src/hd44780.c **** 		char c = m - base * n;
 1234              		.loc 1 338 3 view .LVU327
 338:Src/hd44780.c **** 		char c = m - base * n;
 1235              		.loc 1 338 5 is_stmt 0 view .LVU328
 1236 0024 1546     		mov	r5, r2
 1237 0026 6446     		mov	r4, ip
 1238 0028 BCFBF2FC 		udiv	ip, ip, r2
 1239              	.LVL117:
 339:Src/hd44780.c **** 		*--str = c < 10 ? c + '0' : c + 'A' - 10;
 1240              		.loc 1 339 3 is_stmt 1 view .LVU329
 339:Src/hd44780.c **** 		*--str = c < 10 ? c + '0' : c + 'A' - 10;
 1241              		.loc 1 339 14 is_stmt 0 view .LVU330
 1242 002c E3B2     		uxtb	r3, r4
 1243 002e 0CFB02FE 		mul	lr, ip, r2
 1244 0032 5FFA8EFE 		uxtb	lr, lr
 339:Src/hd44780.c **** 		*--str = c < 10 ? c + '0' : c + 'A' - 10;
 1245              		.loc 1 339 8 view .LVU331
 1246 0036 A3EB0E03 		sub	r3, r3, lr
 1247 003a DBB2     		uxtb	r3, r3
 1248              	.LVL118:
 340:Src/hd44780.c **** 	} while (n);
 1249              		.loc 1 340 3 is_stmt 1 view .LVU332
 340:Src/hd44780.c **** 	} while (n);
 1250              		.loc 1 340 10 is_stmt 0 view .LVU333
 1251 003c 092B     		cmp	r3, #9
 1252 003e EBD9     		bls	.L83
 340:Src/hd44780.c **** 	} while (n);
 1253              		.loc 1 340 10 discriminator 2 view .LVU334
 1254 0040 3733     		adds	r3, r3, #55
 1255              	.LVL119:
 340:Src/hd44780.c **** 	} while (n);
 1256              		.loc 1 340 10 discriminator 2 view .LVU335
 1257 0042 DBB2     		uxtb	r3, r3
 1258              	.LVL120:
 340:Src/hd44780.c **** 	} while (n);
 1259              		.loc 1 340 10 discriminator 2 view .LVU336
 1260 0044 EAE7     		b	.L77
 1261              	.L82:
 340:Src/hd44780.c **** 	} while (n);
 1262              		.loc 1 340 10 discriminator 2 view .LVU337
 1263              	.LBE3:
 342:Src/hd44780.c **** 	return LCD_WriteString(handle, str);
 1264              		.loc 1 342 2 is_stmt 1 view .LVU338
 1265              		.loc 1 342 9 is_stmt 0 view .LVU339
 1266 0046 FFF7FEFF 		bl	LCD_WriteString
 1267              	.LVL121:
 343:Src/hd44780.c **** }
 1268              		.loc 1 343 1 view .LVU340
 1269 004a 0BB0     		add	sp, sp, #44
ARM GAS  /var/folders/2w/5wbrmvx534s_vk8svtxz852c0000gn/T//ccezG4XL.s 			page 30


 1270              	.LCFI22:
 1271              		.cfi_def_cfa_offset 12
 1272              		@ sp needed
 1273 004c 30BD     		pop	{r4, r5, pc}
 1274              		.loc 1 343 1 view .LVU341
 1275              		.cfi_endproc
 1276              	.LFE84:
 1278              		.global	__aeabi_dcmplt
 1279              		.section	.rodata.LCD_WriteFloat.str1.4,"aMS",%progbits,1
 1280              		.align	2
 1281              	.LC0:
 1282 0000 2D00     		.ascii	"-\000"
 1283              		.global	__aeabi_ddiv
 1284              		.global	__aeabi_dadd
 1285              		.global	__aeabi_d2uiz
 1286              		.global	__aeabi_ui2d
 1287              		.global	__aeabi_dsub
 1288 0002 0000     		.align	2
 1289              	.LC1:
 1290 0004 2E00     		.ascii	".\000"
 1291              		.global	__aeabi_dmul
 1292              		.global	__aeabi_d2iz
 1293              		.global	__aeabi_i2d
 1294              		.section	.text.LCD_WriteFloat,"ax",%progbits
 1295              		.align	1
 1296              		.global	LCD_WriteFloat
 1297              		.syntax unified
 1298              		.thumb
 1299              		.thumb_func
 1301              	LCD_WriteFloat:
 1302              	.LVL122:
 1303              	.LFB85:
 344:Src/hd44780.c **** 
 345:Src/hd44780.c **** LCD_RESULT LCD_WriteFloat(LCD_PCF8574_HandleTypeDef* handle, double number,
 346:Src/hd44780.c **** 		uint8_t digits) {
 1304              		.loc 1 346 19 is_stmt 1 view -0
 1305              		.cfi_startproc
 1306              		@ args = 4, pretend = 0, frame = 0
 1307              		@ frame_needed = 0, uses_anonymous_args = 0
 1308              		.loc 1 346 19 is_stmt 0 view .LVU343
 1309 0000 2DE9F843 		push	{r3, r4, r5, r6, r7, r8, r9, lr}
 1310              	.LCFI23:
 1311              		.cfi_def_cfa_offset 32
 1312              		.cfi_offset 3, -32
 1313              		.cfi_offset 4, -28
 1314              		.cfi_offset 5, -24
 1315              		.cfi_offset 6, -20
 1316              		.cfi_offset 7, -16
 1317              		.cfi_offset 8, -12
 1318              		.cfi_offset 9, -8
 1319              		.cfi_offset 14, -4
 1320 0004 0546     		mov	r5, r0
 1321 0006 1746     		mov	r7, r2
 1322 0008 1E46     		mov	r6, r3
 1323 000a 9DF82090 		ldrb	r9, [sp, #32]	@ zero_extendqisi2
 347:Src/hd44780.c **** 	// Handle negative numbers
 348:Src/hd44780.c **** 	if (number < 0.0) {
ARM GAS  /var/folders/2w/5wbrmvx534s_vk8svtxz852c0000gn/T//ccezG4XL.s 			page 31


 1324              		.loc 1 348 2 is_stmt 1 view .LVU344
 1325              		.loc 1 348 5 is_stmt 0 view .LVU345
 1326 000e 0022     		movs	r2, #0
 1327              	.LVL123:
 1328              		.loc 1 348 5 view .LVU346
 1329 0010 0023     		movs	r3, #0
 1330 0012 3846     		mov	r0, r7
 1331              	.LVL124:
 1332              		.loc 1 348 5 view .LVU347
 1333 0014 3146     		mov	r1, r6
 1334 0016 FFF7FEFF 		bl	__aeabi_dcmplt
 1335              	.LVL125:
 1336 001a 18B9     		cbnz	r0, .L94
 1337              	.LVL126:
 1338              	.L85:
 349:Src/hd44780.c **** 		LCD_WriteString(handle,"-");
 350:Src/hd44780.c **** 		number = -number;
 351:Src/hd44780.c **** 	}
 352:Src/hd44780.c **** 
 353:Src/hd44780.c **** 	// Round correctly so that print(1.999, 2) prints as "2.00"
 354:Src/hd44780.c **** 	double rounding = 0.5;
 1339              		.loc 1 354 2 is_stmt 1 view .LVU348
 355:Src/hd44780.c **** 	for (uint8_t i = 0; i < digits; ++i)
 1340              		.loc 1 355 2 view .LVU349
 1341              	.LBB4:
 1342              		.loc 1 355 7 view .LVU350
 1343              		.loc 1 355 15 is_stmt 0 view .LVU351
 1344 001c 0024     		movs	r4, #0
 1345              	.LBE4:
 354:Src/hd44780.c **** 	for (uint8_t i = 0; i < digits; ++i)
 1346              		.loc 1 354 9 view .LVU352
 1347 001e 0020     		movs	r0, #0
 1348 0020 2C49     		ldr	r1, .L95
 1349              	.LBB5:
 1350              		.loc 1 355 2 view .LVU353
 1351 0022 0CE0     		b	.L87
 1352              	.LVL127:
 1353              	.L94:
 1354              		.loc 1 355 2 view .LVU354
 1355              	.LBE5:
 349:Src/hd44780.c **** 		LCD_WriteString(handle,"-");
 1356              		.loc 1 349 3 is_stmt 1 view .LVU355
 1357 0024 2C49     		ldr	r1, .L95+4
 1358 0026 2846     		mov	r0, r5
 1359 0028 FFF7FEFF 		bl	LCD_WriteString
 1360              	.LVL128:
 350:Src/hd44780.c **** 	}
 1361              		.loc 1 350 3 view .LVU356
 350:Src/hd44780.c **** 	}
 1362              		.loc 1 350 10 is_stmt 0 view .LVU357
 1363 002c 06F10046 		add	r6, r6, #-2147483648
 1364              	.LVL129:
 350:Src/hd44780.c **** 	}
 1365              		.loc 1 350 10 view .LVU358
 1366 0030 F4E7     		b	.L85
 1367              	.LVL130:
 1368              	.L88:
ARM GAS  /var/folders/2w/5wbrmvx534s_vk8svtxz852c0000gn/T//ccezG4XL.s 			page 32


 1369              	.LBB6:
 356:Src/hd44780.c **** 		rounding /= 10.0;
 1370              		.loc 1 356 3 is_stmt 1 discriminator 3 view .LVU359
 1371              		.loc 1 356 12 is_stmt 0 discriminator 3 view .LVU360
 1372 0032 0022     		movs	r2, #0
 1373 0034 294B     		ldr	r3, .L95+8
 1374 0036 FFF7FEFF 		bl	__aeabi_ddiv
 1375              	.LVL131:
 355:Src/hd44780.c **** 		rounding /= 10.0;
 1376              		.loc 1 355 34 is_stmt 1 discriminator 3 view .LVU361
 1377 003a 0134     		adds	r4, r4, #1
 1378              	.LVL132:
 355:Src/hd44780.c **** 		rounding /= 10.0;
 1379              		.loc 1 355 34 is_stmt 0 discriminator 3 view .LVU362
 1380 003c E4B2     		uxtb	r4, r4
 1381              	.LVL133:
 1382              	.L87:
 355:Src/hd44780.c **** 		rounding /= 10.0;
 1383              		.loc 1 355 22 is_stmt 1 discriminator 1 view .LVU363
 355:Src/hd44780.c **** 		rounding /= 10.0;
 1384              		.loc 1 355 2 is_stmt 0 discriminator 1 view .LVU364
 1385 003e 4C45     		cmp	r4, r9
 1386 0040 F7D3     		bcc	.L88
 1387              	.LBE6:
 357:Src/hd44780.c **** 
 358:Src/hd44780.c **** 	number += rounding;
 1388              		.loc 1 358 2 is_stmt 1 view .LVU365
 1389              		.loc 1 358 9 is_stmt 0 view .LVU366
 1390 0042 0246     		mov	r2, r0
 1391 0044 0B46     		mov	r3, r1
 1392 0046 3846     		mov	r0, r7
 1393              	.LVL134:
 1394              		.loc 1 358 9 view .LVU367
 1395 0048 3146     		mov	r1, r6
 1396 004a FFF7FEFF 		bl	__aeabi_dadd
 1397              	.LVL135:
 1398 004e 0646     		mov	r6, r0
 1399              	.LVL136:
 1400              		.loc 1 358 9 view .LVU368
 1401 0050 0F46     		mov	r7, r1
 1402              	.LVL137:
 359:Src/hd44780.c **** 
 360:Src/hd44780.c **** 	// Extract the integer part of the number and print it
 361:Src/hd44780.c **** 	unsigned long int_part = (unsigned long) number;
 1403              		.loc 1 361 2 is_stmt 1 view .LVU369
 1404              		.loc 1 361 16 is_stmt 0 view .LVU370
 1405 0052 FFF7FEFF 		bl	__aeabi_d2uiz
 1406              	.LVL138:
 1407 0056 0446     		mov	r4, r0
 1408              	.LVL139:
 362:Src/hd44780.c **** 	double remainder = number - (double) int_part;
 1409              		.loc 1 362 2 is_stmt 1 view .LVU371
 1410              		.loc 1 362 30 is_stmt 0 view .LVU372
 1411 0058 FFF7FEFF 		bl	__aeabi_ui2d
 1412              	.LVL140:
 1413              		.loc 1 362 30 view .LVU373
 1414 005c 0246     		mov	r2, r0
ARM GAS  /var/folders/2w/5wbrmvx534s_vk8svtxz852c0000gn/T//ccezG4XL.s 			page 33


 1415 005e 0B46     		mov	r3, r1
 1416              		.loc 1 362 9 view .LVU374
 1417 0060 3046     		mov	r0, r6
 1418 0062 3946     		mov	r1, r7
 1419 0064 FFF7FEFF 		bl	__aeabi_dsub
 1420              	.LVL141:
 1421 0068 0646     		mov	r6, r0
 1422              	.LVL142:
 1423              		.loc 1 362 9 view .LVU375
 1424 006a 0F46     		mov	r7, r1
 1425              	.LVL143:
 363:Src/hd44780.c **** 	LCD_WriteNumber(handle,int_part,10);
 1426              		.loc 1 363 2 is_stmt 1 view .LVU376
 1427 006c 0A22     		movs	r2, #10
 1428 006e 2146     		mov	r1, r4
 1429 0070 2846     		mov	r0, r5
 1430 0072 FFF7FEFF 		bl	LCD_WriteNumber
 1431              	.LVL144:
 364:Src/hd44780.c **** 
 365:Src/hd44780.c **** 	// Print the decimal point, but only if there are digits beyond
 366:Src/hd44780.c **** 	if (digits > 0) {
 1432              		.loc 1 366 2 view .LVU377
 1433              		.loc 1 366 5 is_stmt 0 view .LVU378
 1434 0076 B9F1000F 		cmp	r9, #0
 1435 007a 20D0     		beq	.L90
 367:Src/hd44780.c **** 		LCD_WriteString(handle,".");
 1436              		.loc 1 367 3 is_stmt 1 view .LVU379
 1437 007c 1849     		ldr	r1, .L95+12
 1438 007e 2846     		mov	r0, r5
 1439 0080 FFF7FEFF 		bl	LCD_WriteString
 1440              	.LVL145:
 1441 0084 1BE0     		b	.L90
 1442              	.LVL146:
 1443              	.L91:
 1444              	.LBB7:
 368:Src/hd44780.c **** 	}
 369:Src/hd44780.c **** 
 370:Src/hd44780.c **** 	// Extract digits from the remainder one at a time
 371:Src/hd44780.c **** 	while (digits-- > 0) {
 372:Src/hd44780.c **** 		remainder *= 10.0;
 1445              		.loc 1 372 3 view .LVU380
 1446              		.loc 1 372 13 is_stmt 0 view .LVU381
 1447 0086 0022     		movs	r2, #0
 1448 0088 144B     		ldr	r3, .L95+8
 1449 008a 3046     		mov	r0, r6
 1450 008c 3946     		mov	r1, r7
 1451 008e FFF7FEFF 		bl	__aeabi_dmul
 1452              	.LVL147:
 1453 0092 0646     		mov	r6, r0
 1454              	.LVL148:
 1455              		.loc 1 372 13 view .LVU382
 1456 0094 0F46     		mov	r7, r1
 1457              	.LVL149:
 373:Src/hd44780.c **** 		int toPrint = (int)(remainder);
 1458              		.loc 1 373 3 is_stmt 1 view .LVU383
 1459              		.loc 1 373 7 is_stmt 0 view .LVU384
 1460 0096 FFF7FEFF 		bl	__aeabi_d2iz
ARM GAS  /var/folders/2w/5wbrmvx534s_vk8svtxz852c0000gn/T//ccezG4XL.s 			page 34


 1461              	.LVL150:
 1462 009a 0446     		mov	r4, r0
 1463              	.LVL151:
 374:Src/hd44780.c **** 		LCD_WriteNumber(handle,toPrint,10);
 1464              		.loc 1 374 3 is_stmt 1 view .LVU385
 1465 009c 0A22     		movs	r2, #10
 1466 009e 0146     		mov	r1, r0
 1467 00a0 2846     		mov	r0, r5
 1468              	.LVL152:
 1469              		.loc 1 374 3 is_stmt 0 view .LVU386
 1470 00a2 FFF7FEFF 		bl	LCD_WriteNumber
 1471              	.LVL153:
 375:Src/hd44780.c **** 		remainder -= toPrint;
 1472              		.loc 1 375 3 is_stmt 1 view .LVU387
 1473              		.loc 1 375 13 is_stmt 0 view .LVU388
 1474 00a6 2046     		mov	r0, r4
 1475 00a8 FFF7FEFF 		bl	__aeabi_i2d
 1476              	.LVL154:
 1477 00ac 0246     		mov	r2, r0
 1478 00ae 0B46     		mov	r3, r1
 1479 00b0 3046     		mov	r0, r6
 1480 00b2 3946     		mov	r1, r7
 1481 00b4 FFF7FEFF 		bl	__aeabi_dsub
 1482              	.LVL155:
 1483 00b8 0646     		mov	r6, r0
 1484              	.LVL156:
 1485              		.loc 1 375 13 view .LVU389
 1486 00ba 0F46     		mov	r7, r1
 1487              	.LVL157:
 1488              		.loc 1 375 13 view .LVU390
 1489              	.LBE7:
 371:Src/hd44780.c **** 		remainder *= 10.0;
 1490              		.loc 1 371 15 view .LVU391
 1491 00bc C146     		mov	r9, r8
 1492              	.LVL158:
 1493              	.L90:
 371:Src/hd44780.c **** 		remainder *= 10.0;
 1494              		.loc 1 371 8 is_stmt 1 view .LVU392
 371:Src/hd44780.c **** 		remainder *= 10.0;
 1495              		.loc 1 371 15 is_stmt 0 view .LVU393
 1496 00be 09F1FF33 		add	r3, r9, #-1
 1497 00c2 5FFA83F8 		uxtb	r8, r3
 1498              	.LVL159:
 371:Src/hd44780.c **** 		remainder *= 10.0;
 1499              		.loc 1 371 8 view .LVU394
 1500 00c6 B9F1000F 		cmp	r9, #0
 1501 00ca DCD1     		bne	.L91
 376:Src/hd44780.c **** 	}
 377:Src/hd44780.c **** 	return LCD_OK;
 1502              		.loc 1 377 2 is_stmt 1 view .LVU395
 378:Src/hd44780.c **** }
 1503              		.loc 1 378 1 is_stmt 0 view .LVU396
 1504 00cc 0020     		movs	r0, #0
 1505 00ce BDE8F883 		pop	{r3, r4, r5, r6, r7, r8, r9, pc}
 1506              	.LVL160:
 1507              	.L96:
 1508              		.loc 1 378 1 view .LVU397
ARM GAS  /var/folders/2w/5wbrmvx534s_vk8svtxz852c0000gn/T//ccezG4XL.s 			page 35


 1509 00d2 00BF     		.align	2
 1510              	.L95:
 1511 00d4 0000E03F 		.word	1071644672
 1512 00d8 00000000 		.word	.LC0
 1513 00dc 00002440 		.word	1076101120
 1514 00e0 04000000 		.word	.LC1
 1515              		.cfi_endproc
 1516              	.LFE85:
 1518              		.section	.text.LCD_EntryModeSet,"ax",%progbits
 1519              		.align	1
 1520              		.global	LCD_EntryModeSet
 1521              		.syntax unified
 1522              		.thumb
 1523              		.thumb_func
 1525              	LCD_EntryModeSet:
 1526              	.LVL161:
 1527              	.LFB86:
 379:Src/hd44780.c **** 
 380:Src/hd44780.c **** LCD_RESULT LCD_EntryModeSet(LCD_PCF8574_HandleTypeDef* handle,
 381:Src/hd44780.c **** 		LCD_DIRECTION_INC_DEC direction, LCD_SHIFT shift) {
 1528              		.loc 1 381 53 is_stmt 1 view -0
 1529              		.cfi_startproc
 1530              		@ args = 0, pretend = 0, frame = 0
 1531              		@ frame_needed = 0, uses_anonymous_args = 0
 1532              		.loc 1 381 53 is_stmt 0 view .LVU399
 1533 0000 08B5     		push	{r3, lr}
 1534              	.LCFI24:
 1535              		.cfi_def_cfa_offset 8
 1536              		.cfi_offset 3, -8
 1537              		.cfi_offset 14, -4
 382:Src/hd44780.c **** 
 383:Src/hd44780.c **** 	uint8_t cmd = 0;
 1538              		.loc 1 383 2 is_stmt 1 view .LVU400
 1539              	.LVL162:
 384:Src/hd44780.c **** 	cmd |= 1 << 2;
 1540              		.loc 1 384 2 view .LVU401
 385:Src/hd44780.c **** 	cmd |= direction << 1;
 1541              		.loc 1 385 2 view .LVU402
 1542              		.loc 1 385 19 is_stmt 0 view .LVU403
 1543 0002 4900     		lsls	r1, r1, #1
 1544              	.LVL163:
 1545              		.loc 1 385 6 view .LVU404
 1546 0004 41F00401 		orr	r1, r1, #4
 1547 0008 C9B2     		uxtb	r1, r1
 1548              	.LVL164:
 386:Src/hd44780.c **** 	cmd |= shift;
 1549              		.loc 1 386 2 is_stmt 1 view .LVU405
 387:Src/hd44780.c **** 
 388:Src/hd44780.c **** 	return LCD_WriteCMD(handle, cmd);
 1550              		.loc 1 388 2 view .LVU406
 1551              		.loc 1 388 9 is_stmt 0 view .LVU407
 1552 000a 1143     		orrs	r1, r1, r2
 1553              	.LVL165:
 1554              		.loc 1 388 9 view .LVU408
 1555 000c FFF7FEFF 		bl	LCD_WriteCMD
 1556              	.LVL166:
 389:Src/hd44780.c **** 
ARM GAS  /var/folders/2w/5wbrmvx534s_vk8svtxz852c0000gn/T//ccezG4XL.s 			page 36


 390:Src/hd44780.c **** }
 1557              		.loc 1 390 1 view .LVU409
 1558 0010 08BD     		pop	{r3, pc}
 1559              		.cfi_endproc
 1560              	.LFE86:
 1562              		.section	.text.LCD_Init,"ax",%progbits
 1563              		.align	1
 1564              		.global	LCD_Init
 1565              		.syntax unified
 1566              		.thumb
 1567              		.thumb_func
 1569              	LCD_Init:
 1570              	.LVL167:
 1571              	.LFB70:
  50:Src/hd44780.c **** 	handle->D = 1;
 1572              		.loc 1 50 56 is_stmt 1 view -0
 1573              		.cfi_startproc
 1574              		@ args = 0, pretend = 0, frame = 0
 1575              		@ frame_needed = 0, uses_anonymous_args = 0
  50:Src/hd44780.c **** 	handle->D = 1;
 1576              		.loc 1 50 56 is_stmt 0 view .LVU411
 1577 0000 38B5     		push	{r3, r4, r5, lr}
 1578              	.LCFI25:
 1579              		.cfi_def_cfa_offset 16
 1580              		.cfi_offset 3, -16
 1581              		.cfi_offset 4, -12
 1582              		.cfi_offset 5, -8
 1583              		.cfi_offset 14, -4
  51:Src/hd44780.c **** 	handle->B = 0;
 1584              		.loc 1 51 2 is_stmt 1 view .LVU412
  51:Src/hd44780.c **** 	handle->B = 0;
 1585              		.loc 1 51 12 is_stmt 0 view .LVU413
 1586 0002 0123     		movs	r3, #1
 1587 0004 4370     		strb	r3, [r0, #1]
  52:Src/hd44780.c **** 	handle->C = 0;
 1588              		.loc 1 52 2 is_stmt 1 view .LVU414
  52:Src/hd44780.c **** 	handle->C = 0;
 1589              		.loc 1 52 12 is_stmt 0 view .LVU415
 1590 0006 0023     		movs	r3, #0
 1591 0008 C370     		strb	r3, [r0, #3]
  53:Src/hd44780.c **** 	if (handle->type == TYPE0) {
 1592              		.loc 1 53 2 is_stmt 1 view .LVU416
  53:Src/hd44780.c **** 	if (handle->type == TYPE0) {
 1593              		.loc 1 53 12 is_stmt 0 view .LVU417
 1594 000a 8370     		strb	r3, [r0, #2]
  54:Src/hd44780.c **** 		handle->pins = PCF8574_Type0Pins;
 1595              		.loc 1 54 2 is_stmt 1 view .LVU418
  54:Src/hd44780.c **** 		handle->pins = PCF8574_Type0Pins;
 1596              		.loc 1 54 12 is_stmt 0 view .LVU419
 1597 000c 90F83C30 		ldrb	r3, [r0, #60]	@ zero_extendqisi2
  54:Src/hd44780.c **** 		handle->pins = PCF8574_Type0Pins;
 1598              		.loc 1 54 5 view .LVU420
 1599 0010 13B1     		cbz	r3, .L104
  58:Src/hd44780.c **** 	}
 1600              		.loc 1 58 10 view .LVU421
 1601 0012 0125     		movs	r5, #1
 1602              	.LVL168:
ARM GAS  /var/folders/2w/5wbrmvx534s_vk8svtxz852c0000gn/T//ccezG4XL.s 			page 37


 1603              	.L100:
 121:Src/hd44780.c **** 
 1604              		.loc 1 121 1 view .LVU422
 1605 0014 2846     		mov	r0, r5
 1606 0016 38BD     		pop	{r3, r4, r5, pc}
 1607              	.LVL169:
 1608              	.L104:
 121:Src/hd44780.c **** 
 1609              		.loc 1 121 1 view .LVU423
 1610 0018 0446     		mov	r4, r0
  55:Src/hd44780.c **** 	} else {
 1611              		.loc 1 55 3 is_stmt 1 view .LVU424
  55:Src/hd44780.c **** 	} else {
 1612              		.loc 1 55 16 is_stmt 0 view .LVU425
 1613 001a 454B     		ldr	r3, .L106
 1614 001c 8363     		str	r3, [r0, #56]
  60:Src/hd44780.c **** 		//handle->errorCallback(LCD_ERROR);
 1615              		.loc 1 60 2 is_stmt 1 view .LVU426
  60:Src/hd44780.c **** 		//handle->errorCallback(LCD_ERROR);
 1616              		.loc 1 60 6 is_stmt 0 view .LVU427
 1617 001e 4030     		adds	r0, r0, #64
 1618              	.LVL170:
  60:Src/hd44780.c **** 		//handle->errorCallback(LCD_ERROR);
 1619              		.loc 1 60 6 view .LVU428
 1620 0020 FFF7FEFF 		bl	PCF8574_Init
 1621              	.LVL171:
  60:Src/hd44780.c **** 		//handle->errorCallback(LCD_ERROR);
 1622              		.loc 1 60 5 view .LVU429
 1623 0024 0546     		mov	r5, r0
 1624 0026 08B1     		cbz	r0, .L105
  62:Src/hd44780.c **** 	}
 1625              		.loc 1 62 10 view .LVU430
 1626 0028 0125     		movs	r5, #1
 1627 002a F3E7     		b	.L100
 1628              	.L105:
  66:Src/hd44780.c **** 	LCD_StateWriteBit(handle, 0, LCD_PIN_RW);
 1629              		.loc 1 66 2 is_stmt 1 view .LVU431
 1630 002c 0422     		movs	r2, #4
 1631 002e 0021     		movs	r1, #0
 1632 0030 2046     		mov	r0, r4
 1633 0032 FFF7FEFF 		bl	LCD_StateWriteBit
 1634              	.LVL172:
  67:Src/hd44780.c **** 	LCD_StateWriteBit(handle, 0, LCD_PIN_E);
 1635              		.loc 1 67 2 view .LVU432
 1636 0036 0522     		movs	r2, #5
 1637 0038 0021     		movs	r1, #0
 1638 003a 2046     		mov	r0, r4
 1639 003c FFF7FEFF 		bl	LCD_StateWriteBit
 1640              	.LVL173:
  68:Src/hd44780.c **** 
 1641              		.loc 1 68 2 view .LVU433
 1642 0040 0622     		movs	r2, #6
 1643 0042 0021     		movs	r1, #0
 1644 0044 2046     		mov	r0, r4
 1645 0046 FFF7FEFF 		bl	LCD_StateWriteBit
 1646              	.LVL174:
  70:Src/hd44780.c **** 
ARM GAS  /var/folders/2w/5wbrmvx534s_vk8svtxz852c0000gn/T//ccezG4XL.s 			page 38


 1647              		.loc 1 70 2 view .LVU434
 1648 004a 0321     		movs	r1, #3
 1649 004c 2046     		mov	r0, r4
 1650 004e FFF7FEFF 		bl	LCD_WriteToDataBus
 1651              	.LVL175:
  72:Src/hd44780.c **** 	HAL_Delay(1);
 1652              		.loc 1 72 2 view .LVU435
 1653 0052 0622     		movs	r2, #6
 1654 0054 0121     		movs	r1, #1
 1655 0056 2046     		mov	r0, r4
 1656 0058 FFF7FEFF 		bl	LCD_StateWriteBit
 1657              	.LVL176:
  73:Src/hd44780.c **** 	LCD_StateWriteBit(handle, 0, LCD_PIN_E);
 1658              		.loc 1 73 2 view .LVU436
 1659 005c 0120     		movs	r0, #1
 1660 005e FFF7FEFF 		bl	HAL_Delay
 1661              	.LVL177:
  74:Src/hd44780.c **** 	HAL_Delay(5);
 1662              		.loc 1 74 2 view .LVU437
 1663 0062 0622     		movs	r2, #6
 1664 0064 0021     		movs	r1, #0
 1665 0066 2046     		mov	r0, r4
 1666 0068 FFF7FEFF 		bl	LCD_StateWriteBit
 1667              	.LVL178:
  75:Src/hd44780.c **** 
 1668              		.loc 1 75 2 view .LVU438
 1669 006c 0520     		movs	r0, #5
 1670 006e FFF7FEFF 		bl	HAL_Delay
 1671              	.LVL179:
  77:Src/hd44780.c **** 
 1672              		.loc 1 77 2 view .LVU439
 1673 0072 0321     		movs	r1, #3
 1674 0074 2046     		mov	r0, r4
 1675 0076 FFF7FEFF 		bl	LCD_WriteToDataBus
 1676              	.LVL180:
  79:Src/hd44780.c **** 	HAL_Delay(1);
 1677              		.loc 1 79 2 view .LVU440
 1678 007a 0622     		movs	r2, #6
 1679 007c 0121     		movs	r1, #1
 1680 007e 2046     		mov	r0, r4
 1681 0080 FFF7FEFF 		bl	LCD_StateWriteBit
 1682              	.LVL181:
  80:Src/hd44780.c **** 	LCD_StateWriteBit(handle, 0, LCD_PIN_E);
 1683              		.loc 1 80 2 view .LVU441
 1684 0084 0120     		movs	r0, #1
 1685 0086 FFF7FEFF 		bl	HAL_Delay
 1686              	.LVL182:
  81:Src/hd44780.c **** 	HAL_Delay(1);
 1687              		.loc 1 81 2 view .LVU442
 1688 008a 0622     		movs	r2, #6
 1689 008c 0021     		movs	r1, #0
 1690 008e 2046     		mov	r0, r4
 1691 0090 FFF7FEFF 		bl	LCD_StateWriteBit
 1692              	.LVL183:
  82:Src/hd44780.c **** 
 1693              		.loc 1 82 2 view .LVU443
 1694 0094 0120     		movs	r0, #1
ARM GAS  /var/folders/2w/5wbrmvx534s_vk8svtxz852c0000gn/T//ccezG4XL.s 			page 39


 1695 0096 FFF7FEFF 		bl	HAL_Delay
 1696              	.LVL184:
  84:Src/hd44780.c **** 
 1697              		.loc 1 84 2 view .LVU444
 1698 009a 0321     		movs	r1, #3
 1699 009c 2046     		mov	r0, r4
 1700 009e FFF7FEFF 		bl	LCD_WriteToDataBus
 1701              	.LVL185:
  86:Src/hd44780.c **** 	HAL_Delay(1);
 1702              		.loc 1 86 2 view .LVU445
 1703 00a2 0622     		movs	r2, #6
 1704 00a4 0121     		movs	r1, #1
 1705 00a6 2046     		mov	r0, r4
 1706 00a8 FFF7FEFF 		bl	LCD_StateWriteBit
 1707              	.LVL186:
  87:Src/hd44780.c **** 	LCD_StateWriteBit(handle, 0, LCD_PIN_E);
 1708              		.loc 1 87 2 view .LVU446
 1709 00ac 0120     		movs	r0, #1
 1710 00ae FFF7FEFF 		bl	HAL_Delay
 1711              	.LVL187:
  88:Src/hd44780.c **** 	HAL_Delay(1);
 1712              		.loc 1 88 2 view .LVU447
 1713 00b2 0622     		movs	r2, #6
 1714 00b4 0021     		movs	r1, #0
 1715 00b6 2046     		mov	r0, r4
 1716 00b8 FFF7FEFF 		bl	LCD_StateWriteBit
 1717              	.LVL188:
  89:Src/hd44780.c **** 
 1718              		.loc 1 89 2 view .LVU448
 1719 00bc 0120     		movs	r0, #1
 1720 00be FFF7FEFF 		bl	HAL_Delay
 1721              	.LVL189:
  91:Src/hd44780.c **** 
 1722              		.loc 1 91 2 view .LVU449
 1723 00c2 0221     		movs	r1, #2
 1724 00c4 2046     		mov	r0, r4
 1725 00c6 FFF7FEFF 		bl	LCD_WriteToDataBus
 1726              	.LVL190:
  93:Src/hd44780.c **** 	HAL_Delay(1);
 1727              		.loc 1 93 2 view .LVU450
 1728 00ca 0622     		movs	r2, #6
 1729 00cc 0121     		movs	r1, #1
 1730 00ce 2046     		mov	r0, r4
 1731 00d0 FFF7FEFF 		bl	LCD_StateWriteBit
 1732              	.LVL191:
  94:Src/hd44780.c **** 	LCD_StateWriteBit(handle, 0, LCD_PIN_E);
 1733              		.loc 1 94 2 view .LVU451
 1734 00d4 0120     		movs	r0, #1
 1735 00d6 FFF7FEFF 		bl	HAL_Delay
 1736              	.LVL192:
  95:Src/hd44780.c **** 	HAL_Delay(1);
 1737              		.loc 1 95 2 view .LVU452
 1738 00da 0622     		movs	r2, #6
 1739 00dc 0021     		movs	r1, #0
 1740 00de 2046     		mov	r0, r4
 1741 00e0 FFF7FEFF 		bl	LCD_StateWriteBit
 1742              	.LVL193:
ARM GAS  /var/folders/2w/5wbrmvx534s_vk8svtxz852c0000gn/T//ccezG4XL.s 			page 40


  96:Src/hd44780.c **** 
 1743              		.loc 1 96 2 view .LVU453
 1744 00e4 0120     		movs	r0, #1
 1745 00e6 FFF7FEFF 		bl	HAL_Delay
 1746              	.LVL194:
  98:Src/hd44780.c **** 	cmd = cmd | (handle->NUMBER_OF_LINES << 3);
 1747              		.loc 1 98 2 view .LVU454
  99:Src/hd44780.c **** 	cmd = cmd | (1 << 5);
 1748              		.loc 1 99 2 view .LVU455
  99:Src/hd44780.c **** 	cmd = cmd | (1 << 5);
 1749              		.loc 1 99 21 is_stmt 0 view .LVU456
 1750 00ea 2178     		ldrb	r1, [r4]	@ zero_extendqisi2
  99:Src/hd44780.c **** 	cmd = cmd | (1 << 5);
 1751              		.loc 1 99 39 view .LVU457
 1752 00ec C900     		lsls	r1, r1, #3
  99:Src/hd44780.c **** 	cmd = cmd | (1 << 5);
 1753              		.loc 1 99 6 view .LVU458
 1754 00ee C9B2     		uxtb	r1, r1
 1755              	.LVL195:
 100:Src/hd44780.c **** 
 1756              		.loc 1 100 2 is_stmt 1 view .LVU459
 102:Src/hd44780.c **** 
 1757              		.loc 1 102 2 view .LVU460
 1758 00f0 41F02001 		orr	r1, r1, #32
 1759              	.LVL196:
 102:Src/hd44780.c **** 
 1760              		.loc 1 102 2 is_stmt 0 view .LVU461
 1761 00f4 2046     		mov	r0, r4
 1762 00f6 FFF7FEFF 		bl	LCD_WriteCMD
 1763              	.LVL197:
 104:Src/hd44780.c **** 	cmd = cmd | (1 << 3);
 1764              		.loc 1 104 2 is_stmt 1 view .LVU462
 105:Src/hd44780.c **** 	cmd = cmd | (handle->C << 1);
 1765              		.loc 1 105 2 view .LVU463
 106:Src/hd44780.c **** 	cmd = cmd | handle->B;
 1766              		.loc 1 106 2 view .LVU464
 106:Src/hd44780.c **** 	cmd = cmd | handle->B;
 1767              		.loc 1 106 21 is_stmt 0 view .LVU465
 1768 00fa A378     		ldrb	r3, [r4, #2]	@ zero_extendqisi2
 106:Src/hd44780.c **** 	cmd = cmd | handle->B;
 1769              		.loc 1 106 25 view .LVU466
 1770 00fc 5B00     		lsls	r3, r3, #1
 106:Src/hd44780.c **** 	cmd = cmd | handle->B;
 1771              		.loc 1 106 12 view .LVU467
 1772 00fe 43F00803 		orr	r3, r3, #8
 106:Src/hd44780.c **** 	cmd = cmd | handle->B;
 1773              		.loc 1 106 6 view .LVU468
 1774 0102 03F0FE03 		and	r3, r3, #254
 1775              	.LVL198:
 107:Src/hd44780.c **** 
 1776              		.loc 1 107 2 is_stmt 1 view .LVU469
 107:Src/hd44780.c **** 
 1777              		.loc 1 107 20 is_stmt 0 view .LVU470
 1778 0106 E178     		ldrb	r1, [r4, #3]	@ zero_extendqisi2
 1779              	.LVL199:
 109:Src/hd44780.c **** 
 1780              		.loc 1 109 2 is_stmt 1 view .LVU471
ARM GAS  /var/folders/2w/5wbrmvx534s_vk8svtxz852c0000gn/T//ccezG4XL.s 			page 41


 1781 0108 1943     		orrs	r1, r1, r3
 1782              	.LVL200:
 109:Src/hd44780.c **** 
 1783              		.loc 1 109 2 is_stmt 0 view .LVU472
 1784 010a 2046     		mov	r0, r4
 1785 010c FFF7FEFF 		bl	LCD_WriteCMD
 1786              	.LVL201:
 111:Src/hd44780.c **** 
 1787              		.loc 1 111 2 is_stmt 1 view .LVU473
 1788 0110 2046     		mov	r0, r4
 1789 0112 FFF7FEFF 		bl	LCD_ClearDisplay
 1790              	.LVL202:
 113:Src/hd44780.c **** 
 1791              		.loc 1 113 2 view .LVU474
 1792 0116 0022     		movs	r2, #0
 1793 0118 0121     		movs	r1, #1
 1794 011a 2046     		mov	r0, r4
 1795 011c FFF7FEFF 		bl	LCD_EntryModeSet
 1796              	.LVL203:
 115:Src/hd44780.c **** 
 1797              		.loc 1 115 2 view .LVU475
 1798 0120 2046     		mov	r0, r4
 1799 0122 FFF7FEFF 		bl	LCD_DisplayON
 1800              	.LVL204:
 117:Src/hd44780.c **** 
 1801              		.loc 1 117 2 view .LVU476
 1802 0126 0121     		movs	r1, #1
 1803 0128 2046     		mov	r0, r4
 1804 012a FFF7FEFF 		bl	LCD_StateLEDControl
 1805              	.LVL205:
 119:Src/hd44780.c **** 
 1806              		.loc 1 119 2 view .LVU477
 119:Src/hd44780.c **** 
 1807              		.loc 1 119 9 is_stmt 0 view .LVU478
 1808 012e 71E7     		b	.L100
 1809              	.L107:
 1810              		.align	2
 1811              	.L106:
 1812 0130 00000000 		.word	.LANCHOR1
 1813              		.cfi_endproc
 1814              	.LFE70:
 1816              		.section	.text.LCD_CustomChar,"ax",%progbits
 1817              		.align	1
 1818              		.global	LCD_CustomChar
 1819              		.syntax unified
 1820              		.thumb
 1821              		.thumb_func
 1823              	LCD_CustomChar:
 1824              	.LVL206:
 1825              	.LFB87:
 391:Src/hd44780.c **** 
 392:Src/hd44780.c **** LCD_RESULT LCD_CustomChar(LCD_PCF8574_HandleTypeDef* handle, uint8_t *pattern,
 393:Src/hd44780.c **** 		uint8_t address) {
 1826              		.loc 1 393 20 is_stmt 1 view -0
 1827              		.cfi_startproc
 1828              		@ args = 0, pretend = 0, frame = 0
 1829              		@ frame_needed = 0, uses_anonymous_args = 0
ARM GAS  /var/folders/2w/5wbrmvx534s_vk8svtxz852c0000gn/T//ccezG4XL.s 			page 42


 1830              		.loc 1 393 20 is_stmt 0 view .LVU480
 1831 0000 70B5     		push	{r4, r5, r6, lr}
 1832              	.LCFI26:
 1833              		.cfi_def_cfa_offset 16
 1834              		.cfi_offset 4, -16
 1835              		.cfi_offset 5, -12
 1836              		.cfi_offset 6, -8
 1837              		.cfi_offset 14, -4
 1838 0002 0646     		mov	r6, r0
 1839 0004 0D46     		mov	r5, r1
 394:Src/hd44780.c **** 	uint8_t a = 0;
 1840              		.loc 1 394 2 is_stmt 1 view .LVU481
 1841              	.LVL207:
 395:Src/hd44780.c **** 	int i = 0;
 1842              		.loc 1 395 2 view .LVU482
 396:Src/hd44780.c **** 	a = 8 * address;
 1843              		.loc 1 396 2 view .LVU483
 1844              		.loc 1 396 4 is_stmt 0 view .LVU484
 1845 0006 D100     		lsls	r1, r2, #3
 1846              	.LVL208:
 1847              		.loc 1 396 4 view .LVU485
 1848 0008 C9B2     		uxtb	r1, r1
 1849              	.LVL209:
 397:Src/hd44780.c **** 	LCD_WriteCMD(handle, a | 0x40);
 1850              		.loc 1 397 2 is_stmt 1 view .LVU486
 1851 000a 41F04001 		orr	r1, r1, #64
 1852              	.LVL210:
 1853              		.loc 1 397 2 is_stmt 0 view .LVU487
 1854 000e FFF7FEFF 		bl	LCD_WriteCMD
 1855              	.LVL211:
 398:Src/hd44780.c **** 	for (i = 0; i < 8; i++) {
 1856              		.loc 1 398 2 is_stmt 1 view .LVU488
 1857              		.loc 1 398 9 is_stmt 0 view .LVU489
 1858 0012 0024     		movs	r4, #0
 1859              		.loc 1 398 2 view .LVU490
 1860 0014 04E0     		b	.L109
 1861              	.LVL212:
 1862              	.L110:
 399:Src/hd44780.c **** 		LCD_WriteDATA(handle, pattern[i]);
 1863              		.loc 1 399 3 is_stmt 1 discriminator 3 view .LVU491
 1864 0016 295D     		ldrb	r1, [r5, r4]	@ zero_extendqisi2
 1865 0018 3046     		mov	r0, r6
 1866 001a FFF7FEFF 		bl	LCD_WriteDATA
 1867              	.LVL213:
 398:Src/hd44780.c **** 	for (i = 0; i < 8; i++) {
 1868              		.loc 1 398 21 discriminator 3 view .LVU492
 398:Src/hd44780.c **** 	for (i = 0; i < 8; i++) {
 1869              		.loc 1 398 22 is_stmt 0 discriminator 3 view .LVU493
 1870 001e 0134     		adds	r4, r4, #1
 1871              	.LVL214:
 1872              	.L109:
 398:Src/hd44780.c **** 	for (i = 0; i < 8; i++) {
 1873              		.loc 1 398 14 is_stmt 1 discriminator 1 view .LVU494
 398:Src/hd44780.c **** 	for (i = 0; i < 8; i++) {
 1874              		.loc 1 398 2 is_stmt 0 discriminator 1 view .LVU495
 1875 0020 072C     		cmp	r4, #7
 1876 0022 F8DD     		ble	.L110
ARM GAS  /var/folders/2w/5wbrmvx534s_vk8svtxz852c0000gn/T//ccezG4XL.s 			page 43


 400:Src/hd44780.c **** 	}
 401:Src/hd44780.c **** 	return LCD_OK;
 1877              		.loc 1 401 2 is_stmt 1 view .LVU496
 402:Src/hd44780.c **** }
 1878              		.loc 1 402 1 is_stmt 0 view .LVU497
 1879 0024 0020     		movs	r0, #0
 1880 0026 70BD     		pop	{r4, r5, r6, pc}
 1881              		.loc 1 402 1 view .LVU498
 1882              		.cfi_endproc
 1883              	.LFE87:
 1885              		.global	LCDerrorFlag
 1886              		.global	PCF8574_Type0Pins
 1887              		.section	.bss.LCDerrorFlag,"aw",%nobits
 1888              		.set	.LANCHOR0,. + 0
 1891              	LCDerrorFlag:
 1892 0000 00       		.space	1
 1893              		.section	.data.PCF8574_Type0Pins,"aw"
 1894              		.align	2
 1895              		.set	.LANCHOR1,. + 0
 1898              	PCF8574_Type0Pins:
 1899 0000 04000000 		.word	4
 1900 0004 05000000 		.word	5
 1901 0008 06000000 		.word	6
 1902 000c 07000000 		.word	7
 1903 0010 00000000 		.word	0
 1904 0014 01000000 		.word	1
 1905 0018 02000000 		.word	2
 1906 001c 03000000 		.word	3
 1907              		.text
 1908              	.Letext0:
 1909              		.file 2 "/opt/homebrew/Cellar/arm-none-eabi-gcc/10.3-2021.10/gcc/arm-none-eabi/include/machine/_de
 1910              		.file 3 "/opt/homebrew/Cellar/arm-none-eabi-gcc/10.3-2021.10/gcc/arm-none-eabi/include/sys/_stdint
 1911              		.file 4 "Drivers/CMSIS/Device/ST/STM32F1xx/Include/stm32f103xe.h"
 1912              		.file 5 "Drivers/STM32F1xx_HAL_Driver/Inc/stm32f1xx_hal_def.h"
 1913              		.file 6 "Drivers/STM32F1xx_HAL_Driver/Inc/stm32f1xx_hal_dma.h"
 1914              		.file 7 "Drivers/STM32F1xx_HAL_Driver/Inc/stm32f1xx_hal_i2c.h"
 1915              		.file 8 "Inc/pcf8574.h"
 1916              		.file 9 "Inc/hd44780.h"
 1917              		.file 10 "Drivers/STM32F1xx_HAL_Driver/Inc/stm32f1xx_hal.h"
ARM GAS  /var/folders/2w/5wbrmvx534s_vk8svtxz852c0000gn/T//ccezG4XL.s 			page 44

