ARM GAS  /var/folders/2w/5wbrmvx534s_vk8svtxz852c0000gn/T//cc29HaPQ.s 			page 1


   1              		.cpu cortex-m3
   2              		.arch armv7-m
   3              		.fpu softvfp
   4              		.eabi_attribute 20, 1
   5              		.eabi_attribute 21, 1
   6              		.eabi_attribute 23, 3
   7              		.eabi_attribute 24, 1
   8              		.eabi_attribute 25, 1
   9              		.eabi_attribute 26, 1
  10              		.eabi_attribute 30, 1
  11              		.eabi_attribute 34, 1
  12              		.eabi_attribute 18, 4
  13              		.file	"stm32f1xx_hal_adc_ex.c"
  14              		.text
  15              	.Ltext0:
  16              		.cfi_sections	.debug_frame
  17              		.section	.text.HAL_ADCEx_Calibration_Start,"ax",%progbits
  18              		.align	1
  19              		.global	HAL_ADCEx_Calibration_Start
  20              		.syntax unified
  21              		.thumb
  22              		.thumb_func
  24              	HAL_ADCEx_Calibration_Start:
  25              	.LVL0:
  26              	.LFB66:
  27              		.file 1 "Drivers/STM32F1xx_HAL_Driver/Src/stm32f1xx_hal_adc_ex.c"
   1:Drivers/STM32F1xx_HAL_Driver/Src/stm32f1xx_hal_adc_ex.c **** /**
   2:Drivers/STM32F1xx_HAL_Driver/Src/stm32f1xx_hal_adc_ex.c ****   ******************************************************************************
   3:Drivers/STM32F1xx_HAL_Driver/Src/stm32f1xx_hal_adc_ex.c ****   * @file    stm32f1xx_hal_adc_ex.c
   4:Drivers/STM32F1xx_HAL_Driver/Src/stm32f1xx_hal_adc_ex.c ****   * @author  MCD Application Team
   5:Drivers/STM32F1xx_HAL_Driver/Src/stm32f1xx_hal_adc_ex.c ****   * @version V1.1.1
   6:Drivers/STM32F1xx_HAL_Driver/Src/stm32f1xx_hal_adc_ex.c ****   * @date    12-May-2017
   7:Drivers/STM32F1xx_HAL_Driver/Src/stm32f1xx_hal_adc_ex.c ****   * @brief   This file provides firmware functions to manage the following 
   8:Drivers/STM32F1xx_HAL_Driver/Src/stm32f1xx_hal_adc_ex.c ****   *          functionalities of the Analog to Digital Convertor (ADC)
   9:Drivers/STM32F1xx_HAL_Driver/Src/stm32f1xx_hal_adc_ex.c ****   *          peripheral:
  10:Drivers/STM32F1xx_HAL_Driver/Src/stm32f1xx_hal_adc_ex.c ****   *           + Operation functions
  11:Drivers/STM32F1xx_HAL_Driver/Src/stm32f1xx_hal_adc_ex.c ****   *             ++ Start, stop, get result of conversions of injected
  12:Drivers/STM32F1xx_HAL_Driver/Src/stm32f1xx_hal_adc_ex.c ****   *                group, using 2 possible modes: polling, interruption.
  13:Drivers/STM32F1xx_HAL_Driver/Src/stm32f1xx_hal_adc_ex.c ****   *             ++ Multimode feature (available on devices with 2 ADCs or more)
  14:Drivers/STM32F1xx_HAL_Driver/Src/stm32f1xx_hal_adc_ex.c ****   *             ++ Calibration (ADC automatic self-calibration)
  15:Drivers/STM32F1xx_HAL_Driver/Src/stm32f1xx_hal_adc_ex.c ****   *           + Control functions
  16:Drivers/STM32F1xx_HAL_Driver/Src/stm32f1xx_hal_adc_ex.c ****   *             ++ Channels configuration on injected group
  17:Drivers/STM32F1xx_HAL_Driver/Src/stm32f1xx_hal_adc_ex.c ****   *          Other functions (generic functions) are available in file 
  18:Drivers/STM32F1xx_HAL_Driver/Src/stm32f1xx_hal_adc_ex.c ****   *          "stm32f1xx_hal_adc.c".
  19:Drivers/STM32F1xx_HAL_Driver/Src/stm32f1xx_hal_adc_ex.c ****   *
  20:Drivers/STM32F1xx_HAL_Driver/Src/stm32f1xx_hal_adc_ex.c ****   @verbatim
  21:Drivers/STM32F1xx_HAL_Driver/Src/stm32f1xx_hal_adc_ex.c ****   [..] 
  22:Drivers/STM32F1xx_HAL_Driver/Src/stm32f1xx_hal_adc_ex.c ****   (@) Sections "ADC peripheral features" and "How to use this driver" are
  23:Drivers/STM32F1xx_HAL_Driver/Src/stm32f1xx_hal_adc_ex.c ****       available in file of generic functions "stm32f1xx_hal_adc.c".
  24:Drivers/STM32F1xx_HAL_Driver/Src/stm32f1xx_hal_adc_ex.c ****   [..]
  25:Drivers/STM32F1xx_HAL_Driver/Src/stm32f1xx_hal_adc_ex.c ****   @endverbatim
  26:Drivers/STM32F1xx_HAL_Driver/Src/stm32f1xx_hal_adc_ex.c ****   ******************************************************************************
  27:Drivers/STM32F1xx_HAL_Driver/Src/stm32f1xx_hal_adc_ex.c ****   * @attention
  28:Drivers/STM32F1xx_HAL_Driver/Src/stm32f1xx_hal_adc_ex.c ****   *
  29:Drivers/STM32F1xx_HAL_Driver/Src/stm32f1xx_hal_adc_ex.c ****   * <h2><center>&copy; COPYRIGHT(c) 2016 STMicroelectronics</center></h2>
  30:Drivers/STM32F1xx_HAL_Driver/Src/stm32f1xx_hal_adc_ex.c ****   *
  31:Drivers/STM32F1xx_HAL_Driver/Src/stm32f1xx_hal_adc_ex.c ****   * Redistribution and use in source and binary forms, with or without modification,
ARM GAS  /var/folders/2w/5wbrmvx534s_vk8svtxz852c0000gn/T//cc29HaPQ.s 			page 2


  32:Drivers/STM32F1xx_HAL_Driver/Src/stm32f1xx_hal_adc_ex.c ****   * are permitted provided that the following conditions are met:
  33:Drivers/STM32F1xx_HAL_Driver/Src/stm32f1xx_hal_adc_ex.c ****   *   1. Redistributions of source code must retain the above copyright notice,
  34:Drivers/STM32F1xx_HAL_Driver/Src/stm32f1xx_hal_adc_ex.c ****   *      this list of conditions and the following disclaimer.
  35:Drivers/STM32F1xx_HAL_Driver/Src/stm32f1xx_hal_adc_ex.c ****   *   2. Redistributions in binary form must reproduce the above copyright notice,
  36:Drivers/STM32F1xx_HAL_Driver/Src/stm32f1xx_hal_adc_ex.c ****   *      this list of conditions and the following disclaimer in the documentation
  37:Drivers/STM32F1xx_HAL_Driver/Src/stm32f1xx_hal_adc_ex.c ****   *      and/or other materials provided with the distribution.
  38:Drivers/STM32F1xx_HAL_Driver/Src/stm32f1xx_hal_adc_ex.c ****   *   3. Neither the name of STMicroelectronics nor the names of its contributors
  39:Drivers/STM32F1xx_HAL_Driver/Src/stm32f1xx_hal_adc_ex.c ****   *      may be used to endorse or promote products derived from this software
  40:Drivers/STM32F1xx_HAL_Driver/Src/stm32f1xx_hal_adc_ex.c ****   *      without specific prior written permission.
  41:Drivers/STM32F1xx_HAL_Driver/Src/stm32f1xx_hal_adc_ex.c ****   *
  42:Drivers/STM32F1xx_HAL_Driver/Src/stm32f1xx_hal_adc_ex.c ****   * THIS SOFTWARE IS PROVIDED BY THE COPYRIGHT HOLDERS AND CONTRIBUTORS "AS IS"
  43:Drivers/STM32F1xx_HAL_Driver/Src/stm32f1xx_hal_adc_ex.c ****   * AND ANY EXPRESS OR IMPLIED WARRANTIES, INCLUDING, BUT NOT LIMITED TO, THE
  44:Drivers/STM32F1xx_HAL_Driver/Src/stm32f1xx_hal_adc_ex.c ****   * IMPLIED WARRANTIES OF MERCHANTABILITY AND FITNESS FOR A PARTICULAR PURPOSE ARE
  45:Drivers/STM32F1xx_HAL_Driver/Src/stm32f1xx_hal_adc_ex.c ****   * DISCLAIMED. IN NO EVENT SHALL THE COPYRIGHT HOLDER OR CONTRIBUTORS BE LIABLE
  46:Drivers/STM32F1xx_HAL_Driver/Src/stm32f1xx_hal_adc_ex.c ****   * FOR ANY DIRECT, INDIRECT, INCIDENTAL, SPECIAL, EXEMPLARY, OR CONSEQUENTIAL
  47:Drivers/STM32F1xx_HAL_Driver/Src/stm32f1xx_hal_adc_ex.c ****   * DAMAGES (INCLUDING, BUT NOT LIMITED TO, PROCUREMENT OF SUBSTITUTE GOODS OR
  48:Drivers/STM32F1xx_HAL_Driver/Src/stm32f1xx_hal_adc_ex.c ****   * SERVICES; LOSS OF USE, DATA, OR PROFITS; OR BUSINESS INTERRUPTION) HOWEVER
  49:Drivers/STM32F1xx_HAL_Driver/Src/stm32f1xx_hal_adc_ex.c ****   * CAUSED AND ON ANY THEORY OF LIABILITY, WHETHER IN CONTRACT, STRICT LIABILITY,
  50:Drivers/STM32F1xx_HAL_Driver/Src/stm32f1xx_hal_adc_ex.c ****   * OR TORT (INCLUDING NEGLIGENCE OR OTHERWISE) ARISING IN ANY WAY OUT OF THE USE
  51:Drivers/STM32F1xx_HAL_Driver/Src/stm32f1xx_hal_adc_ex.c ****   * OF THIS SOFTWARE, EVEN IF ADVISED OF THE POSSIBILITY OF SUCH DAMAGE.
  52:Drivers/STM32F1xx_HAL_Driver/Src/stm32f1xx_hal_adc_ex.c ****   *
  53:Drivers/STM32F1xx_HAL_Driver/Src/stm32f1xx_hal_adc_ex.c ****   ******************************************************************************  
  54:Drivers/STM32F1xx_HAL_Driver/Src/stm32f1xx_hal_adc_ex.c ****   */
  55:Drivers/STM32F1xx_HAL_Driver/Src/stm32f1xx_hal_adc_ex.c **** 
  56:Drivers/STM32F1xx_HAL_Driver/Src/stm32f1xx_hal_adc_ex.c **** /* Includes ------------------------------------------------------------------*/
  57:Drivers/STM32F1xx_HAL_Driver/Src/stm32f1xx_hal_adc_ex.c **** #include "stm32f1xx_hal.h"
  58:Drivers/STM32F1xx_HAL_Driver/Src/stm32f1xx_hal_adc_ex.c **** 
  59:Drivers/STM32F1xx_HAL_Driver/Src/stm32f1xx_hal_adc_ex.c **** /** @addtogroup STM32F1xx_HAL_Driver
  60:Drivers/STM32F1xx_HAL_Driver/Src/stm32f1xx_hal_adc_ex.c ****   * @{
  61:Drivers/STM32F1xx_HAL_Driver/Src/stm32f1xx_hal_adc_ex.c ****   */
  62:Drivers/STM32F1xx_HAL_Driver/Src/stm32f1xx_hal_adc_ex.c **** 
  63:Drivers/STM32F1xx_HAL_Driver/Src/stm32f1xx_hal_adc_ex.c **** /** @defgroup ADCEx ADCEx
  64:Drivers/STM32F1xx_HAL_Driver/Src/stm32f1xx_hal_adc_ex.c ****   * @brief ADC Extension HAL module driver
  65:Drivers/STM32F1xx_HAL_Driver/Src/stm32f1xx_hal_adc_ex.c ****   * @{
  66:Drivers/STM32F1xx_HAL_Driver/Src/stm32f1xx_hal_adc_ex.c ****   */
  67:Drivers/STM32F1xx_HAL_Driver/Src/stm32f1xx_hal_adc_ex.c **** 
  68:Drivers/STM32F1xx_HAL_Driver/Src/stm32f1xx_hal_adc_ex.c **** #ifdef HAL_ADC_MODULE_ENABLED
  69:Drivers/STM32F1xx_HAL_Driver/Src/stm32f1xx_hal_adc_ex.c **** 
  70:Drivers/STM32F1xx_HAL_Driver/Src/stm32f1xx_hal_adc_ex.c **** /* Private typedef -----------------------------------------------------------*/
  71:Drivers/STM32F1xx_HAL_Driver/Src/stm32f1xx_hal_adc_ex.c **** /* Private define ------------------------------------------------------------*/
  72:Drivers/STM32F1xx_HAL_Driver/Src/stm32f1xx_hal_adc_ex.c **** /** @defgroup ADCEx_Private_Constants ADCEx Private Constants
  73:Drivers/STM32F1xx_HAL_Driver/Src/stm32f1xx_hal_adc_ex.c ****   * @{
  74:Drivers/STM32F1xx_HAL_Driver/Src/stm32f1xx_hal_adc_ex.c ****   */
  75:Drivers/STM32F1xx_HAL_Driver/Src/stm32f1xx_hal_adc_ex.c **** 
  76:Drivers/STM32F1xx_HAL_Driver/Src/stm32f1xx_hal_adc_ex.c ****   /* Delay for ADC calibration:                                               */
  77:Drivers/STM32F1xx_HAL_Driver/Src/stm32f1xx_hal_adc_ex.c ****   /* Hardware prerequisite before starting a calibration: the ADC must have   */
  78:Drivers/STM32F1xx_HAL_Driver/Src/stm32f1xx_hal_adc_ex.c ****   /* been in power-on state for at least two ADC clock cycles.                */
  79:Drivers/STM32F1xx_HAL_Driver/Src/stm32f1xx_hal_adc_ex.c ****   /* Unit: ADC clock cycles                                                   */
  80:Drivers/STM32F1xx_HAL_Driver/Src/stm32f1xx_hal_adc_ex.c ****   #define ADC_PRECALIBRATION_DELAY_ADCCLOCKCYCLES       2U
  81:Drivers/STM32F1xx_HAL_Driver/Src/stm32f1xx_hal_adc_ex.c **** 
  82:Drivers/STM32F1xx_HAL_Driver/Src/stm32f1xx_hal_adc_ex.c ****   /* Timeout value for ADC calibration                                        */
  83:Drivers/STM32F1xx_HAL_Driver/Src/stm32f1xx_hal_adc_ex.c ****   /* Value defined to be higher than worst cases: low clocks freq,            */
  84:Drivers/STM32F1xx_HAL_Driver/Src/stm32f1xx_hal_adc_ex.c ****   /* maximum prescaler.                                                       */
  85:Drivers/STM32F1xx_HAL_Driver/Src/stm32f1xx_hal_adc_ex.c ****   /* Ex of profile low frequency : Clock source at 0.1 MHz, ADC clock         */
  86:Drivers/STM32F1xx_HAL_Driver/Src/stm32f1xx_hal_adc_ex.c ****   /* prescaler 4, sampling time 12.5 ADC clock cycles, resolution 12 bits.    */
  87:Drivers/STM32F1xx_HAL_Driver/Src/stm32f1xx_hal_adc_ex.c ****   /* Unit: ms                                                                 */
  88:Drivers/STM32F1xx_HAL_Driver/Src/stm32f1xx_hal_adc_ex.c ****   #define ADC_CALIBRATION_TIMEOUT          10U
ARM GAS  /var/folders/2w/5wbrmvx534s_vk8svtxz852c0000gn/T//cc29HaPQ.s 			page 3


  89:Drivers/STM32F1xx_HAL_Driver/Src/stm32f1xx_hal_adc_ex.c **** 
  90:Drivers/STM32F1xx_HAL_Driver/Src/stm32f1xx_hal_adc_ex.c ****   /* Delay for temperature sensor stabilization time.                         */
  91:Drivers/STM32F1xx_HAL_Driver/Src/stm32f1xx_hal_adc_ex.c ****   /* Maximum delay is 10us (refer to device datasheet, parameter tSTART).     */
  92:Drivers/STM32F1xx_HAL_Driver/Src/stm32f1xx_hal_adc_ex.c ****   /* Unit: us                                                                 */
  93:Drivers/STM32F1xx_HAL_Driver/Src/stm32f1xx_hal_adc_ex.c ****   #define ADC_TEMPSENSOR_DELAY_US         10U
  94:Drivers/STM32F1xx_HAL_Driver/Src/stm32f1xx_hal_adc_ex.c **** 
  95:Drivers/STM32F1xx_HAL_Driver/Src/stm32f1xx_hal_adc_ex.c **** /**
  96:Drivers/STM32F1xx_HAL_Driver/Src/stm32f1xx_hal_adc_ex.c ****   * @}
  97:Drivers/STM32F1xx_HAL_Driver/Src/stm32f1xx_hal_adc_ex.c ****   */
  98:Drivers/STM32F1xx_HAL_Driver/Src/stm32f1xx_hal_adc_ex.c **** 
  99:Drivers/STM32F1xx_HAL_Driver/Src/stm32f1xx_hal_adc_ex.c **** /* Private macro -------------------------------------------------------------*/
 100:Drivers/STM32F1xx_HAL_Driver/Src/stm32f1xx_hal_adc_ex.c **** /* Private variables ---------------------------------------------------------*/
 101:Drivers/STM32F1xx_HAL_Driver/Src/stm32f1xx_hal_adc_ex.c **** /* Private function prototypes -----------------------------------------------*/
 102:Drivers/STM32F1xx_HAL_Driver/Src/stm32f1xx_hal_adc_ex.c **** /* Private functions ---------------------------------------------------------*/
 103:Drivers/STM32F1xx_HAL_Driver/Src/stm32f1xx_hal_adc_ex.c **** 
 104:Drivers/STM32F1xx_HAL_Driver/Src/stm32f1xx_hal_adc_ex.c **** /** @defgroup ADCEx_Exported_Functions ADCEx Exported Functions
 105:Drivers/STM32F1xx_HAL_Driver/Src/stm32f1xx_hal_adc_ex.c ****   * @{
 106:Drivers/STM32F1xx_HAL_Driver/Src/stm32f1xx_hal_adc_ex.c ****   */
 107:Drivers/STM32F1xx_HAL_Driver/Src/stm32f1xx_hal_adc_ex.c **** 
 108:Drivers/STM32F1xx_HAL_Driver/Src/stm32f1xx_hal_adc_ex.c **** /** @defgroup ADCEx_Exported_Functions_Group1 Extended Extended IO operation functions
 109:Drivers/STM32F1xx_HAL_Driver/Src/stm32f1xx_hal_adc_ex.c ****  *  @brief    Extended Extended Input and Output operation functions
 110:Drivers/STM32F1xx_HAL_Driver/Src/stm32f1xx_hal_adc_ex.c ****  *
 111:Drivers/STM32F1xx_HAL_Driver/Src/stm32f1xx_hal_adc_ex.c **** @verbatim    
 112:Drivers/STM32F1xx_HAL_Driver/Src/stm32f1xx_hal_adc_ex.c ****  ===============================================================================
 113:Drivers/STM32F1xx_HAL_Driver/Src/stm32f1xx_hal_adc_ex.c ****                       ##### IO operation functions #####
 114:Drivers/STM32F1xx_HAL_Driver/Src/stm32f1xx_hal_adc_ex.c ****  ===============================================================================
 115:Drivers/STM32F1xx_HAL_Driver/Src/stm32f1xx_hal_adc_ex.c ****     [..]  This section provides functions allowing to:
 116:Drivers/STM32F1xx_HAL_Driver/Src/stm32f1xx_hal_adc_ex.c ****       (+) Start conversion of injected group.
 117:Drivers/STM32F1xx_HAL_Driver/Src/stm32f1xx_hal_adc_ex.c ****       (+) Stop conversion of injected group.
 118:Drivers/STM32F1xx_HAL_Driver/Src/stm32f1xx_hal_adc_ex.c ****       (+) Poll for conversion complete on injected group.
 119:Drivers/STM32F1xx_HAL_Driver/Src/stm32f1xx_hal_adc_ex.c ****       (+) Get result of injected channel conversion.
 120:Drivers/STM32F1xx_HAL_Driver/Src/stm32f1xx_hal_adc_ex.c ****       (+) Start conversion of injected group and enable interruptions.
 121:Drivers/STM32F1xx_HAL_Driver/Src/stm32f1xx_hal_adc_ex.c ****       (+) Stop conversion of injected group and disable interruptions.
 122:Drivers/STM32F1xx_HAL_Driver/Src/stm32f1xx_hal_adc_ex.c **** 
 123:Drivers/STM32F1xx_HAL_Driver/Src/stm32f1xx_hal_adc_ex.c ****       (+) Start multimode and enable DMA transfer.
 124:Drivers/STM32F1xx_HAL_Driver/Src/stm32f1xx_hal_adc_ex.c ****       (+) Stop multimode and disable ADC DMA transfer.
 125:Drivers/STM32F1xx_HAL_Driver/Src/stm32f1xx_hal_adc_ex.c ****       (+) Get result of multimode conversion.
 126:Drivers/STM32F1xx_HAL_Driver/Src/stm32f1xx_hal_adc_ex.c **** 
 127:Drivers/STM32F1xx_HAL_Driver/Src/stm32f1xx_hal_adc_ex.c ****       (+) Perform the ADC self-calibration for single or differential ending.
 128:Drivers/STM32F1xx_HAL_Driver/Src/stm32f1xx_hal_adc_ex.c ****       (+) Get calibration factors for single or differential ending.
 129:Drivers/STM32F1xx_HAL_Driver/Src/stm32f1xx_hal_adc_ex.c ****       (+) Set calibration factors for single or differential ending.
 130:Drivers/STM32F1xx_HAL_Driver/Src/stm32f1xx_hal_adc_ex.c ****       
 131:Drivers/STM32F1xx_HAL_Driver/Src/stm32f1xx_hal_adc_ex.c **** @endverbatim
 132:Drivers/STM32F1xx_HAL_Driver/Src/stm32f1xx_hal_adc_ex.c ****   * @{
 133:Drivers/STM32F1xx_HAL_Driver/Src/stm32f1xx_hal_adc_ex.c ****   */
 134:Drivers/STM32F1xx_HAL_Driver/Src/stm32f1xx_hal_adc_ex.c **** 
 135:Drivers/STM32F1xx_HAL_Driver/Src/stm32f1xx_hal_adc_ex.c **** /**
 136:Drivers/STM32F1xx_HAL_Driver/Src/stm32f1xx_hal_adc_ex.c ****   * @brief  Perform an ADC automatic self-calibration
 137:Drivers/STM32F1xx_HAL_Driver/Src/stm32f1xx_hal_adc_ex.c ****   *         Calibration prerequisite: ADC must be disabled (execute this
 138:Drivers/STM32F1xx_HAL_Driver/Src/stm32f1xx_hal_adc_ex.c ****   *         function before HAL_ADC_Start() or after HAL_ADC_Stop() ).
 139:Drivers/STM32F1xx_HAL_Driver/Src/stm32f1xx_hal_adc_ex.c ****   *         During calibration process, ADC is enabled. ADC is let enabled at
 140:Drivers/STM32F1xx_HAL_Driver/Src/stm32f1xx_hal_adc_ex.c ****   *         the completion of this function.
 141:Drivers/STM32F1xx_HAL_Driver/Src/stm32f1xx_hal_adc_ex.c ****   * @param  hadc: ADC handle
 142:Drivers/STM32F1xx_HAL_Driver/Src/stm32f1xx_hal_adc_ex.c ****   * @retval HAL status
 143:Drivers/STM32F1xx_HAL_Driver/Src/stm32f1xx_hal_adc_ex.c ****   */
 144:Drivers/STM32F1xx_HAL_Driver/Src/stm32f1xx_hal_adc_ex.c **** HAL_StatusTypeDef HAL_ADCEx_Calibration_Start(ADC_HandleTypeDef* hadc)
 145:Drivers/STM32F1xx_HAL_Driver/Src/stm32f1xx_hal_adc_ex.c **** {
ARM GAS  /var/folders/2w/5wbrmvx534s_vk8svtxz852c0000gn/T//cc29HaPQ.s 			page 4


  28              		.loc 1 145 1 view -0
  29              		.cfi_startproc
  30              		@ args = 0, pretend = 0, frame = 8
  31              		@ frame_needed = 0, uses_anonymous_args = 0
  32              		.loc 1 145 1 is_stmt 0 view .LVU1
  33 0000 70B5     		push	{r4, r5, r6, lr}
  34              	.LCFI0:
  35              		.cfi_def_cfa_offset 16
  36              		.cfi_offset 4, -16
  37              		.cfi_offset 5, -12
  38              		.cfi_offset 6, -8
  39              		.cfi_offset 14, -4
  40 0002 82B0     		sub	sp, sp, #8
  41              	.LCFI1:
  42              		.cfi_def_cfa_offset 24
 146:Drivers/STM32F1xx_HAL_Driver/Src/stm32f1xx_hal_adc_ex.c ****   HAL_StatusTypeDef tmp_hal_status = HAL_OK;
  43              		.loc 1 146 3 is_stmt 1 view .LVU2
  44              	.LVL1:
 147:Drivers/STM32F1xx_HAL_Driver/Src/stm32f1xx_hal_adc_ex.c ****   uint32_t tickstart;
  45              		.loc 1 147 3 view .LVU3
 148:Drivers/STM32F1xx_HAL_Driver/Src/stm32f1xx_hal_adc_ex.c ****   __IO uint32_t wait_loop_index = 0U;
  46              		.loc 1 148 3 view .LVU4
  47              		.loc 1 148 17 is_stmt 0 view .LVU5
  48 0004 0023     		movs	r3, #0
  49 0006 0193     		str	r3, [sp, #4]
 149:Drivers/STM32F1xx_HAL_Driver/Src/stm32f1xx_hal_adc_ex.c ****   
 150:Drivers/STM32F1xx_HAL_Driver/Src/stm32f1xx_hal_adc_ex.c ****   /* Check the parameters */
 151:Drivers/STM32F1xx_HAL_Driver/Src/stm32f1xx_hal_adc_ex.c ****   assert_param(IS_ADC_ALL_INSTANCE(hadc->Instance));
  50              		.loc 1 151 3 is_stmt 1 view .LVU6
 152:Drivers/STM32F1xx_HAL_Driver/Src/stm32f1xx_hal_adc_ex.c **** 
 153:Drivers/STM32F1xx_HAL_Driver/Src/stm32f1xx_hal_adc_ex.c ****   /* Process locked */
 154:Drivers/STM32F1xx_HAL_Driver/Src/stm32f1xx_hal_adc_ex.c ****   __HAL_LOCK(hadc);
  51              		.loc 1 154 3 view .LVU7
  52              		.loc 1 154 3 view .LVU8
  53 0008 90F82430 		ldrb	r3, [r0, #36]	@ zero_extendqisi2
  54 000c 012B     		cmp	r3, #1
  55 000e 68D0     		beq	.L10
  56 0010 0446     		mov	r4, r0
  57              		.loc 1 154 3 discriminator 2 view .LVU9
  58 0012 0123     		movs	r3, #1
  59 0014 80F82430 		strb	r3, [r0, #36]
  60              		.loc 1 154 3 discriminator 2 view .LVU10
 155:Drivers/STM32F1xx_HAL_Driver/Src/stm32f1xx_hal_adc_ex.c ****     
 156:Drivers/STM32F1xx_HAL_Driver/Src/stm32f1xx_hal_adc_ex.c ****   /* 1. Calibration prerequisite:                                             */
 157:Drivers/STM32F1xx_HAL_Driver/Src/stm32f1xx_hal_adc_ex.c ****   /*    - ADC must be disabled for at least two ADC clock cycles in disable   */
 158:Drivers/STM32F1xx_HAL_Driver/Src/stm32f1xx_hal_adc_ex.c ****   /*      mode before ADC enable                                              */
 159:Drivers/STM32F1xx_HAL_Driver/Src/stm32f1xx_hal_adc_ex.c ****   /* Stop potential conversion on going, on regular and injected groups       */
 160:Drivers/STM32F1xx_HAL_Driver/Src/stm32f1xx_hal_adc_ex.c ****   /* Disable ADC peripheral */
 161:Drivers/STM32F1xx_HAL_Driver/Src/stm32f1xx_hal_adc_ex.c ****   tmp_hal_status = ADC_ConversionStop_Disable(hadc);
  61              		.loc 1 161 3 discriminator 2 view .LVU11
  62              		.loc 1 161 20 is_stmt 0 discriminator 2 view .LVU12
  63 0018 FFF7FEFF 		bl	ADC_ConversionStop_Disable
  64              	.LVL2:
 162:Drivers/STM32F1xx_HAL_Driver/Src/stm32f1xx_hal_adc_ex.c ****   
 163:Drivers/STM32F1xx_HAL_Driver/Src/stm32f1xx_hal_adc_ex.c ****   /* Check if ADC is effectively disabled */
 164:Drivers/STM32F1xx_HAL_Driver/Src/stm32f1xx_hal_adc_ex.c ****   if (tmp_hal_status == HAL_OK)
  65              		.loc 1 164 3 is_stmt 1 discriminator 2 view .LVU13
ARM GAS  /var/folders/2w/5wbrmvx534s_vk8svtxz852c0000gn/T//cc29HaPQ.s 			page 5


  66              		.loc 1 164 6 is_stmt 0 discriminator 2 view .LVU14
  67 001c 0546     		mov	r5, r0
  68 001e 28B1     		cbz	r0, .L12
  69              	.LVL3:
  70              	.L3:
 165:Drivers/STM32F1xx_HAL_Driver/Src/stm32f1xx_hal_adc_ex.c ****   {
 166:Drivers/STM32F1xx_HAL_Driver/Src/stm32f1xx_hal_adc_ex.c ****     /* Set ADC state */
 167:Drivers/STM32F1xx_HAL_Driver/Src/stm32f1xx_hal_adc_ex.c ****     ADC_STATE_CLR_SET(hadc->State,
 168:Drivers/STM32F1xx_HAL_Driver/Src/stm32f1xx_hal_adc_ex.c ****                       HAL_ADC_STATE_REG_BUSY | HAL_ADC_STATE_INJ_BUSY,
 169:Drivers/STM32F1xx_HAL_Driver/Src/stm32f1xx_hal_adc_ex.c ****                       HAL_ADC_STATE_BUSY_INTERNAL);
 170:Drivers/STM32F1xx_HAL_Driver/Src/stm32f1xx_hal_adc_ex.c ****     
 171:Drivers/STM32F1xx_HAL_Driver/Src/stm32f1xx_hal_adc_ex.c ****     /* Hardware prerequisite: delay before starting the calibration.          */
 172:Drivers/STM32F1xx_HAL_Driver/Src/stm32f1xx_hal_adc_ex.c ****     /*  - Computation of CPU clock cycles corresponding to ADC clock cycles.  */
 173:Drivers/STM32F1xx_HAL_Driver/Src/stm32f1xx_hal_adc_ex.c ****     /*  - Wait for the expected ADC clock cycles delay */
 174:Drivers/STM32F1xx_HAL_Driver/Src/stm32f1xx_hal_adc_ex.c ****     wait_loop_index = ((SystemCoreClock
 175:Drivers/STM32F1xx_HAL_Driver/Src/stm32f1xx_hal_adc_ex.c ****                         / HAL_RCCEx_GetPeriphCLKFreq(RCC_PERIPHCLK_ADC))
 176:Drivers/STM32F1xx_HAL_Driver/Src/stm32f1xx_hal_adc_ex.c ****                        * ADC_PRECALIBRATION_DELAY_ADCCLOCKCYCLES        );
 177:Drivers/STM32F1xx_HAL_Driver/Src/stm32f1xx_hal_adc_ex.c **** 
 178:Drivers/STM32F1xx_HAL_Driver/Src/stm32f1xx_hal_adc_ex.c ****     while(wait_loop_index != 0U)
 179:Drivers/STM32F1xx_HAL_Driver/Src/stm32f1xx_hal_adc_ex.c ****     {
 180:Drivers/STM32F1xx_HAL_Driver/Src/stm32f1xx_hal_adc_ex.c ****       wait_loop_index--;
 181:Drivers/STM32F1xx_HAL_Driver/Src/stm32f1xx_hal_adc_ex.c ****     }
 182:Drivers/STM32F1xx_HAL_Driver/Src/stm32f1xx_hal_adc_ex.c ****     
 183:Drivers/STM32F1xx_HAL_Driver/Src/stm32f1xx_hal_adc_ex.c ****     /* 2. Enable the ADC peripheral */
 184:Drivers/STM32F1xx_HAL_Driver/Src/stm32f1xx_hal_adc_ex.c ****     ADC_Enable(hadc);
 185:Drivers/STM32F1xx_HAL_Driver/Src/stm32f1xx_hal_adc_ex.c ****     
 186:Drivers/STM32F1xx_HAL_Driver/Src/stm32f1xx_hal_adc_ex.c ****     /* 3. Resets ADC calibration registers */  
 187:Drivers/STM32F1xx_HAL_Driver/Src/stm32f1xx_hal_adc_ex.c ****     SET_BIT(hadc->Instance->CR2, ADC_CR2_RSTCAL);
 188:Drivers/STM32F1xx_HAL_Driver/Src/stm32f1xx_hal_adc_ex.c ****     
 189:Drivers/STM32F1xx_HAL_Driver/Src/stm32f1xx_hal_adc_ex.c ****     tickstart = HAL_GetTick();  
 190:Drivers/STM32F1xx_HAL_Driver/Src/stm32f1xx_hal_adc_ex.c **** 
 191:Drivers/STM32F1xx_HAL_Driver/Src/stm32f1xx_hal_adc_ex.c ****     /* Wait for calibration reset completion */
 192:Drivers/STM32F1xx_HAL_Driver/Src/stm32f1xx_hal_adc_ex.c ****     while(HAL_IS_BIT_SET(hadc->Instance->CR2, ADC_CR2_RSTCAL))
 193:Drivers/STM32F1xx_HAL_Driver/Src/stm32f1xx_hal_adc_ex.c ****     {
 194:Drivers/STM32F1xx_HAL_Driver/Src/stm32f1xx_hal_adc_ex.c ****       if((HAL_GetTick() - tickstart) > ADC_CALIBRATION_TIMEOUT)
 195:Drivers/STM32F1xx_HAL_Driver/Src/stm32f1xx_hal_adc_ex.c ****       {
 196:Drivers/STM32F1xx_HAL_Driver/Src/stm32f1xx_hal_adc_ex.c ****         /* Update ADC state machine to error */
 197:Drivers/STM32F1xx_HAL_Driver/Src/stm32f1xx_hal_adc_ex.c ****         ADC_STATE_CLR_SET(hadc->State,
 198:Drivers/STM32F1xx_HAL_Driver/Src/stm32f1xx_hal_adc_ex.c ****                           HAL_ADC_STATE_BUSY_INTERNAL,
 199:Drivers/STM32F1xx_HAL_Driver/Src/stm32f1xx_hal_adc_ex.c ****                           HAL_ADC_STATE_ERROR_INTERNAL);
 200:Drivers/STM32F1xx_HAL_Driver/Src/stm32f1xx_hal_adc_ex.c ****         
 201:Drivers/STM32F1xx_HAL_Driver/Src/stm32f1xx_hal_adc_ex.c ****         /* Process unlocked */
 202:Drivers/STM32F1xx_HAL_Driver/Src/stm32f1xx_hal_adc_ex.c ****         __HAL_UNLOCK(hadc);
 203:Drivers/STM32F1xx_HAL_Driver/Src/stm32f1xx_hal_adc_ex.c ****         
 204:Drivers/STM32F1xx_HAL_Driver/Src/stm32f1xx_hal_adc_ex.c ****         return HAL_ERROR;
 205:Drivers/STM32F1xx_HAL_Driver/Src/stm32f1xx_hal_adc_ex.c ****       }
 206:Drivers/STM32F1xx_HAL_Driver/Src/stm32f1xx_hal_adc_ex.c ****     }
 207:Drivers/STM32F1xx_HAL_Driver/Src/stm32f1xx_hal_adc_ex.c ****     
 208:Drivers/STM32F1xx_HAL_Driver/Src/stm32f1xx_hal_adc_ex.c ****     
 209:Drivers/STM32F1xx_HAL_Driver/Src/stm32f1xx_hal_adc_ex.c ****     /* 4. Start ADC calibration */
 210:Drivers/STM32F1xx_HAL_Driver/Src/stm32f1xx_hal_adc_ex.c ****     SET_BIT(hadc->Instance->CR2, ADC_CR2_CAL);
 211:Drivers/STM32F1xx_HAL_Driver/Src/stm32f1xx_hal_adc_ex.c ****     
 212:Drivers/STM32F1xx_HAL_Driver/Src/stm32f1xx_hal_adc_ex.c ****     tickstart = HAL_GetTick();  
 213:Drivers/STM32F1xx_HAL_Driver/Src/stm32f1xx_hal_adc_ex.c **** 
 214:Drivers/STM32F1xx_HAL_Driver/Src/stm32f1xx_hal_adc_ex.c ****     /* Wait for calibration completion */
 215:Drivers/STM32F1xx_HAL_Driver/Src/stm32f1xx_hal_adc_ex.c ****     while(HAL_IS_BIT_SET(hadc->Instance->CR2, ADC_CR2_CAL))
 216:Drivers/STM32F1xx_HAL_Driver/Src/stm32f1xx_hal_adc_ex.c ****     {
ARM GAS  /var/folders/2w/5wbrmvx534s_vk8svtxz852c0000gn/T//cc29HaPQ.s 			page 6


 217:Drivers/STM32F1xx_HAL_Driver/Src/stm32f1xx_hal_adc_ex.c ****       if((HAL_GetTick() - tickstart) > ADC_CALIBRATION_TIMEOUT)
 218:Drivers/STM32F1xx_HAL_Driver/Src/stm32f1xx_hal_adc_ex.c ****       {
 219:Drivers/STM32F1xx_HAL_Driver/Src/stm32f1xx_hal_adc_ex.c ****         /* Update ADC state machine to error */
 220:Drivers/STM32F1xx_HAL_Driver/Src/stm32f1xx_hal_adc_ex.c ****         ADC_STATE_CLR_SET(hadc->State,
 221:Drivers/STM32F1xx_HAL_Driver/Src/stm32f1xx_hal_adc_ex.c ****                           HAL_ADC_STATE_BUSY_INTERNAL,
 222:Drivers/STM32F1xx_HAL_Driver/Src/stm32f1xx_hal_adc_ex.c ****                           HAL_ADC_STATE_ERROR_INTERNAL);
 223:Drivers/STM32F1xx_HAL_Driver/Src/stm32f1xx_hal_adc_ex.c ****         
 224:Drivers/STM32F1xx_HAL_Driver/Src/stm32f1xx_hal_adc_ex.c ****         /* Process unlocked */
 225:Drivers/STM32F1xx_HAL_Driver/Src/stm32f1xx_hal_adc_ex.c ****         __HAL_UNLOCK(hadc);
 226:Drivers/STM32F1xx_HAL_Driver/Src/stm32f1xx_hal_adc_ex.c ****         
 227:Drivers/STM32F1xx_HAL_Driver/Src/stm32f1xx_hal_adc_ex.c ****         return HAL_ERROR;
 228:Drivers/STM32F1xx_HAL_Driver/Src/stm32f1xx_hal_adc_ex.c ****       }
 229:Drivers/STM32F1xx_HAL_Driver/Src/stm32f1xx_hal_adc_ex.c ****     }
 230:Drivers/STM32F1xx_HAL_Driver/Src/stm32f1xx_hal_adc_ex.c ****     
 231:Drivers/STM32F1xx_HAL_Driver/Src/stm32f1xx_hal_adc_ex.c ****     /* Set ADC state */
 232:Drivers/STM32F1xx_HAL_Driver/Src/stm32f1xx_hal_adc_ex.c ****     ADC_STATE_CLR_SET(hadc->State,
 233:Drivers/STM32F1xx_HAL_Driver/Src/stm32f1xx_hal_adc_ex.c ****                       HAL_ADC_STATE_BUSY_INTERNAL,
 234:Drivers/STM32F1xx_HAL_Driver/Src/stm32f1xx_hal_adc_ex.c ****                       HAL_ADC_STATE_READY);
 235:Drivers/STM32F1xx_HAL_Driver/Src/stm32f1xx_hal_adc_ex.c ****   }
 236:Drivers/STM32F1xx_HAL_Driver/Src/stm32f1xx_hal_adc_ex.c ****   
 237:Drivers/STM32F1xx_HAL_Driver/Src/stm32f1xx_hal_adc_ex.c ****   /* Process unlocked */
 238:Drivers/STM32F1xx_HAL_Driver/Src/stm32f1xx_hal_adc_ex.c ****   __HAL_UNLOCK(hadc);
  71              		.loc 1 238 3 is_stmt 1 view .LVU15
  72              		.loc 1 238 3 view .LVU16
  73 0020 0023     		movs	r3, #0
  74 0022 84F82430 		strb	r3, [r4, #36]
  75              		.loc 1 238 3 view .LVU17
 239:Drivers/STM32F1xx_HAL_Driver/Src/stm32f1xx_hal_adc_ex.c ****   
 240:Drivers/STM32F1xx_HAL_Driver/Src/stm32f1xx_hal_adc_ex.c ****   /* Return function status */
 241:Drivers/STM32F1xx_HAL_Driver/Src/stm32f1xx_hal_adc_ex.c ****   return tmp_hal_status;
  76              		.loc 1 241 3 view .LVU18
  77              	.LVL4:
  78              	.L2:
 242:Drivers/STM32F1xx_HAL_Driver/Src/stm32f1xx_hal_adc_ex.c **** }
  79              		.loc 1 242 1 is_stmt 0 view .LVU19
  80 0026 2846     		mov	r0, r5
  81 0028 02B0     		add	sp, sp, #8
  82              	.LCFI2:
  83              		.cfi_remember_state
  84              		.cfi_def_cfa_offset 16
  85              		@ sp needed
  86 002a 70BD     		pop	{r4, r5, r6, pc}
  87              	.LVL5:
  88              	.L12:
  89              	.LCFI3:
  90              		.cfi_restore_state
 167:Drivers/STM32F1xx_HAL_Driver/Src/stm32f1xx_hal_adc_ex.c ****                       HAL_ADC_STATE_REG_BUSY | HAL_ADC_STATE_INJ_BUSY,
  91              		.loc 1 167 5 is_stmt 1 view .LVU20
  92 002c A36A     		ldr	r3, [r4, #40]
  93 002e 23F48853 		bic	r3, r3, #4352
  94 0032 23F00203 		bic	r3, r3, #2
  95 0036 43F00203 		orr	r3, r3, #2
  96 003a A362     		str	r3, [r4, #40]
 174:Drivers/STM32F1xx_HAL_Driver/Src/stm32f1xx_hal_adc_ex.c ****                         / HAL_RCCEx_GetPeriphCLKFreq(RCC_PERIPHCLK_ADC))
  97              		.loc 1 174 5 view .LVU21
 175:Drivers/STM32F1xx_HAL_Driver/Src/stm32f1xx_hal_adc_ex.c ****                        * ADC_PRECALIBRATION_DELAY_ADCCLOCKCYCLES        );
  98              		.loc 1 175 25 is_stmt 0 view .LVU22
ARM GAS  /var/folders/2w/5wbrmvx534s_vk8svtxz852c0000gn/T//cc29HaPQ.s 			page 7


  99 003c 2A4B     		ldr	r3, .L15
 100 003e 1E68     		ldr	r6, [r3]
 175:Drivers/STM32F1xx_HAL_Driver/Src/stm32f1xx_hal_adc_ex.c ****                        * ADC_PRECALIBRATION_DELAY_ADCCLOCKCYCLES        );
 101              		.loc 1 175 27 view .LVU23
 102 0040 0220     		movs	r0, #2
 103              	.LVL6:
 175:Drivers/STM32F1xx_HAL_Driver/Src/stm32f1xx_hal_adc_ex.c ****                        * ADC_PRECALIBRATION_DELAY_ADCCLOCKCYCLES        );
 104              		.loc 1 175 27 view .LVU24
 105 0042 FFF7FEFF 		bl	HAL_RCCEx_GetPeriphCLKFreq
 106              	.LVL7:
 175:Drivers/STM32F1xx_HAL_Driver/Src/stm32f1xx_hal_adc_ex.c ****                        * ADC_PRECALIBRATION_DELAY_ADCCLOCKCYCLES        );
 107              		.loc 1 175 25 view .LVU25
 108 0046 B6FBF0F6 		udiv	r6, r6, r0
 176:Drivers/STM32F1xx_HAL_Driver/Src/stm32f1xx_hal_adc_ex.c **** 
 109              		.loc 1 176 24 view .LVU26
 110 004a 7600     		lsls	r6, r6, #1
 174:Drivers/STM32F1xx_HAL_Driver/Src/stm32f1xx_hal_adc_ex.c ****                         / HAL_RCCEx_GetPeriphCLKFreq(RCC_PERIPHCLK_ADC))
 111              		.loc 1 174 21 view .LVU27
 112 004c 0196     		str	r6, [sp, #4]
 178:Drivers/STM32F1xx_HAL_Driver/Src/stm32f1xx_hal_adc_ex.c ****     {
 113              		.loc 1 178 5 is_stmt 1 view .LVU28
 178:Drivers/STM32F1xx_HAL_Driver/Src/stm32f1xx_hal_adc_ex.c ****     {
 114              		.loc 1 178 10 is_stmt 0 view .LVU29
 115 004e 02E0     		b	.L4
 116              	.L5:
 180:Drivers/STM32F1xx_HAL_Driver/Src/stm32f1xx_hal_adc_ex.c ****     }
 117              		.loc 1 180 7 is_stmt 1 view .LVU30
 180:Drivers/STM32F1xx_HAL_Driver/Src/stm32f1xx_hal_adc_ex.c ****     }
 118              		.loc 1 180 22 is_stmt 0 view .LVU31
 119 0050 019B     		ldr	r3, [sp, #4]
 120 0052 013B     		subs	r3, r3, #1
 121 0054 0193     		str	r3, [sp, #4]
 122              	.L4:
 178:Drivers/STM32F1xx_HAL_Driver/Src/stm32f1xx_hal_adc_ex.c ****     {
 123              		.loc 1 178 10 is_stmt 1 view .LVU32
 178:Drivers/STM32F1xx_HAL_Driver/Src/stm32f1xx_hal_adc_ex.c ****     {
 124              		.loc 1 178 27 is_stmt 0 view .LVU33
 125 0056 019B     		ldr	r3, [sp, #4]
 178:Drivers/STM32F1xx_HAL_Driver/Src/stm32f1xx_hal_adc_ex.c ****     {
 126              		.loc 1 178 10 view .LVU34
 127 0058 002B     		cmp	r3, #0
 128 005a F9D1     		bne	.L5
 184:Drivers/STM32F1xx_HAL_Driver/Src/stm32f1xx_hal_adc_ex.c ****     
 129              		.loc 1 184 5 is_stmt 1 view .LVU35
 130 005c 2046     		mov	r0, r4
 131 005e FFF7FEFF 		bl	ADC_Enable
 132              	.LVL8:
 187:Drivers/STM32F1xx_HAL_Driver/Src/stm32f1xx_hal_adc_ex.c ****     
 133              		.loc 1 187 5 view .LVU36
 134 0062 2268     		ldr	r2, [r4]
 135 0064 9368     		ldr	r3, [r2, #8]
 136 0066 43F00803 		orr	r3, r3, #8
 137 006a 9360     		str	r3, [r2, #8]
 189:Drivers/STM32F1xx_HAL_Driver/Src/stm32f1xx_hal_adc_ex.c **** 
 138              		.loc 1 189 5 view .LVU37
 189:Drivers/STM32F1xx_HAL_Driver/Src/stm32f1xx_hal_adc_ex.c **** 
 139              		.loc 1 189 17 is_stmt 0 view .LVU38
ARM GAS  /var/folders/2w/5wbrmvx534s_vk8svtxz852c0000gn/T//cc29HaPQ.s 			page 8


 140 006c FFF7FEFF 		bl	HAL_GetTick
 141              	.LVL9:
 142 0070 0646     		mov	r6, r0
 143              	.LVL10:
 192:Drivers/STM32F1xx_HAL_Driver/Src/stm32f1xx_hal_adc_ex.c ****     {
 144              		.loc 1 192 5 is_stmt 1 view .LVU39
 145              	.L6:
 192:Drivers/STM32F1xx_HAL_Driver/Src/stm32f1xx_hal_adc_ex.c ****     {
 146              		.loc 1 192 10 view .LVU40
 192:Drivers/STM32F1xx_HAL_Driver/Src/stm32f1xx_hal_adc_ex.c ****     {
 147              		.loc 1 192 11 is_stmt 0 view .LVU41
 148 0072 2368     		ldr	r3, [r4]
 149 0074 9A68     		ldr	r2, [r3, #8]
 192:Drivers/STM32F1xx_HAL_Driver/Src/stm32f1xx_hal_adc_ex.c ****     {
 150              		.loc 1 192 10 view .LVU42
 151 0076 12F0080F 		tst	r2, #8
 152 007a 0FD0     		beq	.L13
 194:Drivers/STM32F1xx_HAL_Driver/Src/stm32f1xx_hal_adc_ex.c ****       {
 153              		.loc 1 194 7 is_stmt 1 view .LVU43
 194:Drivers/STM32F1xx_HAL_Driver/Src/stm32f1xx_hal_adc_ex.c ****       {
 154              		.loc 1 194 11 is_stmt 0 view .LVU44
 155 007c FFF7FEFF 		bl	HAL_GetTick
 156              	.LVL11:
 194:Drivers/STM32F1xx_HAL_Driver/Src/stm32f1xx_hal_adc_ex.c ****       {
 157              		.loc 1 194 25 view .LVU45
 158 0080 801B     		subs	r0, r0, r6
 194:Drivers/STM32F1xx_HAL_Driver/Src/stm32f1xx_hal_adc_ex.c ****       {
 159              		.loc 1 194 9 view .LVU46
 160 0082 0A28     		cmp	r0, #10
 161 0084 F5D9     		bls	.L6
 197:Drivers/STM32F1xx_HAL_Driver/Src/stm32f1xx_hal_adc_ex.c ****                           HAL_ADC_STATE_BUSY_INTERNAL,
 162              		.loc 1 197 9 is_stmt 1 view .LVU47
 163 0086 A36A     		ldr	r3, [r4, #40]
 164 0088 23F01203 		bic	r3, r3, #18
 165 008c 43F01003 		orr	r3, r3, #16
 166 0090 A362     		str	r3, [r4, #40]
 202:Drivers/STM32F1xx_HAL_Driver/Src/stm32f1xx_hal_adc_ex.c ****         
 167              		.loc 1 202 9 view .LVU48
 202:Drivers/STM32F1xx_HAL_Driver/Src/stm32f1xx_hal_adc_ex.c ****         
 168              		.loc 1 202 9 view .LVU49
 169 0092 0023     		movs	r3, #0
 170 0094 84F82430 		strb	r3, [r4, #36]
 202:Drivers/STM32F1xx_HAL_Driver/Src/stm32f1xx_hal_adc_ex.c ****         
 171              		.loc 1 202 9 view .LVU50
 204:Drivers/STM32F1xx_HAL_Driver/Src/stm32f1xx_hal_adc_ex.c ****       }
 172              		.loc 1 204 9 view .LVU51
 204:Drivers/STM32F1xx_HAL_Driver/Src/stm32f1xx_hal_adc_ex.c ****       }
 173              		.loc 1 204 16 is_stmt 0 view .LVU52
 174 0098 0125     		movs	r5, #1
 175 009a C4E7     		b	.L2
 176              	.L13:
 210:Drivers/STM32F1xx_HAL_Driver/Src/stm32f1xx_hal_adc_ex.c ****     
 177              		.loc 1 210 5 is_stmt 1 view .LVU53
 178 009c 9A68     		ldr	r2, [r3, #8]
 179 009e 42F00402 		orr	r2, r2, #4
 180 00a2 9A60     		str	r2, [r3, #8]
 212:Drivers/STM32F1xx_HAL_Driver/Src/stm32f1xx_hal_adc_ex.c **** 
ARM GAS  /var/folders/2w/5wbrmvx534s_vk8svtxz852c0000gn/T//cc29HaPQ.s 			page 9


 181              		.loc 1 212 5 view .LVU54
 212:Drivers/STM32F1xx_HAL_Driver/Src/stm32f1xx_hal_adc_ex.c **** 
 182              		.loc 1 212 17 is_stmt 0 view .LVU55
 183 00a4 FFF7FEFF 		bl	HAL_GetTick
 184              	.LVL12:
 185 00a8 0646     		mov	r6, r0
 186              	.LVL13:
 215:Drivers/STM32F1xx_HAL_Driver/Src/stm32f1xx_hal_adc_ex.c ****     {
 187              		.loc 1 215 5 is_stmt 1 view .LVU56
 188              	.L8:
 215:Drivers/STM32F1xx_HAL_Driver/Src/stm32f1xx_hal_adc_ex.c ****     {
 189              		.loc 1 215 10 view .LVU57
 215:Drivers/STM32F1xx_HAL_Driver/Src/stm32f1xx_hal_adc_ex.c ****     {
 190              		.loc 1 215 11 is_stmt 0 view .LVU58
 191 00aa 2368     		ldr	r3, [r4]
 192 00ac 9B68     		ldr	r3, [r3, #8]
 215:Drivers/STM32F1xx_HAL_Driver/Src/stm32f1xx_hal_adc_ex.c ****     {
 193              		.loc 1 215 10 view .LVU59
 194 00ae 13F0040F 		tst	r3, #4
 195 00b2 0FD0     		beq	.L14
 217:Drivers/STM32F1xx_HAL_Driver/Src/stm32f1xx_hal_adc_ex.c ****       {
 196              		.loc 1 217 7 is_stmt 1 view .LVU60
 217:Drivers/STM32F1xx_HAL_Driver/Src/stm32f1xx_hal_adc_ex.c ****       {
 197              		.loc 1 217 11 is_stmt 0 view .LVU61
 198 00b4 FFF7FEFF 		bl	HAL_GetTick
 199              	.LVL14:
 217:Drivers/STM32F1xx_HAL_Driver/Src/stm32f1xx_hal_adc_ex.c ****       {
 200              		.loc 1 217 25 view .LVU62
 201 00b8 801B     		subs	r0, r0, r6
 217:Drivers/STM32F1xx_HAL_Driver/Src/stm32f1xx_hal_adc_ex.c ****       {
 202              		.loc 1 217 9 view .LVU63
 203 00ba 0A28     		cmp	r0, #10
 204 00bc F5D9     		bls	.L8
 220:Drivers/STM32F1xx_HAL_Driver/Src/stm32f1xx_hal_adc_ex.c ****                           HAL_ADC_STATE_BUSY_INTERNAL,
 205              		.loc 1 220 9 is_stmt 1 view .LVU64
 206 00be A36A     		ldr	r3, [r4, #40]
 207 00c0 23F01203 		bic	r3, r3, #18
 208 00c4 43F01003 		orr	r3, r3, #16
 209 00c8 A362     		str	r3, [r4, #40]
 225:Drivers/STM32F1xx_HAL_Driver/Src/stm32f1xx_hal_adc_ex.c ****         
 210              		.loc 1 225 9 view .LVU65
 225:Drivers/STM32F1xx_HAL_Driver/Src/stm32f1xx_hal_adc_ex.c ****         
 211              		.loc 1 225 9 view .LVU66
 212 00ca 0023     		movs	r3, #0
 213 00cc 84F82430 		strb	r3, [r4, #36]
 225:Drivers/STM32F1xx_HAL_Driver/Src/stm32f1xx_hal_adc_ex.c ****         
 214              		.loc 1 225 9 view .LVU67
 227:Drivers/STM32F1xx_HAL_Driver/Src/stm32f1xx_hal_adc_ex.c ****       }
 215              		.loc 1 227 9 view .LVU68
 227:Drivers/STM32F1xx_HAL_Driver/Src/stm32f1xx_hal_adc_ex.c ****       }
 216              		.loc 1 227 16 is_stmt 0 view .LVU69
 217 00d0 0125     		movs	r5, #1
 218 00d2 A8E7     		b	.L2
 219              	.L14:
 232:Drivers/STM32F1xx_HAL_Driver/Src/stm32f1xx_hal_adc_ex.c ****                       HAL_ADC_STATE_BUSY_INTERNAL,
 220              		.loc 1 232 5 is_stmt 1 view .LVU70
 221 00d4 A36A     		ldr	r3, [r4, #40]
ARM GAS  /var/folders/2w/5wbrmvx534s_vk8svtxz852c0000gn/T//cc29HaPQ.s 			page 10


 222 00d6 23F00303 		bic	r3, r3, #3
 223 00da 43F00103 		orr	r3, r3, #1
 224 00de A362     		str	r3, [r4, #40]
 225 00e0 9EE7     		b	.L3
 226              	.LVL15:
 227              	.L10:
 154:Drivers/STM32F1xx_HAL_Driver/Src/stm32f1xx_hal_adc_ex.c ****     
 228              		.loc 1 154 3 is_stmt 0 view .LVU71
 229 00e2 0225     		movs	r5, #2
 230 00e4 9FE7     		b	.L2
 231              	.L16:
 232 00e6 00BF     		.align	2
 233              	.L15:
 234 00e8 00000000 		.word	SystemCoreClock
 235              		.cfi_endproc
 236              	.LFE66:
 238              		.section	.text.HAL_ADCEx_InjectedStart,"ax",%progbits
 239              		.align	1
 240              		.global	HAL_ADCEx_InjectedStart
 241              		.syntax unified
 242              		.thumb
 243              		.thumb_func
 245              	HAL_ADCEx_InjectedStart:
 246              	.LVL16:
 247              	.LFB67:
 243:Drivers/STM32F1xx_HAL_Driver/Src/stm32f1xx_hal_adc_ex.c **** 
 244:Drivers/STM32F1xx_HAL_Driver/Src/stm32f1xx_hal_adc_ex.c **** /**
 245:Drivers/STM32F1xx_HAL_Driver/Src/stm32f1xx_hal_adc_ex.c ****   * @brief  Enables ADC, starts conversion of injected group.
 246:Drivers/STM32F1xx_HAL_Driver/Src/stm32f1xx_hal_adc_ex.c ****   *         Interruptions enabled in this function: None.
 247:Drivers/STM32F1xx_HAL_Driver/Src/stm32f1xx_hal_adc_ex.c ****   * @param  hadc: ADC handle
 248:Drivers/STM32F1xx_HAL_Driver/Src/stm32f1xx_hal_adc_ex.c ****   * @retval HAL status
 249:Drivers/STM32F1xx_HAL_Driver/Src/stm32f1xx_hal_adc_ex.c ****   */
 250:Drivers/STM32F1xx_HAL_Driver/Src/stm32f1xx_hal_adc_ex.c **** HAL_StatusTypeDef HAL_ADCEx_InjectedStart(ADC_HandleTypeDef* hadc)
 251:Drivers/STM32F1xx_HAL_Driver/Src/stm32f1xx_hal_adc_ex.c **** {
 248              		.loc 1 251 1 is_stmt 1 view -0
 249              		.cfi_startproc
 250              		@ args = 0, pretend = 0, frame = 0
 251              		@ frame_needed = 0, uses_anonymous_args = 0
 252:Drivers/STM32F1xx_HAL_Driver/Src/stm32f1xx_hal_adc_ex.c ****   HAL_StatusTypeDef tmp_hal_status = HAL_OK;
 252              		.loc 1 252 3 view .LVU73
 253:Drivers/STM32F1xx_HAL_Driver/Src/stm32f1xx_hal_adc_ex.c ****   
 254:Drivers/STM32F1xx_HAL_Driver/Src/stm32f1xx_hal_adc_ex.c ****   /* Check the parameters */
 255:Drivers/STM32F1xx_HAL_Driver/Src/stm32f1xx_hal_adc_ex.c ****   assert_param(IS_ADC_ALL_INSTANCE(hadc->Instance));
 253              		.loc 1 255 3 view .LVU74
 256:Drivers/STM32F1xx_HAL_Driver/Src/stm32f1xx_hal_adc_ex.c ****   
 257:Drivers/STM32F1xx_HAL_Driver/Src/stm32f1xx_hal_adc_ex.c ****   /* Process locked */
 258:Drivers/STM32F1xx_HAL_Driver/Src/stm32f1xx_hal_adc_ex.c ****   __HAL_LOCK(hadc);
 254              		.loc 1 258 3 view .LVU75
 255              		.loc 1 258 3 view .LVU76
 256 0000 90F82430 		ldrb	r3, [r0, #36]	@ zero_extendqisi2
 257 0004 012B     		cmp	r3, #1
 258 0006 52D0     		beq	.L26
 251:Drivers/STM32F1xx_HAL_Driver/Src/stm32f1xx_hal_adc_ex.c ****   HAL_StatusTypeDef tmp_hal_status = HAL_OK;
 259              		.loc 1 251 1 is_stmt 0 discriminator 2 view .LVU77
 260 0008 10B5     		push	{r4, lr}
 261              	.LCFI4:
 262              		.cfi_def_cfa_offset 8
ARM GAS  /var/folders/2w/5wbrmvx534s_vk8svtxz852c0000gn/T//cc29HaPQ.s 			page 11


 263              		.cfi_offset 4, -8
 264              		.cfi_offset 14, -4
 265 000a 0446     		mov	r4, r0
 266              		.loc 1 258 3 is_stmt 1 discriminator 2 view .LVU78
 267 000c 0123     		movs	r3, #1
 268 000e 80F82430 		strb	r3, [r0, #36]
 269              		.loc 1 258 3 discriminator 2 view .LVU79
 259:Drivers/STM32F1xx_HAL_Driver/Src/stm32f1xx_hal_adc_ex.c ****     
 260:Drivers/STM32F1xx_HAL_Driver/Src/stm32f1xx_hal_adc_ex.c ****   /* Enable the ADC peripheral */
 261:Drivers/STM32F1xx_HAL_Driver/Src/stm32f1xx_hal_adc_ex.c ****   tmp_hal_status = ADC_Enable(hadc);
 270              		.loc 1 261 3 discriminator 2 view .LVU80
 271              		.loc 1 261 20 is_stmt 0 discriminator 2 view .LVU81
 272 0012 FFF7FEFF 		bl	ADC_Enable
 273              	.LVL17:
 262:Drivers/STM32F1xx_HAL_Driver/Src/stm32f1xx_hal_adc_ex.c ****   
 263:Drivers/STM32F1xx_HAL_Driver/Src/stm32f1xx_hal_adc_ex.c ****   /* Start conversion if ADC is effectively enabled */
 264:Drivers/STM32F1xx_HAL_Driver/Src/stm32f1xx_hal_adc_ex.c ****   if (tmp_hal_status == HAL_OK)
 274              		.loc 1 264 3 is_stmt 1 discriminator 2 view .LVU82
 275              		.loc 1 264 6 is_stmt 0 discriminator 2 view .LVU83
 276 0016 0028     		cmp	r0, #0
 277 0018 45D1     		bne	.L19
 265:Drivers/STM32F1xx_HAL_Driver/Src/stm32f1xx_hal_adc_ex.c ****   {
 266:Drivers/STM32F1xx_HAL_Driver/Src/stm32f1xx_hal_adc_ex.c ****     /* Set ADC state                                                          */
 267:Drivers/STM32F1xx_HAL_Driver/Src/stm32f1xx_hal_adc_ex.c ****     /* - Clear state bitfield related to injected group conversion results    */
 268:Drivers/STM32F1xx_HAL_Driver/Src/stm32f1xx_hal_adc_ex.c ****     /* - Set state bitfield related to injected operation                     */
 269:Drivers/STM32F1xx_HAL_Driver/Src/stm32f1xx_hal_adc_ex.c ****     ADC_STATE_CLR_SET(hadc->State,
 278              		.loc 1 269 5 is_stmt 1 view .LVU84
 279 001a A36A     		ldr	r3, [r4, #40]
 280 001c 23F44053 		bic	r3, r3, #12288
 281 0020 23F00103 		bic	r3, r3, #1
 282 0024 43F48053 		orr	r3, r3, #4096
 283 0028 A362     		str	r3, [r4, #40]
 270:Drivers/STM32F1xx_HAL_Driver/Src/stm32f1xx_hal_adc_ex.c ****                       HAL_ADC_STATE_READY | HAL_ADC_STATE_INJ_EOC,
 271:Drivers/STM32F1xx_HAL_Driver/Src/stm32f1xx_hal_adc_ex.c ****                       HAL_ADC_STATE_INJ_BUSY);
 272:Drivers/STM32F1xx_HAL_Driver/Src/stm32f1xx_hal_adc_ex.c ****     
 273:Drivers/STM32F1xx_HAL_Driver/Src/stm32f1xx_hal_adc_ex.c ****     /* Case of independent mode or multimode (for devices with several ADCs): */
 274:Drivers/STM32F1xx_HAL_Driver/Src/stm32f1xx_hal_adc_ex.c ****     /* Set multimode state.                                                   */
 275:Drivers/STM32F1xx_HAL_Driver/Src/stm32f1xx_hal_adc_ex.c ****     if (ADC_NONMULTIMODE_OR_MULTIMODEMASTER(hadc))
 284              		.loc 1 275 5 view .LVU85
 285              		.loc 1 275 9 is_stmt 0 view .LVU86
 286 002a 2268     		ldr	r2, [r4]
 287              		.loc 1 275 8 view .LVU87
 288 002c 214B     		ldr	r3, .L34
 289 002e 9A42     		cmp	r2, r3
 290 0030 1FD0     		beq	.L31
 291              	.L20:
 276:Drivers/STM32F1xx_HAL_Driver/Src/stm32f1xx_hal_adc_ex.c ****     {
 277:Drivers/STM32F1xx_HAL_Driver/Src/stm32f1xx_hal_adc_ex.c ****       CLEAR_BIT(hadc->State, HAL_ADC_STATE_MULTIMODE_SLAVE);
 292              		.loc 1 277 7 is_stmt 1 view .LVU88
 293 0032 A36A     		ldr	r3, [r4, #40]
 294 0034 23F48013 		bic	r3, r3, #1048576
 295 0038 A362     		str	r3, [r4, #40]
 296              	.L22:
 278:Drivers/STM32F1xx_HAL_Driver/Src/stm32f1xx_hal_adc_ex.c ****     }
 279:Drivers/STM32F1xx_HAL_Driver/Src/stm32f1xx_hal_adc_ex.c ****     else
 280:Drivers/STM32F1xx_HAL_Driver/Src/stm32f1xx_hal_adc_ex.c ****     {
 281:Drivers/STM32F1xx_HAL_Driver/Src/stm32f1xx_hal_adc_ex.c ****       SET_BIT(hadc->State, HAL_ADC_STATE_MULTIMODE_SLAVE);
ARM GAS  /var/folders/2w/5wbrmvx534s_vk8svtxz852c0000gn/T//cc29HaPQ.s 			page 12


 282:Drivers/STM32F1xx_HAL_Driver/Src/stm32f1xx_hal_adc_ex.c ****     }
 283:Drivers/STM32F1xx_HAL_Driver/Src/stm32f1xx_hal_adc_ex.c ****     
 284:Drivers/STM32F1xx_HAL_Driver/Src/stm32f1xx_hal_adc_ex.c ****     /* Check if a regular conversion is ongoing */
 285:Drivers/STM32F1xx_HAL_Driver/Src/stm32f1xx_hal_adc_ex.c ****     /* Note: On this device, there is no ADC error code fields related to     */
 286:Drivers/STM32F1xx_HAL_Driver/Src/stm32f1xx_hal_adc_ex.c ****     /*       conversions on group injected only. In case of conversion on     */
 287:Drivers/STM32F1xx_HAL_Driver/Src/stm32f1xx_hal_adc_ex.c ****     /*       going on group regular, no error code is reset.                  */
 288:Drivers/STM32F1xx_HAL_Driver/Src/stm32f1xx_hal_adc_ex.c ****     if (HAL_IS_BIT_CLR(hadc->State, HAL_ADC_STATE_REG_BUSY))
 297              		.loc 1 288 5 view .LVU89
 298              		.loc 1 288 9 is_stmt 0 view .LVU90
 299 003a A36A     		ldr	r3, [r4, #40]
 300              		.loc 1 288 8 view .LVU91
 301 003c 13F4807F 		tst	r3, #256
 302 0040 01D1     		bne	.L23
 289:Drivers/STM32F1xx_HAL_Driver/Src/stm32f1xx_hal_adc_ex.c ****     {
 290:Drivers/STM32F1xx_HAL_Driver/Src/stm32f1xx_hal_adc_ex.c ****       /* Reset ADC all error code fields */
 291:Drivers/STM32F1xx_HAL_Driver/Src/stm32f1xx_hal_adc_ex.c ****       ADC_CLEAR_ERRORCODE(hadc);
 303              		.loc 1 291 7 is_stmt 1 view .LVU92
 304 0042 0023     		movs	r3, #0
 305 0044 E362     		str	r3, [r4, #44]
 306              	.L23:
 292:Drivers/STM32F1xx_HAL_Driver/Src/stm32f1xx_hal_adc_ex.c ****     }
 293:Drivers/STM32F1xx_HAL_Driver/Src/stm32f1xx_hal_adc_ex.c ****     
 294:Drivers/STM32F1xx_HAL_Driver/Src/stm32f1xx_hal_adc_ex.c ****     /* Process unlocked */
 295:Drivers/STM32F1xx_HAL_Driver/Src/stm32f1xx_hal_adc_ex.c ****     /* Unlock before starting ADC conversions: in case of potential           */
 296:Drivers/STM32F1xx_HAL_Driver/Src/stm32f1xx_hal_adc_ex.c ****     /* interruption, to let the process to ADC IRQ Handler.                   */
 297:Drivers/STM32F1xx_HAL_Driver/Src/stm32f1xx_hal_adc_ex.c ****     __HAL_UNLOCK(hadc);
 307              		.loc 1 297 5 view .LVU93
 308              		.loc 1 297 5 view .LVU94
 309 0046 0023     		movs	r3, #0
 310 0048 84F82430 		strb	r3, [r4, #36]
 311              		.loc 1 297 5 view .LVU95
 298:Drivers/STM32F1xx_HAL_Driver/Src/stm32f1xx_hal_adc_ex.c ****     
 299:Drivers/STM32F1xx_HAL_Driver/Src/stm32f1xx_hal_adc_ex.c ****     /* Clear injected group conversion flag */
 300:Drivers/STM32F1xx_HAL_Driver/Src/stm32f1xx_hal_adc_ex.c ****     /* (To ensure of no unknown state from potential previous ADC operations) */
 301:Drivers/STM32F1xx_HAL_Driver/Src/stm32f1xx_hal_adc_ex.c ****     __HAL_ADC_CLEAR_FLAG(hadc, ADC_FLAG_JEOC);
 312              		.loc 1 301 5 view .LVU96
 313 004c 6FF00403 		mvn	r3, #4
 314 0050 1360     		str	r3, [r2]
 302:Drivers/STM32F1xx_HAL_Driver/Src/stm32f1xx_hal_adc_ex.c ****         
 303:Drivers/STM32F1xx_HAL_Driver/Src/stm32f1xx_hal_adc_ex.c ****     /* Enable conversion of injected group.                                   */
 304:Drivers/STM32F1xx_HAL_Driver/Src/stm32f1xx_hal_adc_ex.c ****     /* If software start has been selected, conversion starts immediately.    */
 305:Drivers/STM32F1xx_HAL_Driver/Src/stm32f1xx_hal_adc_ex.c ****     /* If external trigger has been selected, conversion will start at next   */
 306:Drivers/STM32F1xx_HAL_Driver/Src/stm32f1xx_hal_adc_ex.c ****     /* trigger event.                                                         */
 307:Drivers/STM32F1xx_HAL_Driver/Src/stm32f1xx_hal_adc_ex.c ****     /* If automatic injected conversion is enabled, conversion will start     */
 308:Drivers/STM32F1xx_HAL_Driver/Src/stm32f1xx_hal_adc_ex.c ****     /* after next regular group conversion.                                   */
 309:Drivers/STM32F1xx_HAL_Driver/Src/stm32f1xx_hal_adc_ex.c ****     /* Case of multimode enabled (for devices with several ADCs): if ADC is   */
 310:Drivers/STM32F1xx_HAL_Driver/Src/stm32f1xx_hal_adc_ex.c ****     /* slave, ADC is enabled only (conversion is not started). If ADC is      */
 311:Drivers/STM32F1xx_HAL_Driver/Src/stm32f1xx_hal_adc_ex.c ****     /* master, ADC is enabled and conversion is started.                      */
 312:Drivers/STM32F1xx_HAL_Driver/Src/stm32f1xx_hal_adc_ex.c ****     if (HAL_IS_BIT_CLR(hadc->Instance->CR1, ADC_CR1_JAUTO))
 315              		.loc 1 312 5 view .LVU97
 316              		.loc 1 312 9 is_stmt 0 view .LVU98
 317 0052 2368     		ldr	r3, [r4]
 318 0054 5A68     		ldr	r2, [r3, #4]
 319              		.loc 1 312 8 view .LVU99
 320 0056 12F4806F 		tst	r2, #1024
 321 005a 27D1     		bne	.L18
 313:Drivers/STM32F1xx_HAL_Driver/Src/stm32f1xx_hal_adc_ex.c ****     {
ARM GAS  /var/folders/2w/5wbrmvx534s_vk8svtxz852c0000gn/T//cc29HaPQ.s 			page 13


 314:Drivers/STM32F1xx_HAL_Driver/Src/stm32f1xx_hal_adc_ex.c ****       if (ADC_IS_SOFTWARE_START_INJECTED(hadc)     &&
 322              		.loc 1 314 7 is_stmt 1 view .LVU100
 323              		.loc 1 314 11 is_stmt 0 view .LVU101
 324 005c 9A68     		ldr	r2, [r3, #8]
 325 005e 02F4E042 		and	r2, r2, #28672
 326              		.loc 1 314 10 view .LVU102
 327 0062 B2F5E04F 		cmp	r2, #28672
 328 0066 0FD0     		beq	.L32
 329              	.L24:
 315:Drivers/STM32F1xx_HAL_Driver/Src/stm32f1xx_hal_adc_ex.c ****           ADC_NONMULTIMODE_OR_MULTIMODEMASTER(hadc)  )
 316:Drivers/STM32F1xx_HAL_Driver/Src/stm32f1xx_hal_adc_ex.c ****       {
 317:Drivers/STM32F1xx_HAL_Driver/Src/stm32f1xx_hal_adc_ex.c ****         /* Start ADC conversion on injected group with SW start */
 318:Drivers/STM32F1xx_HAL_Driver/Src/stm32f1xx_hal_adc_ex.c ****         SET_BIT(hadc->Instance->CR2, (ADC_CR2_JSWSTART | ADC_CR2_JEXTTRIG));
 319:Drivers/STM32F1xx_HAL_Driver/Src/stm32f1xx_hal_adc_ex.c ****       }
 320:Drivers/STM32F1xx_HAL_Driver/Src/stm32f1xx_hal_adc_ex.c ****       else
 321:Drivers/STM32F1xx_HAL_Driver/Src/stm32f1xx_hal_adc_ex.c ****       {
 322:Drivers/STM32F1xx_HAL_Driver/Src/stm32f1xx_hal_adc_ex.c ****         /* Start ADC conversion on injected group with external trigger */
 323:Drivers/STM32F1xx_HAL_Driver/Src/stm32f1xx_hal_adc_ex.c ****         SET_BIT(hadc->Instance->CR2, ADC_CR2_JEXTTRIG);
 330              		.loc 1 323 9 is_stmt 1 view .LVU103
 331 0068 9A68     		ldr	r2, [r3, #8]
 332 006a 42F40042 		orr	r2, r2, #32768
 333 006e 9A60     		str	r2, [r3, #8]
 334 0070 1CE0     		b	.L18
 335              	.L31:
 275:Drivers/STM32F1xx_HAL_Driver/Src/stm32f1xx_hal_adc_ex.c ****     {
 336              		.loc 1 275 9 is_stmt 0 discriminator 1 view .LVU104
 337 0072 A3F58063 		sub	r3, r3, #1024
 338 0076 5B68     		ldr	r3, [r3, #4]
 339 0078 13F4702F 		tst	r3, #983040
 340 007c D9D0     		beq	.L20
 281:Drivers/STM32F1xx_HAL_Driver/Src/stm32f1xx_hal_adc_ex.c ****     }
 341              		.loc 1 281 7 is_stmt 1 view .LVU105
 342 007e A36A     		ldr	r3, [r4, #40]
 343 0080 43F48013 		orr	r3, r3, #1048576
 344 0084 A362     		str	r3, [r4, #40]
 345 0086 D8E7     		b	.L22
 346              	.L32:
 314:Drivers/STM32F1xx_HAL_Driver/Src/stm32f1xx_hal_adc_ex.c ****           ADC_NONMULTIMODE_OR_MULTIMODEMASTER(hadc)  )
 347              		.loc 1 314 52 is_stmt 0 discriminator 1 view .LVU106
 348 0088 0A4A     		ldr	r2, .L34
 349 008a 9342     		cmp	r3, r2
 350 008c 04D0     		beq	.L33
 351              	.L25:
 318:Drivers/STM32F1xx_HAL_Driver/Src/stm32f1xx_hal_adc_ex.c ****       }
 352              		.loc 1 318 9 is_stmt 1 view .LVU107
 353 008e 9A68     		ldr	r2, [r3, #8]
 354 0090 42F40212 		orr	r2, r2, #2129920
 355 0094 9A60     		str	r2, [r3, #8]
 356 0096 09E0     		b	.L18
 357              	.L33:
 315:Drivers/STM32F1xx_HAL_Driver/Src/stm32f1xx_hal_adc_ex.c ****       {
 358              		.loc 1 315 11 is_stmt 0 discriminator 2 view .LVU108
 359 0098 A2F58062 		sub	r2, r2, #1024
 360 009c 5268     		ldr	r2, [r2, #4]
 314:Drivers/STM32F1xx_HAL_Driver/Src/stm32f1xx_hal_adc_ex.c ****           ADC_NONMULTIMODE_OR_MULTIMODEMASTER(hadc)  )
 361              		.loc 1 314 52 discriminator 2 view .LVU109
 362 009e 12F4702F 		tst	r2, #983040
ARM GAS  /var/folders/2w/5wbrmvx534s_vk8svtxz852c0000gn/T//cc29HaPQ.s 			page 14


 363 00a2 E1D1     		bne	.L24
 364 00a4 F3E7     		b	.L25
 365              	.L19:
 324:Drivers/STM32F1xx_HAL_Driver/Src/stm32f1xx_hal_adc_ex.c ****       }
 325:Drivers/STM32F1xx_HAL_Driver/Src/stm32f1xx_hal_adc_ex.c ****     }
 326:Drivers/STM32F1xx_HAL_Driver/Src/stm32f1xx_hal_adc_ex.c ****   }
 327:Drivers/STM32F1xx_HAL_Driver/Src/stm32f1xx_hal_adc_ex.c ****   else
 328:Drivers/STM32F1xx_HAL_Driver/Src/stm32f1xx_hal_adc_ex.c ****   {
 329:Drivers/STM32F1xx_HAL_Driver/Src/stm32f1xx_hal_adc_ex.c ****     /* Process unlocked */
 330:Drivers/STM32F1xx_HAL_Driver/Src/stm32f1xx_hal_adc_ex.c ****     __HAL_UNLOCK(hadc);
 366              		.loc 1 330 5 is_stmt 1 view .LVU110
 367              		.loc 1 330 5 view .LVU111
 368 00a6 0023     		movs	r3, #0
 369 00a8 84F82430 		strb	r3, [r4, #36]
 370              	.L18:
 331:Drivers/STM32F1xx_HAL_Driver/Src/stm32f1xx_hal_adc_ex.c ****   }
 332:Drivers/STM32F1xx_HAL_Driver/Src/stm32f1xx_hal_adc_ex.c ****   
 333:Drivers/STM32F1xx_HAL_Driver/Src/stm32f1xx_hal_adc_ex.c ****   /* Return function status */
 334:Drivers/STM32F1xx_HAL_Driver/Src/stm32f1xx_hal_adc_ex.c ****   return tmp_hal_status;
 335:Drivers/STM32F1xx_HAL_Driver/Src/stm32f1xx_hal_adc_ex.c **** }
 371              		.loc 1 335 1 is_stmt 0 view .LVU112
 372 00ac 10BD     		pop	{r4, pc}
 373              	.LVL18:
 374              	.L26:
 375              	.LCFI5:
 376              		.cfi_def_cfa_offset 0
 377              		.cfi_restore 4
 378              		.cfi_restore 14
 258:Drivers/STM32F1xx_HAL_Driver/Src/stm32f1xx_hal_adc_ex.c ****     
 379              		.loc 1 258 3 view .LVU113
 380 00ae 0220     		movs	r0, #2
 381              	.LVL19:
 382              		.loc 1 335 1 view .LVU114
 383 00b0 7047     		bx	lr
 384              	.L35:
 385 00b2 00BF     		.align	2
 386              	.L34:
 387 00b4 00280140 		.word	1073817600
 388              		.cfi_endproc
 389              	.LFE67:
 391              		.section	.text.HAL_ADCEx_InjectedStop,"ax",%progbits
 392              		.align	1
 393              		.global	HAL_ADCEx_InjectedStop
 394              		.syntax unified
 395              		.thumb
 396              		.thumb_func
 398              	HAL_ADCEx_InjectedStop:
 399              	.LVL20:
 400              	.LFB68:
 336:Drivers/STM32F1xx_HAL_Driver/Src/stm32f1xx_hal_adc_ex.c **** 
 337:Drivers/STM32F1xx_HAL_Driver/Src/stm32f1xx_hal_adc_ex.c **** /**
 338:Drivers/STM32F1xx_HAL_Driver/Src/stm32f1xx_hal_adc_ex.c ****   * @brief  Stop conversion of injected channels. Disable ADC peripheral if
 339:Drivers/STM32F1xx_HAL_Driver/Src/stm32f1xx_hal_adc_ex.c ****   *         no regular conversion is on going.
 340:Drivers/STM32F1xx_HAL_Driver/Src/stm32f1xx_hal_adc_ex.c ****   * @note   If ADC must be disabled and if conversion is on going on 
 341:Drivers/STM32F1xx_HAL_Driver/Src/stm32f1xx_hal_adc_ex.c ****   *         regular group, function HAL_ADC_Stop must be used to stop both
 342:Drivers/STM32F1xx_HAL_Driver/Src/stm32f1xx_hal_adc_ex.c ****   *         injected and regular groups, and disable the ADC.
 343:Drivers/STM32F1xx_HAL_Driver/Src/stm32f1xx_hal_adc_ex.c ****   * @note   If injected group mode auto-injection is enabled,
ARM GAS  /var/folders/2w/5wbrmvx534s_vk8svtxz852c0000gn/T//cc29HaPQ.s 			page 15


 344:Drivers/STM32F1xx_HAL_Driver/Src/stm32f1xx_hal_adc_ex.c ****   *         function HAL_ADC_Stop must be used.
 345:Drivers/STM32F1xx_HAL_Driver/Src/stm32f1xx_hal_adc_ex.c ****   * @note   In case of auto-injection mode, HAL_ADC_Stop must be used.
 346:Drivers/STM32F1xx_HAL_Driver/Src/stm32f1xx_hal_adc_ex.c ****   * @param  hadc: ADC handle
 347:Drivers/STM32F1xx_HAL_Driver/Src/stm32f1xx_hal_adc_ex.c ****   * @retval None
 348:Drivers/STM32F1xx_HAL_Driver/Src/stm32f1xx_hal_adc_ex.c ****   */
 349:Drivers/STM32F1xx_HAL_Driver/Src/stm32f1xx_hal_adc_ex.c **** HAL_StatusTypeDef HAL_ADCEx_InjectedStop(ADC_HandleTypeDef* hadc)
 350:Drivers/STM32F1xx_HAL_Driver/Src/stm32f1xx_hal_adc_ex.c **** {
 401              		.loc 1 350 1 is_stmt 1 view -0
 402              		.cfi_startproc
 403              		@ args = 0, pretend = 0, frame = 0
 404              		@ frame_needed = 0, uses_anonymous_args = 0
 351:Drivers/STM32F1xx_HAL_Driver/Src/stm32f1xx_hal_adc_ex.c ****   HAL_StatusTypeDef tmp_hal_status = HAL_OK;
 405              		.loc 1 351 3 view .LVU116
 352:Drivers/STM32F1xx_HAL_Driver/Src/stm32f1xx_hal_adc_ex.c ****   
 353:Drivers/STM32F1xx_HAL_Driver/Src/stm32f1xx_hal_adc_ex.c ****   /* Check the parameters */
 354:Drivers/STM32F1xx_HAL_Driver/Src/stm32f1xx_hal_adc_ex.c ****   assert_param(IS_ADC_ALL_INSTANCE(hadc->Instance));
 406              		.loc 1 354 3 view .LVU117
 355:Drivers/STM32F1xx_HAL_Driver/Src/stm32f1xx_hal_adc_ex.c **** 
 356:Drivers/STM32F1xx_HAL_Driver/Src/stm32f1xx_hal_adc_ex.c ****   /* Process locked */
 357:Drivers/STM32F1xx_HAL_Driver/Src/stm32f1xx_hal_adc_ex.c ****   __HAL_LOCK(hadc);
 407              		.loc 1 357 3 view .LVU118
 408              		.loc 1 357 3 view .LVU119
 409 0000 90F82430 		ldrb	r3, [r0, #36]	@ zero_extendqisi2
 410 0004 012B     		cmp	r3, #1
 411 0006 23D0     		beq	.L40
 350:Drivers/STM32F1xx_HAL_Driver/Src/stm32f1xx_hal_adc_ex.c ****   HAL_StatusTypeDef tmp_hal_status = HAL_OK;
 412              		.loc 1 350 1 is_stmt 0 discriminator 2 view .LVU120
 413 0008 10B5     		push	{r4, lr}
 414              	.LCFI6:
 415              		.cfi_def_cfa_offset 8
 416              		.cfi_offset 4, -8
 417              		.cfi_offset 14, -4
 418 000a 0446     		mov	r4, r0
 419              		.loc 1 357 3 is_stmt 1 discriminator 2 view .LVU121
 420 000c 0123     		movs	r3, #1
 421 000e 80F82430 		strb	r3, [r0, #36]
 422              		.loc 1 357 3 discriminator 2 view .LVU122
 358:Drivers/STM32F1xx_HAL_Driver/Src/stm32f1xx_hal_adc_ex.c ****     
 359:Drivers/STM32F1xx_HAL_Driver/Src/stm32f1xx_hal_adc_ex.c ****   /* Stop potential conversion and disable ADC peripheral                     */
 360:Drivers/STM32F1xx_HAL_Driver/Src/stm32f1xx_hal_adc_ex.c ****   /* Conditioned to:                                                          */
 361:Drivers/STM32F1xx_HAL_Driver/Src/stm32f1xx_hal_adc_ex.c ****   /* - No conversion on the other group (regular group) is intended to        */
 362:Drivers/STM32F1xx_HAL_Driver/Src/stm32f1xx_hal_adc_ex.c ****   /*   continue (injected and regular groups stop conversion and ADC disable  */
 363:Drivers/STM32F1xx_HAL_Driver/Src/stm32f1xx_hal_adc_ex.c ****   /*   are common)                                                            */
 364:Drivers/STM32F1xx_HAL_Driver/Src/stm32f1xx_hal_adc_ex.c ****   /* - In case of auto-injection mode, HAL_ADC_Stop must be used.             */
 365:Drivers/STM32F1xx_HAL_Driver/Src/stm32f1xx_hal_adc_ex.c ****   if(((hadc->State & HAL_ADC_STATE_REG_BUSY) == RESET)  &&
 423              		.loc 1 365 3 discriminator 2 view .LVU123
 424              		.loc 1 365 12 is_stmt 0 discriminator 2 view .LVU124
 425 0012 836A     		ldr	r3, [r0, #40]
 426              		.loc 1 365 5 discriminator 2 view .LVU125
 427 0014 13F4807F 		tst	r3, #256
 428 0018 04D1     		bne	.L38
 366:Drivers/STM32F1xx_HAL_Driver/Src/stm32f1xx_hal_adc_ex.c ****      HAL_IS_BIT_CLR(hadc->Instance->CR1, ADC_CR1_JAUTO)   )
 429              		.loc 1 366 6 discriminator 1 view .LVU126
 430 001a 0368     		ldr	r3, [r0]
 431 001c 5B68     		ldr	r3, [r3, #4]
 365:Drivers/STM32F1xx_HAL_Driver/Src/stm32f1xx_hal_adc_ex.c ****      HAL_IS_BIT_CLR(hadc->Instance->CR1, ADC_CR1_JAUTO)   )
 432              		.loc 1 365 57 discriminator 1 view .LVU127
ARM GAS  /var/folders/2w/5wbrmvx534s_vk8svtxz852c0000gn/T//cc29HaPQ.s 			page 16


 433 001e 13F4806F 		tst	r3, #1024
 434 0022 08D0     		beq	.L45
 435              	.L38:
 367:Drivers/STM32F1xx_HAL_Driver/Src/stm32f1xx_hal_adc_ex.c ****   {
 368:Drivers/STM32F1xx_HAL_Driver/Src/stm32f1xx_hal_adc_ex.c ****     /* Stop potential conversion on going, on regular and injected groups */
 369:Drivers/STM32F1xx_HAL_Driver/Src/stm32f1xx_hal_adc_ex.c ****     /* Disable ADC peripheral */
 370:Drivers/STM32F1xx_HAL_Driver/Src/stm32f1xx_hal_adc_ex.c ****     tmp_hal_status = ADC_ConversionStop_Disable(hadc);
 371:Drivers/STM32F1xx_HAL_Driver/Src/stm32f1xx_hal_adc_ex.c ****     
 372:Drivers/STM32F1xx_HAL_Driver/Src/stm32f1xx_hal_adc_ex.c ****     /* Check if ADC is effectively disabled */
 373:Drivers/STM32F1xx_HAL_Driver/Src/stm32f1xx_hal_adc_ex.c ****     if (tmp_hal_status == HAL_OK)
 374:Drivers/STM32F1xx_HAL_Driver/Src/stm32f1xx_hal_adc_ex.c ****     {
 375:Drivers/STM32F1xx_HAL_Driver/Src/stm32f1xx_hal_adc_ex.c ****       /* Set ADC state */
 376:Drivers/STM32F1xx_HAL_Driver/Src/stm32f1xx_hal_adc_ex.c ****       ADC_STATE_CLR_SET(hadc->State,
 377:Drivers/STM32F1xx_HAL_Driver/Src/stm32f1xx_hal_adc_ex.c ****                         HAL_ADC_STATE_REG_BUSY | HAL_ADC_STATE_INJ_BUSY,
 378:Drivers/STM32F1xx_HAL_Driver/Src/stm32f1xx_hal_adc_ex.c ****                         HAL_ADC_STATE_READY);
 379:Drivers/STM32F1xx_HAL_Driver/Src/stm32f1xx_hal_adc_ex.c ****     }
 380:Drivers/STM32F1xx_HAL_Driver/Src/stm32f1xx_hal_adc_ex.c ****   }
 381:Drivers/STM32F1xx_HAL_Driver/Src/stm32f1xx_hal_adc_ex.c ****   else
 382:Drivers/STM32F1xx_HAL_Driver/Src/stm32f1xx_hal_adc_ex.c ****   {
 383:Drivers/STM32F1xx_HAL_Driver/Src/stm32f1xx_hal_adc_ex.c ****     /* Update ADC state machine to error */
 384:Drivers/STM32F1xx_HAL_Driver/Src/stm32f1xx_hal_adc_ex.c ****     SET_BIT(hadc->State, HAL_ADC_STATE_ERROR_CONFIG);
 436              		.loc 1 384 5 is_stmt 1 view .LVU128
 437 0024 A36A     		ldr	r3, [r4, #40]
 438 0026 43F02003 		orr	r3, r3, #32
 439 002a A362     		str	r3, [r4, #40]
 385:Drivers/STM32F1xx_HAL_Driver/Src/stm32f1xx_hal_adc_ex.c ****       
 386:Drivers/STM32F1xx_HAL_Driver/Src/stm32f1xx_hal_adc_ex.c ****     tmp_hal_status = HAL_ERROR;
 440              		.loc 1 386 5 view .LVU129
 441              	.LVL21:
 442              		.loc 1 386 20 is_stmt 0 view .LVU130
 443 002c 0120     		movs	r0, #1
 444              	.LVL22:
 445              	.L39:
 387:Drivers/STM32F1xx_HAL_Driver/Src/stm32f1xx_hal_adc_ex.c ****   }
 388:Drivers/STM32F1xx_HAL_Driver/Src/stm32f1xx_hal_adc_ex.c ****   
 389:Drivers/STM32F1xx_HAL_Driver/Src/stm32f1xx_hal_adc_ex.c ****   /* Process unlocked */
 390:Drivers/STM32F1xx_HAL_Driver/Src/stm32f1xx_hal_adc_ex.c ****   __HAL_UNLOCK(hadc);
 446              		.loc 1 390 3 is_stmt 1 view .LVU131
 447              		.loc 1 390 3 view .LVU132
 448 002e 0023     		movs	r3, #0
 449 0030 84F82430 		strb	r3, [r4, #36]
 450              		.loc 1 390 3 view .LVU133
 391:Drivers/STM32F1xx_HAL_Driver/Src/stm32f1xx_hal_adc_ex.c ****   
 392:Drivers/STM32F1xx_HAL_Driver/Src/stm32f1xx_hal_adc_ex.c ****   /* Return function status */
 393:Drivers/STM32F1xx_HAL_Driver/Src/stm32f1xx_hal_adc_ex.c ****   return tmp_hal_status;
 451              		.loc 1 393 3 view .LVU134
 394:Drivers/STM32F1xx_HAL_Driver/Src/stm32f1xx_hal_adc_ex.c **** }
 452              		.loc 1 394 1 is_stmt 0 view .LVU135
 453 0034 10BD     		pop	{r4, pc}
 454              	.LVL23:
 455              	.L45:
 370:Drivers/STM32F1xx_HAL_Driver/Src/stm32f1xx_hal_adc_ex.c ****     
 456              		.loc 1 370 5 is_stmt 1 view .LVU136
 370:Drivers/STM32F1xx_HAL_Driver/Src/stm32f1xx_hal_adc_ex.c ****     
 457              		.loc 1 370 22 is_stmt 0 view .LVU137
 458 0036 FFF7FEFF 		bl	ADC_ConversionStop_Disable
 459              	.LVL24:
ARM GAS  /var/folders/2w/5wbrmvx534s_vk8svtxz852c0000gn/T//cc29HaPQ.s 			page 17


 373:Drivers/STM32F1xx_HAL_Driver/Src/stm32f1xx_hal_adc_ex.c ****     {
 460              		.loc 1 373 5 is_stmt 1 view .LVU138
 373:Drivers/STM32F1xx_HAL_Driver/Src/stm32f1xx_hal_adc_ex.c ****     {
 461              		.loc 1 373 8 is_stmt 0 view .LVU139
 462 003a 0028     		cmp	r0, #0
 463 003c F7D1     		bne	.L39
 376:Drivers/STM32F1xx_HAL_Driver/Src/stm32f1xx_hal_adc_ex.c ****                         HAL_ADC_STATE_REG_BUSY | HAL_ADC_STATE_INJ_BUSY,
 464              		.loc 1 376 7 is_stmt 1 view .LVU140
 465 003e A36A     		ldr	r3, [r4, #40]
 466 0040 23F48853 		bic	r3, r3, #4352
 467 0044 23F00103 		bic	r3, r3, #1
 468 0048 43F00103 		orr	r3, r3, #1
 469 004c A362     		str	r3, [r4, #40]
 470 004e EEE7     		b	.L39
 471              	.LVL25:
 472              	.L40:
 473              	.LCFI7:
 474              		.cfi_def_cfa_offset 0
 475              		.cfi_restore 4
 476              		.cfi_restore 14
 357:Drivers/STM32F1xx_HAL_Driver/Src/stm32f1xx_hal_adc_ex.c ****     
 477              		.loc 1 357 3 is_stmt 0 view .LVU141
 478 0050 0220     		movs	r0, #2
 479              	.LVL26:
 480              		.loc 1 394 1 view .LVU142
 481 0052 7047     		bx	lr
 482              		.cfi_endproc
 483              	.LFE68:
 485              		.section	.text.HAL_ADCEx_InjectedPollForConversion,"ax",%progbits
 486              		.align	1
 487              		.global	HAL_ADCEx_InjectedPollForConversion
 488              		.syntax unified
 489              		.thumb
 490              		.thumb_func
 492              	HAL_ADCEx_InjectedPollForConversion:
 493              	.LVL27:
 494              	.LFB69:
 395:Drivers/STM32F1xx_HAL_Driver/Src/stm32f1xx_hal_adc_ex.c **** 
 396:Drivers/STM32F1xx_HAL_Driver/Src/stm32f1xx_hal_adc_ex.c **** /**
 397:Drivers/STM32F1xx_HAL_Driver/Src/stm32f1xx_hal_adc_ex.c ****   * @brief  Wait for injected group conversion to be completed.
 398:Drivers/STM32F1xx_HAL_Driver/Src/stm32f1xx_hal_adc_ex.c ****   * @param  hadc: ADC handle
 399:Drivers/STM32F1xx_HAL_Driver/Src/stm32f1xx_hal_adc_ex.c ****   * @param  Timeout: Timeout value in millisecond.
 400:Drivers/STM32F1xx_HAL_Driver/Src/stm32f1xx_hal_adc_ex.c ****   * @retval HAL status
 401:Drivers/STM32F1xx_HAL_Driver/Src/stm32f1xx_hal_adc_ex.c ****   */
 402:Drivers/STM32F1xx_HAL_Driver/Src/stm32f1xx_hal_adc_ex.c **** HAL_StatusTypeDef HAL_ADCEx_InjectedPollForConversion(ADC_HandleTypeDef* hadc, uint32_t Timeout)
 403:Drivers/STM32F1xx_HAL_Driver/Src/stm32f1xx_hal_adc_ex.c **** {
 495              		.loc 1 403 1 is_stmt 1 view -0
 496              		.cfi_startproc
 497              		@ args = 0, pretend = 0, frame = 8
 498              		@ frame_needed = 0, uses_anonymous_args = 0
 499              		.loc 1 403 1 is_stmt 0 view .LVU144
 500 0000 F0B5     		push	{r4, r5, r6, r7, lr}
 501              	.LCFI8:
 502              		.cfi_def_cfa_offset 20
 503              		.cfi_offset 4, -20
 504              		.cfi_offset 5, -16
 505              		.cfi_offset 6, -12
ARM GAS  /var/folders/2w/5wbrmvx534s_vk8svtxz852c0000gn/T//cc29HaPQ.s 			page 18


 506              		.cfi_offset 7, -8
 507              		.cfi_offset 14, -4
 508 0002 83B0     		sub	sp, sp, #12
 509              	.LCFI9:
 510              		.cfi_def_cfa_offset 32
 511 0004 0546     		mov	r5, r0
 512 0006 0C46     		mov	r4, r1
 404:Drivers/STM32F1xx_HAL_Driver/Src/stm32f1xx_hal_adc_ex.c ****   uint32_t tickstart;
 513              		.loc 1 404 3 is_stmt 1 view .LVU145
 405:Drivers/STM32F1xx_HAL_Driver/Src/stm32f1xx_hal_adc_ex.c **** 
 406:Drivers/STM32F1xx_HAL_Driver/Src/stm32f1xx_hal_adc_ex.c ****   /* Variables for polling in case of scan mode enabled and polling for each  */
 407:Drivers/STM32F1xx_HAL_Driver/Src/stm32f1xx_hal_adc_ex.c ****   /* conversion.                                                              */
 408:Drivers/STM32F1xx_HAL_Driver/Src/stm32f1xx_hal_adc_ex.c ****   __IO uint32_t Conversion_Timeout_CPU_cycles = 0U;
 514              		.loc 1 408 3 view .LVU146
 515              		.loc 1 408 17 is_stmt 0 view .LVU147
 516 0008 0023     		movs	r3, #0
 517 000a 0193     		str	r3, [sp, #4]
 409:Drivers/STM32F1xx_HAL_Driver/Src/stm32f1xx_hal_adc_ex.c ****   uint32_t Conversion_Timeout_CPU_cycles_max = 0U;
 518              		.loc 1 409 3 is_stmt 1 view .LVU148
 519              	.LVL28:
 410:Drivers/STM32F1xx_HAL_Driver/Src/stm32f1xx_hal_adc_ex.c ****   
 411:Drivers/STM32F1xx_HAL_Driver/Src/stm32f1xx_hal_adc_ex.c ****   /* Check the parameters */
 412:Drivers/STM32F1xx_HAL_Driver/Src/stm32f1xx_hal_adc_ex.c ****   assert_param(IS_ADC_ALL_INSTANCE(hadc->Instance));
 520              		.loc 1 412 3 view .LVU149
 413:Drivers/STM32F1xx_HAL_Driver/Src/stm32f1xx_hal_adc_ex.c **** 
 414:Drivers/STM32F1xx_HAL_Driver/Src/stm32f1xx_hal_adc_ex.c ****   /* Get timeout */
 415:Drivers/STM32F1xx_HAL_Driver/Src/stm32f1xx_hal_adc_ex.c ****   tickstart = HAL_GetTick();  
 521              		.loc 1 415 3 view .LVU150
 522              		.loc 1 415 15 is_stmt 0 view .LVU151
 523 000c FFF7FEFF 		bl	HAL_GetTick
 524              	.LVL29:
 525              		.loc 1 415 15 view .LVU152
 526 0010 0646     		mov	r6, r0
 527              	.LVL30:
 416:Drivers/STM32F1xx_HAL_Driver/Src/stm32f1xx_hal_adc_ex.c ****      
 417:Drivers/STM32F1xx_HAL_Driver/Src/stm32f1xx_hal_adc_ex.c ****   /* Polling for end of conversion: differentiation if single/sequence        */
 418:Drivers/STM32F1xx_HAL_Driver/Src/stm32f1xx_hal_adc_ex.c ****   /* conversion.                                                              */
 419:Drivers/STM32F1xx_HAL_Driver/Src/stm32f1xx_hal_adc_ex.c ****   /* For injected group, flag JEOC is set only at the end of the sequence,    */
 420:Drivers/STM32F1xx_HAL_Driver/Src/stm32f1xx_hal_adc_ex.c ****   /* not for each conversion within the sequence.                             */
 421:Drivers/STM32F1xx_HAL_Driver/Src/stm32f1xx_hal_adc_ex.c ****   /*  - If single conversion for injected group (scan mode disabled or        */
 422:Drivers/STM32F1xx_HAL_Driver/Src/stm32f1xx_hal_adc_ex.c ****   /*    InjectedNbrOfConversion ==1), flag JEOC is used to determine the      */
 423:Drivers/STM32F1xx_HAL_Driver/Src/stm32f1xx_hal_adc_ex.c ****   /*    conversion completion.                                                */
 424:Drivers/STM32F1xx_HAL_Driver/Src/stm32f1xx_hal_adc_ex.c ****   /*  - If sequence conversion for injected group (scan mode enabled and      */
 425:Drivers/STM32F1xx_HAL_Driver/Src/stm32f1xx_hal_adc_ex.c ****   /*    InjectedNbrOfConversion >=2), flag JEOC is set only at the end of the */
 426:Drivers/STM32F1xx_HAL_Driver/Src/stm32f1xx_hal_adc_ex.c ****   /*    sequence.                                                             */
 427:Drivers/STM32F1xx_HAL_Driver/Src/stm32f1xx_hal_adc_ex.c ****   /*    To poll for each conversion, the maximum conversion time is computed  */
 428:Drivers/STM32F1xx_HAL_Driver/Src/stm32f1xx_hal_adc_ex.c ****   /*    from ADC conversion time (selected sampling time + conversion time of */
 429:Drivers/STM32F1xx_HAL_Driver/Src/stm32f1xx_hal_adc_ex.c ****   /*    12.5 ADC clock cycles) and APB2/ADC clock prescalers (depending on    */
 430:Drivers/STM32F1xx_HAL_Driver/Src/stm32f1xx_hal_adc_ex.c ****   /*    settings, conversion time range can be from 28 to 32256 CPU cycles).  */
 431:Drivers/STM32F1xx_HAL_Driver/Src/stm32f1xx_hal_adc_ex.c ****   /*    As flag JEOC is not set after each conversion, no timeout status can  */
 432:Drivers/STM32F1xx_HAL_Driver/Src/stm32f1xx_hal_adc_ex.c ****   /*    be set.                                                               */
 433:Drivers/STM32F1xx_HAL_Driver/Src/stm32f1xx_hal_adc_ex.c ****   if ((hadc->Instance->JSQR & ADC_JSQR_JL) == RESET)
 528              		.loc 1 433 3 is_stmt 1 view .LVU153
 529              		.loc 1 433 12 is_stmt 0 view .LVU154
 530 0012 2B68     		ldr	r3, [r5]
 531              		.loc 1 433 22 view .LVU155
 532 0014 9B6B     		ldr	r3, [r3, #56]
ARM GAS  /var/folders/2w/5wbrmvx534s_vk8svtxz852c0000gn/T//cc29HaPQ.s 			page 19


 533              		.loc 1 433 6 view .LVU156
 534 0016 13F4401F 		tst	r3, #3145728
 535 001a 16D1     		bne	.L73
 536              	.LVL31:
 537              	.L49:
 434:Drivers/STM32F1xx_HAL_Driver/Src/stm32f1xx_hal_adc_ex.c ****   {
 435:Drivers/STM32F1xx_HAL_Driver/Src/stm32f1xx_hal_adc_ex.c ****     /* Wait until End of Conversion flag is raised */
 436:Drivers/STM32F1xx_HAL_Driver/Src/stm32f1xx_hal_adc_ex.c ****     while(HAL_IS_BIT_CLR(hadc->Instance->SR, ADC_FLAG_JEOC))
 538              		.loc 1 436 10 is_stmt 1 view .LVU157
 539              		.loc 1 436 11 is_stmt 0 view .LVU158
 540 001c 2B68     		ldr	r3, [r5]
 541 001e 1B68     		ldr	r3, [r3]
 542              		.loc 1 436 10 view .LVU159
 543 0020 13F0040F 		tst	r3, #4
 544 0024 63D1     		bne	.L53
 437:Drivers/STM32F1xx_HAL_Driver/Src/stm32f1xx_hal_adc_ex.c ****     {
 438:Drivers/STM32F1xx_HAL_Driver/Src/stm32f1xx_hal_adc_ex.c ****       /* Check if timeout is disabled (set to infinite wait) */
 439:Drivers/STM32F1xx_HAL_Driver/Src/stm32f1xx_hal_adc_ex.c ****       if(Timeout != HAL_MAX_DELAY)
 545              		.loc 1 439 7 is_stmt 1 view .LVU160
 546              		.loc 1 439 9 is_stmt 0 view .LVU161
 547 0026 B4F1FF3F 		cmp	r4, #-1
 548 002a F7D0     		beq	.L49
 440:Drivers/STM32F1xx_HAL_Driver/Src/stm32f1xx_hal_adc_ex.c ****       {
 441:Drivers/STM32F1xx_HAL_Driver/Src/stm32f1xx_hal_adc_ex.c ****         if((Timeout == 0U) || ((HAL_GetTick() - tickstart ) > Timeout))
 549              		.loc 1 441 9 is_stmt 1 view .LVU162
 550              		.loc 1 441 11 is_stmt 0 view .LVU163
 551 002c 24B1     		cbz	r4, .L50
 552              		.loc 1 441 33 discriminator 1 view .LVU164
 553 002e FFF7FEFF 		bl	HAL_GetTick
 554              	.LVL32:
 555              		.loc 1 441 47 discriminator 1 view .LVU165
 556 0032 801B     		subs	r0, r0, r6
 557              		.loc 1 441 28 discriminator 1 view .LVU166
 558 0034 A042     		cmp	r0, r4
 559 0036 F1D9     		bls	.L49
 560              	.L50:
 442:Drivers/STM32F1xx_HAL_Driver/Src/stm32f1xx_hal_adc_ex.c ****         {
 443:Drivers/STM32F1xx_HAL_Driver/Src/stm32f1xx_hal_adc_ex.c ****           /* Update ADC state machine to timeout */
 444:Drivers/STM32F1xx_HAL_Driver/Src/stm32f1xx_hal_adc_ex.c ****           SET_BIT(hadc->State, HAL_ADC_STATE_TIMEOUT);
 561              		.loc 1 444 11 is_stmt 1 view .LVU167
 562 0038 AB6A     		ldr	r3, [r5, #40]
 563 003a 43F00403 		orr	r3, r3, #4
 564 003e AB62     		str	r3, [r5, #40]
 445:Drivers/STM32F1xx_HAL_Driver/Src/stm32f1xx_hal_adc_ex.c ****           
 446:Drivers/STM32F1xx_HAL_Driver/Src/stm32f1xx_hal_adc_ex.c ****           /* Process unlocked */
 447:Drivers/STM32F1xx_HAL_Driver/Src/stm32f1xx_hal_adc_ex.c ****           __HAL_UNLOCK(hadc);
 565              		.loc 1 447 11 view .LVU168
 566              		.loc 1 447 11 view .LVU169
 567 0040 0023     		movs	r3, #0
 568 0042 85F82430 		strb	r3, [r5, #36]
 569              		.loc 1 447 11 view .LVU170
 448:Drivers/STM32F1xx_HAL_Driver/Src/stm32f1xx_hal_adc_ex.c ****           
 449:Drivers/STM32F1xx_HAL_Driver/Src/stm32f1xx_hal_adc_ex.c ****           return HAL_TIMEOUT;
 570              		.loc 1 449 11 view .LVU171
 571              		.loc 1 449 18 is_stmt 0 view .LVU172
 572 0046 0320     		movs	r0, #3
 573 0048 7DE0     		b	.L51
ARM GAS  /var/folders/2w/5wbrmvx534s_vk8svtxz852c0000gn/T//cc29HaPQ.s 			page 20


 574              	.LVL33:
 575              	.L73:
 450:Drivers/STM32F1xx_HAL_Driver/Src/stm32f1xx_hal_adc_ex.c ****         }
 451:Drivers/STM32F1xx_HAL_Driver/Src/stm32f1xx_hal_adc_ex.c ****       }
 452:Drivers/STM32F1xx_HAL_Driver/Src/stm32f1xx_hal_adc_ex.c ****     }
 453:Drivers/STM32F1xx_HAL_Driver/Src/stm32f1xx_hal_adc_ex.c ****   }
 454:Drivers/STM32F1xx_HAL_Driver/Src/stm32f1xx_hal_adc_ex.c ****   else
 455:Drivers/STM32F1xx_HAL_Driver/Src/stm32f1xx_hal_adc_ex.c ****   {
 456:Drivers/STM32F1xx_HAL_Driver/Src/stm32f1xx_hal_adc_ex.c ****     /* Replace polling by wait for maximum conversion time */
 457:Drivers/STM32F1xx_HAL_Driver/Src/stm32f1xx_hal_adc_ex.c ****     /*  - Computation of CPU clock cycles corresponding to ADC clock cycles   */
 458:Drivers/STM32F1xx_HAL_Driver/Src/stm32f1xx_hal_adc_ex.c ****     /*    and ADC maximum conversion cycles on all channels.                  */
 459:Drivers/STM32F1xx_HAL_Driver/Src/stm32f1xx_hal_adc_ex.c ****     /*  - Wait for the expected ADC clock cycles delay                        */
 460:Drivers/STM32F1xx_HAL_Driver/Src/stm32f1xx_hal_adc_ex.c ****     Conversion_Timeout_CPU_cycles_max = ((SystemCoreClock
 576              		.loc 1 460 5 is_stmt 1 view .LVU173
 461:Drivers/STM32F1xx_HAL_Driver/Src/stm32f1xx_hal_adc_ex.c ****                                           / HAL_RCCEx_GetPeriphCLKFreq(RCC_PERIPHCLK_ADC))
 577              		.loc 1 461 43 is_stmt 0 view .LVU174
 578 004a 424B     		ldr	r3, .L75
 579 004c 1F68     		ldr	r7, [r3]
 580              		.loc 1 461 45 view .LVU175
 581 004e 0220     		movs	r0, #2
 582              	.LVL34:
 583              		.loc 1 461 45 view .LVU176
 584 0050 FFF7FEFF 		bl	HAL_RCCEx_GetPeriphCLKFreq
 585              	.LVL35:
 586              		.loc 1 461 43 view .LVU177
 587 0054 B7FBF0F7 		udiv	r7, r7, r0
 462:Drivers/STM32F1xx_HAL_Driver/Src/stm32f1xx_hal_adc_ex.c ****                                          * ADC_CONVCYCLES_MAX_RANGE(hadc)                 );
 588              		.loc 1 462 44 view .LVU178
 589 0058 2B68     		ldr	r3, [r5]
 590 005a 1969     		ldr	r1, [r3, #16]
 591 005c 3E4A     		ldr	r2, .L75+4
 592 005e 1142     		tst	r1, r2
 593 0060 0ED1     		bne	.L54
 594              		.loc 1 462 44 discriminator 1 view .LVU179
 595 0062 D968     		ldr	r1, [r3, #12]
 596 0064 02F15C42 		add	r2, r2, #-603979776
 597 0068 1142     		tst	r1, r2
 598 006a 09D1     		bne	.L54
 599              		.loc 1 462 44 discriminator 3 view .LVU180
 600 006c 1969     		ldr	r1, [r3, #16]
 601 006e 3B4A     		ldr	r2, .L75+8
 602 0070 1142     		tst	r1, r2
 603 0072 18D1     		bne	.L62
 604              		.loc 1 462 44 discriminator 5 view .LVU181
 605 0074 DA68     		ldr	r2, [r3, #12]
 606 0076 3A4B     		ldr	r3, .L75+12
 607 0078 1A42     		tst	r2, r3
 608 007a 16D0     		beq	.L63
 609              		.loc 1 462 44 view .LVU182
 610 007c 2923     		movs	r3, #41
 611 007e 19E0     		b	.L55
 612              	.L54:
 613              		.loc 1 462 44 discriminator 4 view .LVU183
 614 0080 1969     		ldr	r1, [r3, #16]
 615 0082 364A     		ldr	r2, .L75+8
 616 0084 1142     		tst	r1, r2
 617 0086 04D1     		bne	.L56
ARM GAS  /var/folders/2w/5wbrmvx534s_vk8svtxz852c0000gn/T//cc29HaPQ.s 			page 21


 618              		.loc 1 462 44 discriminator 11 view .LVU184
 619 0088 D968     		ldr	r1, [r3, #12]
 620 008a 02F16E42 		add	r2, r2, #-301989888
 621 008e 1142     		tst	r1, r2
 622 0090 0DD0     		beq	.L64
 623              	.L56:
 624              		.loc 1 462 44 discriminator 14 view .LVU185
 625 0092 1969     		ldr	r1, [r3, #16]
 626 0094 334A     		ldr	r2, .L75+16
 627 0096 0A40     		ands	r2, r2, r1
 628 0098 5AB9     		cbnz	r2, .L65
 629              		.loc 1 462 44 discriminator 15 view .LVU186
 630 009a DA68     		ldr	r2, [r3, #12]
 631 009c 314B     		ldr	r3, .L75+16
 632 009e 1340     		ands	r3, r3, r2
 633 00a0 5BB1     		cbz	r3, .L66
 634              		.loc 1 462 44 view .LVU187
 635 00a2 FC23     		movs	r3, #252
 636 00a4 06E0     		b	.L55
 637              	.L62:
 638 00a6 2923     		movs	r3, #41
 639 00a8 04E0     		b	.L55
 640              	.L63:
 641 00aa 1423     		movs	r3, #20
 642 00ac 02E0     		b	.L55
 643              	.L64:
 644 00ae 5423     		movs	r3, #84
 645 00b0 00E0     		b	.L55
 646              	.L65:
 647 00b2 FC23     		movs	r3, #252
 648              	.L55:
 460:Drivers/STM32F1xx_HAL_Driver/Src/stm32f1xx_hal_adc_ex.c ****                                           / HAL_RCCEx_GetPeriphCLKFreq(RCC_PERIPHCLK_ADC))
 649              		.loc 1 460 39 view .LVU188
 650 00b4 03FB07F7 		mul	r7, r3, r7
 651              	.LVL36:
 463:Drivers/STM32F1xx_HAL_Driver/Src/stm32f1xx_hal_adc_ex.c ****     
 464:Drivers/STM32F1xx_HAL_Driver/Src/stm32f1xx_hal_adc_ex.c ****     while(Conversion_Timeout_CPU_cycles < Conversion_Timeout_CPU_cycles_max)
 652              		.loc 1 464 5 is_stmt 1 view .LVU189
 653              		.loc 1 464 10 is_stmt 0 view .LVU190
 654 00b8 04E0     		b	.L57
 655              	.LVL37:
 656              	.L66:
 462:Drivers/STM32F1xx_HAL_Driver/Src/stm32f1xx_hal_adc_ex.c ****     
 657              		.loc 1 462 44 view .LVU191
 658 00ba 5423     		movs	r3, #84
 659 00bc FAE7     		b	.L55
 660              	.LVL38:
 661              	.L58:
 465:Drivers/STM32F1xx_HAL_Driver/Src/stm32f1xx_hal_adc_ex.c ****     {
 466:Drivers/STM32F1xx_HAL_Driver/Src/stm32f1xx_hal_adc_ex.c ****       /* Check if timeout is disabled (set to infinite wait) */
 467:Drivers/STM32F1xx_HAL_Driver/Src/stm32f1xx_hal_adc_ex.c ****       if(Timeout != HAL_MAX_DELAY)
 468:Drivers/STM32F1xx_HAL_Driver/Src/stm32f1xx_hal_adc_ex.c ****       {
 469:Drivers/STM32F1xx_HAL_Driver/Src/stm32f1xx_hal_adc_ex.c ****         if((Timeout == 0)||((HAL_GetTick() - tickstart ) > Timeout))
 470:Drivers/STM32F1xx_HAL_Driver/Src/stm32f1xx_hal_adc_ex.c ****         {
 471:Drivers/STM32F1xx_HAL_Driver/Src/stm32f1xx_hal_adc_ex.c ****           /* Update ADC state machine to timeout */
 472:Drivers/STM32F1xx_HAL_Driver/Src/stm32f1xx_hal_adc_ex.c ****           SET_BIT(hadc->State, HAL_ADC_STATE_TIMEOUT);
 473:Drivers/STM32F1xx_HAL_Driver/Src/stm32f1xx_hal_adc_ex.c **** 
ARM GAS  /var/folders/2w/5wbrmvx534s_vk8svtxz852c0000gn/T//cc29HaPQ.s 			page 22


 474:Drivers/STM32F1xx_HAL_Driver/Src/stm32f1xx_hal_adc_ex.c ****           /* Process unlocked */
 475:Drivers/STM32F1xx_HAL_Driver/Src/stm32f1xx_hal_adc_ex.c ****           __HAL_UNLOCK(hadc);
 476:Drivers/STM32F1xx_HAL_Driver/Src/stm32f1xx_hal_adc_ex.c ****           
 477:Drivers/STM32F1xx_HAL_Driver/Src/stm32f1xx_hal_adc_ex.c ****           return HAL_TIMEOUT;
 478:Drivers/STM32F1xx_HAL_Driver/Src/stm32f1xx_hal_adc_ex.c ****         }
 479:Drivers/STM32F1xx_HAL_Driver/Src/stm32f1xx_hal_adc_ex.c ****       }
 480:Drivers/STM32F1xx_HAL_Driver/Src/stm32f1xx_hal_adc_ex.c ****       Conversion_Timeout_CPU_cycles ++;
 662              		.loc 1 480 7 is_stmt 1 view .LVU192
 663              		.loc 1 480 37 is_stmt 0 view .LVU193
 664 00be 019B     		ldr	r3, [sp, #4]
 665 00c0 0133     		adds	r3, r3, #1
 666 00c2 0193     		str	r3, [sp, #4]
 667              	.L57:
 464:Drivers/STM32F1xx_HAL_Driver/Src/stm32f1xx_hal_adc_ex.c ****     {
 668              		.loc 1 464 10 is_stmt 1 view .LVU194
 464:Drivers/STM32F1xx_HAL_Driver/Src/stm32f1xx_hal_adc_ex.c ****     {
 669              		.loc 1 464 41 is_stmt 0 view .LVU195
 670 00c4 019B     		ldr	r3, [sp, #4]
 464:Drivers/STM32F1xx_HAL_Driver/Src/stm32f1xx_hal_adc_ex.c ****     {
 671              		.loc 1 464 10 view .LVU196
 672 00c6 BB42     		cmp	r3, r7
 673 00c8 11D2     		bcs	.L53
 467:Drivers/STM32F1xx_HAL_Driver/Src/stm32f1xx_hal_adc_ex.c ****       {
 674              		.loc 1 467 7 is_stmt 1 view .LVU197
 467:Drivers/STM32F1xx_HAL_Driver/Src/stm32f1xx_hal_adc_ex.c ****       {
 675              		.loc 1 467 9 is_stmt 0 view .LVU198
 676 00ca B4F1FF3F 		cmp	r4, #-1
 677 00ce F6D0     		beq	.L58
 469:Drivers/STM32F1xx_HAL_Driver/Src/stm32f1xx_hal_adc_ex.c ****         {
 678              		.loc 1 469 9 is_stmt 1 view .LVU199
 469:Drivers/STM32F1xx_HAL_Driver/Src/stm32f1xx_hal_adc_ex.c ****         {
 679              		.loc 1 469 11 is_stmt 0 view .LVU200
 680 00d0 24B1     		cbz	r4, .L59
 469:Drivers/STM32F1xx_HAL_Driver/Src/stm32f1xx_hal_adc_ex.c ****         {
 681              		.loc 1 469 30 discriminator 1 view .LVU201
 682 00d2 FFF7FEFF 		bl	HAL_GetTick
 683              	.LVL39:
 469:Drivers/STM32F1xx_HAL_Driver/Src/stm32f1xx_hal_adc_ex.c ****         {
 684              		.loc 1 469 44 discriminator 1 view .LVU202
 685 00d6 831B     		subs	r3, r0, r6
 469:Drivers/STM32F1xx_HAL_Driver/Src/stm32f1xx_hal_adc_ex.c ****         {
 686              		.loc 1 469 26 discriminator 1 view .LVU203
 687 00d8 A342     		cmp	r3, r4
 688 00da F0D9     		bls	.L58
 689              	.L59:
 472:Drivers/STM32F1xx_HAL_Driver/Src/stm32f1xx_hal_adc_ex.c **** 
 690              		.loc 1 472 11 is_stmt 1 view .LVU204
 691 00dc AB6A     		ldr	r3, [r5, #40]
 692 00de 43F00403 		orr	r3, r3, #4
 693 00e2 AB62     		str	r3, [r5, #40]
 475:Drivers/STM32F1xx_HAL_Driver/Src/stm32f1xx_hal_adc_ex.c ****           
 694              		.loc 1 475 11 view .LVU205
 475:Drivers/STM32F1xx_HAL_Driver/Src/stm32f1xx_hal_adc_ex.c ****           
 695              		.loc 1 475 11 view .LVU206
 696 00e4 0023     		movs	r3, #0
 697 00e6 85F82430 		strb	r3, [r5, #36]
 475:Drivers/STM32F1xx_HAL_Driver/Src/stm32f1xx_hal_adc_ex.c ****           
ARM GAS  /var/folders/2w/5wbrmvx534s_vk8svtxz852c0000gn/T//cc29HaPQ.s 			page 23


 698              		.loc 1 475 11 view .LVU207
 477:Drivers/STM32F1xx_HAL_Driver/Src/stm32f1xx_hal_adc_ex.c ****         }
 699              		.loc 1 477 11 view .LVU208
 477:Drivers/STM32F1xx_HAL_Driver/Src/stm32f1xx_hal_adc_ex.c ****         }
 700              		.loc 1 477 18 is_stmt 0 view .LVU209
 701 00ea 0320     		movs	r0, #3
 702 00ec 2BE0     		b	.L51
 703              	.LVL40:
 704              	.L53:
 481:Drivers/STM32F1xx_HAL_Driver/Src/stm32f1xx_hal_adc_ex.c ****     }
 482:Drivers/STM32F1xx_HAL_Driver/Src/stm32f1xx_hal_adc_ex.c ****   }
 483:Drivers/STM32F1xx_HAL_Driver/Src/stm32f1xx_hal_adc_ex.c **** 
 484:Drivers/STM32F1xx_HAL_Driver/Src/stm32f1xx_hal_adc_ex.c ****   /* Clear injected group conversion flag */
 485:Drivers/STM32F1xx_HAL_Driver/Src/stm32f1xx_hal_adc_ex.c ****   /* Note: On STM32F1 ADC, clear regular conversion flag raised               */
 486:Drivers/STM32F1xx_HAL_Driver/Src/stm32f1xx_hal_adc_ex.c ****   /* simultaneously.                                                          */
 487:Drivers/STM32F1xx_HAL_Driver/Src/stm32f1xx_hal_adc_ex.c ****   __HAL_ADC_CLEAR_FLAG(hadc, ADC_FLAG_JSTRT | ADC_FLAG_JEOC | ADC_FLAG_EOC);
 705              		.loc 1 487 3 is_stmt 1 view .LVU210
 706 00ee 2B68     		ldr	r3, [r5]
 707 00f0 6FF00E02 		mvn	r2, #14
 708 00f4 1A60     		str	r2, [r3]
 488:Drivers/STM32F1xx_HAL_Driver/Src/stm32f1xx_hal_adc_ex.c ****   
 489:Drivers/STM32F1xx_HAL_Driver/Src/stm32f1xx_hal_adc_ex.c ****   /* Update ADC state machine */
 490:Drivers/STM32F1xx_HAL_Driver/Src/stm32f1xx_hal_adc_ex.c ****   SET_BIT(hadc->State, HAL_ADC_STATE_INJ_EOC);
 709              		.loc 1 490 3 view .LVU211
 710 00f6 AB6A     		ldr	r3, [r5, #40]
 711 00f8 43F40053 		orr	r3, r3, #8192
 712 00fc AB62     		str	r3, [r5, #40]
 491:Drivers/STM32F1xx_HAL_Driver/Src/stm32f1xx_hal_adc_ex.c ****   
 492:Drivers/STM32F1xx_HAL_Driver/Src/stm32f1xx_hal_adc_ex.c ****   /* Determine whether any further conversion upcoming on group injected      */
 493:Drivers/STM32F1xx_HAL_Driver/Src/stm32f1xx_hal_adc_ex.c ****   /* by external trigger or by automatic injected conversion                  */
 494:Drivers/STM32F1xx_HAL_Driver/Src/stm32f1xx_hal_adc_ex.c ****   /* from group regular.                                                      */
 495:Drivers/STM32F1xx_HAL_Driver/Src/stm32f1xx_hal_adc_ex.c ****   if(ADC_IS_SOFTWARE_START_INJECTED(hadc)                     || 
 713              		.loc 1 495 3 view .LVU212
 714              		.loc 1 495 6 is_stmt 0 view .LVU213
 715 00fe 2A68     		ldr	r2, [r5]
 716 0100 9368     		ldr	r3, [r2, #8]
 717 0102 03F4E043 		and	r3, r3, #28672
 718              		.loc 1 495 5 view .LVU214
 719 0106 B3F5E04F 		cmp	r3, #28672
 720 010a 0DD0     		beq	.L61
 496:Drivers/STM32F1xx_HAL_Driver/Src/stm32f1xx_hal_adc_ex.c ****      (HAL_IS_BIT_CLR(hadc->Instance->CR1, ADC_CR1_JAUTO) &&     
 721              		.loc 1 496 7 discriminator 1 view .LVU215
 722 010c 5368     		ldr	r3, [r2, #4]
 495:Drivers/STM32F1xx_HAL_Driver/Src/stm32f1xx_hal_adc_ex.c ****      (HAL_IS_BIT_CLR(hadc->Instance->CR1, ADC_CR1_JAUTO) &&     
 723              		.loc 1 495 63 discriminator 1 view .LVU216
 724 010e 13F4806F 		tst	r3, #1024
 725 0112 17D1     		bne	.L67
 497:Drivers/STM32F1xx_HAL_Driver/Src/stm32f1xx_hal_adc_ex.c ****      (ADC_IS_SOFTWARE_START_REGULAR(hadc)        &&
 726              		.loc 1 497 7 view .LVU217
 727 0114 9368     		ldr	r3, [r2, #8]
 728 0116 03F46023 		and	r3, r3, #917504
 496:Drivers/STM32F1xx_HAL_Driver/Src/stm32f1xx_hal_adc_ex.c ****      (HAL_IS_BIT_CLR(hadc->Instance->CR1, ADC_CR1_JAUTO) &&     
 729              		.loc 1 496 58 view .LVU218
 730 011a B3F5602F 		cmp	r3, #917504
 731 011e 01D0     		beq	.L74
 498:Drivers/STM32F1xx_HAL_Driver/Src/stm32f1xx_hal_adc_ex.c ****       (hadc->Init.ContinuousConvMode == DISABLE)   )        )   )
 499:Drivers/STM32F1xx_HAL_Driver/Src/stm32f1xx_hal_adc_ex.c ****   {
ARM GAS  /var/folders/2w/5wbrmvx534s_vk8svtxz852c0000gn/T//cc29HaPQ.s 			page 24


 500:Drivers/STM32F1xx_HAL_Driver/Src/stm32f1xx_hal_adc_ex.c ****     /* Set ADC state */
 501:Drivers/STM32F1xx_HAL_Driver/Src/stm32f1xx_hal_adc_ex.c ****     CLEAR_BIT(hadc->State, HAL_ADC_STATE_INJ_BUSY);   
 502:Drivers/STM32F1xx_HAL_Driver/Src/stm32f1xx_hal_adc_ex.c ****     
 503:Drivers/STM32F1xx_HAL_Driver/Src/stm32f1xx_hal_adc_ex.c ****     if (HAL_IS_BIT_CLR(hadc->State, HAL_ADC_STATE_REG_BUSY))
 504:Drivers/STM32F1xx_HAL_Driver/Src/stm32f1xx_hal_adc_ex.c ****     {
 505:Drivers/STM32F1xx_HAL_Driver/Src/stm32f1xx_hal_adc_ex.c ****       SET_BIT(hadc->State, HAL_ADC_STATE_READY);
 506:Drivers/STM32F1xx_HAL_Driver/Src/stm32f1xx_hal_adc_ex.c ****     }
 507:Drivers/STM32F1xx_HAL_Driver/Src/stm32f1xx_hal_adc_ex.c ****   }
 508:Drivers/STM32F1xx_HAL_Driver/Src/stm32f1xx_hal_adc_ex.c ****   
 509:Drivers/STM32F1xx_HAL_Driver/Src/stm32f1xx_hal_adc_ex.c ****   /* Return ADC state */
 510:Drivers/STM32F1xx_HAL_Driver/Src/stm32f1xx_hal_adc_ex.c ****   return HAL_OK;
 732              		.loc 1 510 10 view .LVU219
 733 0120 0020     		movs	r0, #0
 734 0122 10E0     		b	.L51
 735              	.L74:
 498:Drivers/STM32F1xx_HAL_Driver/Src/stm32f1xx_hal_adc_ex.c ****       (hadc->Init.ContinuousConvMode == DISABLE)   )        )   )
 736              		.loc 1 498 18 view .LVU220
 737 0124 EB68     		ldr	r3, [r5, #12]
 497:Drivers/STM32F1xx_HAL_Driver/Src/stm32f1xx_hal_adc_ex.c ****      (ADC_IS_SOFTWARE_START_REGULAR(hadc)        &&
 738              		.loc 1 497 50 view .LVU221
 739 0126 83B9     		cbnz	r3, .L69
 740              	.L61:
 501:Drivers/STM32F1xx_HAL_Driver/Src/stm32f1xx_hal_adc_ex.c ****     
 741              		.loc 1 501 5 is_stmt 1 view .LVU222
 742 0128 AB6A     		ldr	r3, [r5, #40]
 743 012a 23F48053 		bic	r3, r3, #4096
 744 012e AB62     		str	r3, [r5, #40]
 503:Drivers/STM32F1xx_HAL_Driver/Src/stm32f1xx_hal_adc_ex.c ****     {
 745              		.loc 1 503 5 view .LVU223
 503:Drivers/STM32F1xx_HAL_Driver/Src/stm32f1xx_hal_adc_ex.c ****     {
 746              		.loc 1 503 9 is_stmt 0 view .LVU224
 747 0130 AB6A     		ldr	r3, [r5, #40]
 503:Drivers/STM32F1xx_HAL_Driver/Src/stm32f1xx_hal_adc_ex.c ****     {
 748              		.loc 1 503 8 view .LVU225
 749 0132 13F4807F 		tst	r3, #256
 750 0136 0AD1     		bne	.L70
 505:Drivers/STM32F1xx_HAL_Driver/Src/stm32f1xx_hal_adc_ex.c ****     }
 751              		.loc 1 505 7 is_stmt 1 view .LVU226
 752 0138 AB6A     		ldr	r3, [r5, #40]
 753 013a 43F00103 		orr	r3, r3, #1
 754 013e AB62     		str	r3, [r5, #40]
 755              		.loc 1 510 10 is_stmt 0 view .LVU227
 756 0140 0020     		movs	r0, #0
 757 0142 00E0     		b	.L51
 758              	.L67:
 759              		.loc 1 510 10 view .LVU228
 760 0144 0020     		movs	r0, #0
 761              	.L51:
 511:Drivers/STM32F1xx_HAL_Driver/Src/stm32f1xx_hal_adc_ex.c **** }
 762              		.loc 1 511 1 view .LVU229
 763 0146 03B0     		add	sp, sp, #12
 764              	.LCFI10:
 765              		.cfi_remember_state
 766              		.cfi_def_cfa_offset 20
 767              		@ sp needed
 768 0148 F0BD     		pop	{r4, r5, r6, r7, pc}
 769              	.LVL41:
ARM GAS  /var/folders/2w/5wbrmvx534s_vk8svtxz852c0000gn/T//cc29HaPQ.s 			page 25


 770              	.L69:
 771              	.LCFI11:
 772              		.cfi_restore_state
 510:Drivers/STM32F1xx_HAL_Driver/Src/stm32f1xx_hal_adc_ex.c **** }
 773              		.loc 1 510 10 view .LVU230
 774 014a 0020     		movs	r0, #0
 775 014c FBE7     		b	.L51
 776              	.L70:
 510:Drivers/STM32F1xx_HAL_Driver/Src/stm32f1xx_hal_adc_ex.c **** }
 777              		.loc 1 510 10 view .LVU231
 778 014e 0020     		movs	r0, #0
 779 0150 F9E7     		b	.L51
 780              	.L76:
 781 0152 00BF     		.align	2
 782              	.L75:
 783 0154 00000000 		.word	SystemCoreClock
 784 0158 24499224 		.word	613566756
 785 015c 92244912 		.word	306783378
 786 0160 92244900 		.word	4793490
 787 0164 49922400 		.word	2396745
 788              		.cfi_endproc
 789              	.LFE69:
 791              		.section	.text.HAL_ADCEx_InjectedStart_IT,"ax",%progbits
 792              		.align	1
 793              		.global	HAL_ADCEx_InjectedStart_IT
 794              		.syntax unified
 795              		.thumb
 796              		.thumb_func
 798              	HAL_ADCEx_InjectedStart_IT:
 799              	.LVL42:
 800              	.LFB70:
 512:Drivers/STM32F1xx_HAL_Driver/Src/stm32f1xx_hal_adc_ex.c **** 
 513:Drivers/STM32F1xx_HAL_Driver/Src/stm32f1xx_hal_adc_ex.c **** /**
 514:Drivers/STM32F1xx_HAL_Driver/Src/stm32f1xx_hal_adc_ex.c ****   * @brief  Enables ADC, starts conversion of injected group with interruption.
 515:Drivers/STM32F1xx_HAL_Driver/Src/stm32f1xx_hal_adc_ex.c ****   *          - JEOC (end of conversion of injected group)
 516:Drivers/STM32F1xx_HAL_Driver/Src/stm32f1xx_hal_adc_ex.c ****   *         Each of these interruptions has its dedicated callback function.
 517:Drivers/STM32F1xx_HAL_Driver/Src/stm32f1xx_hal_adc_ex.c ****   * @param  hadc: ADC handle
 518:Drivers/STM32F1xx_HAL_Driver/Src/stm32f1xx_hal_adc_ex.c ****   * @retval HAL status.
 519:Drivers/STM32F1xx_HAL_Driver/Src/stm32f1xx_hal_adc_ex.c ****   */
 520:Drivers/STM32F1xx_HAL_Driver/Src/stm32f1xx_hal_adc_ex.c **** HAL_StatusTypeDef HAL_ADCEx_InjectedStart_IT(ADC_HandleTypeDef* hadc)
 521:Drivers/STM32F1xx_HAL_Driver/Src/stm32f1xx_hal_adc_ex.c **** {
 801              		.loc 1 521 1 is_stmt 1 view -0
 802              		.cfi_startproc
 803              		@ args = 0, pretend = 0, frame = 0
 804              		@ frame_needed = 0, uses_anonymous_args = 0
 522:Drivers/STM32F1xx_HAL_Driver/Src/stm32f1xx_hal_adc_ex.c ****   HAL_StatusTypeDef tmp_hal_status = HAL_OK;
 805              		.loc 1 522 3 view .LVU233
 523:Drivers/STM32F1xx_HAL_Driver/Src/stm32f1xx_hal_adc_ex.c ****   
 524:Drivers/STM32F1xx_HAL_Driver/Src/stm32f1xx_hal_adc_ex.c ****   /* Check the parameters */
 525:Drivers/STM32F1xx_HAL_Driver/Src/stm32f1xx_hal_adc_ex.c ****   assert_param(IS_ADC_ALL_INSTANCE(hadc->Instance));
 806              		.loc 1 525 3 view .LVU234
 526:Drivers/STM32F1xx_HAL_Driver/Src/stm32f1xx_hal_adc_ex.c ****   
 527:Drivers/STM32F1xx_HAL_Driver/Src/stm32f1xx_hal_adc_ex.c ****   /* Process locked */
 528:Drivers/STM32F1xx_HAL_Driver/Src/stm32f1xx_hal_adc_ex.c ****   __HAL_LOCK(hadc);
 807              		.loc 1 528 3 view .LVU235
 808              		.loc 1 528 3 view .LVU236
 809 0000 90F82430 		ldrb	r3, [r0, #36]	@ zero_extendqisi2
ARM GAS  /var/folders/2w/5wbrmvx534s_vk8svtxz852c0000gn/T//cc29HaPQ.s 			page 26


 810 0004 012B     		cmp	r3, #1
 811 0006 57D0     		beq	.L86
 521:Drivers/STM32F1xx_HAL_Driver/Src/stm32f1xx_hal_adc_ex.c ****   HAL_StatusTypeDef tmp_hal_status = HAL_OK;
 812              		.loc 1 521 1 is_stmt 0 discriminator 2 view .LVU237
 813 0008 10B5     		push	{r4, lr}
 814              	.LCFI12:
 815              		.cfi_def_cfa_offset 8
 816              		.cfi_offset 4, -8
 817              		.cfi_offset 14, -4
 818 000a 0446     		mov	r4, r0
 819              		.loc 1 528 3 is_stmt 1 discriminator 2 view .LVU238
 820 000c 0123     		movs	r3, #1
 821 000e 80F82430 		strb	r3, [r0, #36]
 822              		.loc 1 528 3 discriminator 2 view .LVU239
 529:Drivers/STM32F1xx_HAL_Driver/Src/stm32f1xx_hal_adc_ex.c ****     
 530:Drivers/STM32F1xx_HAL_Driver/Src/stm32f1xx_hal_adc_ex.c ****   /* Enable the ADC peripheral */
 531:Drivers/STM32F1xx_HAL_Driver/Src/stm32f1xx_hal_adc_ex.c ****   tmp_hal_status = ADC_Enable(hadc);
 823              		.loc 1 531 3 discriminator 2 view .LVU240
 824              		.loc 1 531 20 is_stmt 0 discriminator 2 view .LVU241
 825 0012 FFF7FEFF 		bl	ADC_Enable
 826              	.LVL43:
 532:Drivers/STM32F1xx_HAL_Driver/Src/stm32f1xx_hal_adc_ex.c ****   
 533:Drivers/STM32F1xx_HAL_Driver/Src/stm32f1xx_hal_adc_ex.c ****   /* Start conversion if ADC is effectively enabled */
 534:Drivers/STM32F1xx_HAL_Driver/Src/stm32f1xx_hal_adc_ex.c ****   if (tmp_hal_status == HAL_OK)
 827              		.loc 1 534 3 is_stmt 1 discriminator 2 view .LVU242
 828              		.loc 1 534 6 is_stmt 0 discriminator 2 view .LVU243
 829 0016 0028     		cmp	r0, #0
 830 0018 4AD1     		bne	.L79
 535:Drivers/STM32F1xx_HAL_Driver/Src/stm32f1xx_hal_adc_ex.c ****   {
 536:Drivers/STM32F1xx_HAL_Driver/Src/stm32f1xx_hal_adc_ex.c ****     /* Set ADC state                                                          */
 537:Drivers/STM32F1xx_HAL_Driver/Src/stm32f1xx_hal_adc_ex.c ****     /* - Clear state bitfield related to injected group conversion results    */
 538:Drivers/STM32F1xx_HAL_Driver/Src/stm32f1xx_hal_adc_ex.c ****     /* - Set state bitfield related to injected operation                     */
 539:Drivers/STM32F1xx_HAL_Driver/Src/stm32f1xx_hal_adc_ex.c ****     ADC_STATE_CLR_SET(hadc->State,
 831              		.loc 1 539 5 is_stmt 1 view .LVU244
 832 001a A36A     		ldr	r3, [r4, #40]
 833 001c 23F44053 		bic	r3, r3, #12288
 834 0020 23F00103 		bic	r3, r3, #1
 835 0024 43F48053 		orr	r3, r3, #4096
 836 0028 A362     		str	r3, [r4, #40]
 540:Drivers/STM32F1xx_HAL_Driver/Src/stm32f1xx_hal_adc_ex.c ****                       HAL_ADC_STATE_READY | HAL_ADC_STATE_INJ_EOC,
 541:Drivers/STM32F1xx_HAL_Driver/Src/stm32f1xx_hal_adc_ex.c ****                       HAL_ADC_STATE_INJ_BUSY);
 542:Drivers/STM32F1xx_HAL_Driver/Src/stm32f1xx_hal_adc_ex.c ****     
 543:Drivers/STM32F1xx_HAL_Driver/Src/stm32f1xx_hal_adc_ex.c ****     /* Case of independent mode or multimode (for devices with several ADCs): */
 544:Drivers/STM32F1xx_HAL_Driver/Src/stm32f1xx_hal_adc_ex.c ****     /* Set multimode state.                                                   */
 545:Drivers/STM32F1xx_HAL_Driver/Src/stm32f1xx_hal_adc_ex.c ****     if (ADC_NONMULTIMODE_OR_MULTIMODEMASTER(hadc))
 837              		.loc 1 545 5 view .LVU245
 838              		.loc 1 545 9 is_stmt 0 view .LVU246
 839 002a 2268     		ldr	r2, [r4]
 840              		.loc 1 545 8 view .LVU247
 841 002c 234B     		ldr	r3, .L94
 842 002e 9A42     		cmp	r2, r3
 843 0030 24D0     		beq	.L91
 844              	.L80:
 546:Drivers/STM32F1xx_HAL_Driver/Src/stm32f1xx_hal_adc_ex.c ****     {
 547:Drivers/STM32F1xx_HAL_Driver/Src/stm32f1xx_hal_adc_ex.c ****       CLEAR_BIT(hadc->State, HAL_ADC_STATE_MULTIMODE_SLAVE);
 845              		.loc 1 547 7 is_stmt 1 view .LVU248
 846 0032 A36A     		ldr	r3, [r4, #40]
ARM GAS  /var/folders/2w/5wbrmvx534s_vk8svtxz852c0000gn/T//cc29HaPQ.s 			page 27


 847 0034 23F48013 		bic	r3, r3, #1048576
 848 0038 A362     		str	r3, [r4, #40]
 849              	.L82:
 548:Drivers/STM32F1xx_HAL_Driver/Src/stm32f1xx_hal_adc_ex.c ****     }
 549:Drivers/STM32F1xx_HAL_Driver/Src/stm32f1xx_hal_adc_ex.c ****     else
 550:Drivers/STM32F1xx_HAL_Driver/Src/stm32f1xx_hal_adc_ex.c ****     {
 551:Drivers/STM32F1xx_HAL_Driver/Src/stm32f1xx_hal_adc_ex.c ****       SET_BIT(hadc->State, HAL_ADC_STATE_MULTIMODE_SLAVE);
 552:Drivers/STM32F1xx_HAL_Driver/Src/stm32f1xx_hal_adc_ex.c ****     }
 553:Drivers/STM32F1xx_HAL_Driver/Src/stm32f1xx_hal_adc_ex.c ****     
 554:Drivers/STM32F1xx_HAL_Driver/Src/stm32f1xx_hal_adc_ex.c ****     /* Check if a regular conversion is ongoing */
 555:Drivers/STM32F1xx_HAL_Driver/Src/stm32f1xx_hal_adc_ex.c ****     /* Note: On this device, there is no ADC error code fields related to     */
 556:Drivers/STM32F1xx_HAL_Driver/Src/stm32f1xx_hal_adc_ex.c ****     /*       conversions on group injected only. In case of conversion on     */
 557:Drivers/STM32F1xx_HAL_Driver/Src/stm32f1xx_hal_adc_ex.c ****     /*       going on group regular, no error code is reset.                  */
 558:Drivers/STM32F1xx_HAL_Driver/Src/stm32f1xx_hal_adc_ex.c ****     if (HAL_IS_BIT_CLR(hadc->State, HAL_ADC_STATE_REG_BUSY))
 850              		.loc 1 558 5 view .LVU249
 851              		.loc 1 558 9 is_stmt 0 view .LVU250
 852 003a A36A     		ldr	r3, [r4, #40]
 853              		.loc 1 558 8 view .LVU251
 854 003c 13F4807F 		tst	r3, #256
 855 0040 01D1     		bne	.L83
 559:Drivers/STM32F1xx_HAL_Driver/Src/stm32f1xx_hal_adc_ex.c ****     {
 560:Drivers/STM32F1xx_HAL_Driver/Src/stm32f1xx_hal_adc_ex.c ****       /* Reset ADC all error code fields */
 561:Drivers/STM32F1xx_HAL_Driver/Src/stm32f1xx_hal_adc_ex.c ****       ADC_CLEAR_ERRORCODE(hadc);
 856              		.loc 1 561 7 is_stmt 1 view .LVU252
 857 0042 0023     		movs	r3, #0
 858 0044 E362     		str	r3, [r4, #44]
 859              	.L83:
 562:Drivers/STM32F1xx_HAL_Driver/Src/stm32f1xx_hal_adc_ex.c ****     }
 563:Drivers/STM32F1xx_HAL_Driver/Src/stm32f1xx_hal_adc_ex.c ****     
 564:Drivers/STM32F1xx_HAL_Driver/Src/stm32f1xx_hal_adc_ex.c ****     /* Process unlocked */
 565:Drivers/STM32F1xx_HAL_Driver/Src/stm32f1xx_hal_adc_ex.c ****     /* Unlock before starting ADC conversions: in case of potential           */
 566:Drivers/STM32F1xx_HAL_Driver/Src/stm32f1xx_hal_adc_ex.c ****     /* interruption, to let the process to ADC IRQ Handler.                   */
 567:Drivers/STM32F1xx_HAL_Driver/Src/stm32f1xx_hal_adc_ex.c ****     __HAL_UNLOCK(hadc);
 860              		.loc 1 567 5 view .LVU253
 861              		.loc 1 567 5 view .LVU254
 862 0046 0023     		movs	r3, #0
 863 0048 84F82430 		strb	r3, [r4, #36]
 864              		.loc 1 567 5 view .LVU255
 568:Drivers/STM32F1xx_HAL_Driver/Src/stm32f1xx_hal_adc_ex.c ****     
 569:Drivers/STM32F1xx_HAL_Driver/Src/stm32f1xx_hal_adc_ex.c ****     /* Clear injected group conversion flag */
 570:Drivers/STM32F1xx_HAL_Driver/Src/stm32f1xx_hal_adc_ex.c ****     /* (To ensure of no unknown state from potential previous ADC operations) */
 571:Drivers/STM32F1xx_HAL_Driver/Src/stm32f1xx_hal_adc_ex.c ****     __HAL_ADC_CLEAR_FLAG(hadc, ADC_FLAG_JEOC);
 865              		.loc 1 571 5 view .LVU256
 866 004c 6FF00403 		mvn	r3, #4
 867 0050 1360     		str	r3, [r2]
 572:Drivers/STM32F1xx_HAL_Driver/Src/stm32f1xx_hal_adc_ex.c ****     
 573:Drivers/STM32F1xx_HAL_Driver/Src/stm32f1xx_hal_adc_ex.c ****     /* Enable end of conversion interrupt for injected channels */
 574:Drivers/STM32F1xx_HAL_Driver/Src/stm32f1xx_hal_adc_ex.c ****     __HAL_ADC_ENABLE_IT(hadc, ADC_IT_JEOC);
 868              		.loc 1 574 5 view .LVU257
 869 0052 2268     		ldr	r2, [r4]
 870 0054 5368     		ldr	r3, [r2, #4]
 871 0056 43F08003 		orr	r3, r3, #128
 872 005a 5360     		str	r3, [r2, #4]
 575:Drivers/STM32F1xx_HAL_Driver/Src/stm32f1xx_hal_adc_ex.c ****     
 576:Drivers/STM32F1xx_HAL_Driver/Src/stm32f1xx_hal_adc_ex.c ****     /* Start conversion of injected group if software start has been selected */
 577:Drivers/STM32F1xx_HAL_Driver/Src/stm32f1xx_hal_adc_ex.c ****     /* and if automatic injected conversion is disabled.                      */
 578:Drivers/STM32F1xx_HAL_Driver/Src/stm32f1xx_hal_adc_ex.c ****     /* If external trigger has been selected, conversion will start at next   */
ARM GAS  /var/folders/2w/5wbrmvx534s_vk8svtxz852c0000gn/T//cc29HaPQ.s 			page 28


 579:Drivers/STM32F1xx_HAL_Driver/Src/stm32f1xx_hal_adc_ex.c ****     /* trigger event.                                                         */
 580:Drivers/STM32F1xx_HAL_Driver/Src/stm32f1xx_hal_adc_ex.c ****     /* If automatic injected conversion is enabled, conversion will start     */
 581:Drivers/STM32F1xx_HAL_Driver/Src/stm32f1xx_hal_adc_ex.c ****     /* after next regular group conversion.                                   */
 582:Drivers/STM32F1xx_HAL_Driver/Src/stm32f1xx_hal_adc_ex.c ****     if (HAL_IS_BIT_CLR(hadc->Instance->CR1, ADC_CR1_JAUTO))
 873              		.loc 1 582 5 view .LVU258
 874              		.loc 1 582 9 is_stmt 0 view .LVU259
 875 005c 2368     		ldr	r3, [r4]
 876 005e 5A68     		ldr	r2, [r3, #4]
 877              		.loc 1 582 8 view .LVU260
 878 0060 12F4806F 		tst	r2, #1024
 879 0064 27D1     		bne	.L78
 583:Drivers/STM32F1xx_HAL_Driver/Src/stm32f1xx_hal_adc_ex.c ****     {
 584:Drivers/STM32F1xx_HAL_Driver/Src/stm32f1xx_hal_adc_ex.c ****       if (ADC_IS_SOFTWARE_START_INJECTED(hadc)     &&
 880              		.loc 1 584 7 is_stmt 1 view .LVU261
 881              		.loc 1 584 11 is_stmt 0 view .LVU262
 882 0066 9A68     		ldr	r2, [r3, #8]
 883 0068 02F4E042 		and	r2, r2, #28672
 884              		.loc 1 584 10 view .LVU263
 885 006c B2F5E04F 		cmp	r2, #28672
 886 0070 0FD0     		beq	.L92
 887              	.L84:
 585:Drivers/STM32F1xx_HAL_Driver/Src/stm32f1xx_hal_adc_ex.c ****           ADC_NONMULTIMODE_OR_MULTIMODEMASTER(hadc)  )
 586:Drivers/STM32F1xx_HAL_Driver/Src/stm32f1xx_hal_adc_ex.c ****       {
 587:Drivers/STM32F1xx_HAL_Driver/Src/stm32f1xx_hal_adc_ex.c ****         /* Start ADC conversion on injected group with SW start */
 588:Drivers/STM32F1xx_HAL_Driver/Src/stm32f1xx_hal_adc_ex.c ****         SET_BIT(hadc->Instance->CR2, (ADC_CR2_JSWSTART | ADC_CR2_JEXTTRIG));
 589:Drivers/STM32F1xx_HAL_Driver/Src/stm32f1xx_hal_adc_ex.c ****       }
 590:Drivers/STM32F1xx_HAL_Driver/Src/stm32f1xx_hal_adc_ex.c ****       else
 591:Drivers/STM32F1xx_HAL_Driver/Src/stm32f1xx_hal_adc_ex.c ****       {
 592:Drivers/STM32F1xx_HAL_Driver/Src/stm32f1xx_hal_adc_ex.c ****         /* Start ADC conversion on injected group with external trigger */
 593:Drivers/STM32F1xx_HAL_Driver/Src/stm32f1xx_hal_adc_ex.c ****         SET_BIT(hadc->Instance->CR2, ADC_CR2_JEXTTRIG);
 888              		.loc 1 593 9 is_stmt 1 view .LVU264
 889 0072 9A68     		ldr	r2, [r3, #8]
 890 0074 42F40042 		orr	r2, r2, #32768
 891 0078 9A60     		str	r2, [r3, #8]
 892 007a 1CE0     		b	.L78
 893              	.L91:
 545:Drivers/STM32F1xx_HAL_Driver/Src/stm32f1xx_hal_adc_ex.c ****     {
 894              		.loc 1 545 9 is_stmt 0 discriminator 1 view .LVU265
 895 007c A3F58063 		sub	r3, r3, #1024
 896 0080 5B68     		ldr	r3, [r3, #4]
 897 0082 13F4702F 		tst	r3, #983040
 898 0086 D4D0     		beq	.L80
 551:Drivers/STM32F1xx_HAL_Driver/Src/stm32f1xx_hal_adc_ex.c ****     }
 899              		.loc 1 551 7 is_stmt 1 view .LVU266
 900 0088 A36A     		ldr	r3, [r4, #40]
 901 008a 43F48013 		orr	r3, r3, #1048576
 902 008e A362     		str	r3, [r4, #40]
 903 0090 D3E7     		b	.L82
 904              	.L92:
 584:Drivers/STM32F1xx_HAL_Driver/Src/stm32f1xx_hal_adc_ex.c ****           ADC_NONMULTIMODE_OR_MULTIMODEMASTER(hadc)  )
 905              		.loc 1 584 52 is_stmt 0 discriminator 1 view .LVU267
 906 0092 0A4A     		ldr	r2, .L94
 907 0094 9342     		cmp	r3, r2
 908 0096 04D0     		beq	.L93
 909              	.L85:
 588:Drivers/STM32F1xx_HAL_Driver/Src/stm32f1xx_hal_adc_ex.c ****       }
 910              		.loc 1 588 9 is_stmt 1 view .LVU268
ARM GAS  /var/folders/2w/5wbrmvx534s_vk8svtxz852c0000gn/T//cc29HaPQ.s 			page 29


 911 0098 9A68     		ldr	r2, [r3, #8]
 912 009a 42F40212 		orr	r2, r2, #2129920
 913 009e 9A60     		str	r2, [r3, #8]
 914 00a0 09E0     		b	.L78
 915              	.L93:
 585:Drivers/STM32F1xx_HAL_Driver/Src/stm32f1xx_hal_adc_ex.c ****       {
 916              		.loc 1 585 11 is_stmt 0 discriminator 2 view .LVU269
 917 00a2 A2F58062 		sub	r2, r2, #1024
 918 00a6 5268     		ldr	r2, [r2, #4]
 584:Drivers/STM32F1xx_HAL_Driver/Src/stm32f1xx_hal_adc_ex.c ****           ADC_NONMULTIMODE_OR_MULTIMODEMASTER(hadc)  )
 919              		.loc 1 584 52 discriminator 2 view .LVU270
 920 00a8 12F4702F 		tst	r2, #983040
 921 00ac E1D1     		bne	.L84
 922 00ae F3E7     		b	.L85
 923              	.L79:
 594:Drivers/STM32F1xx_HAL_Driver/Src/stm32f1xx_hal_adc_ex.c ****       }
 595:Drivers/STM32F1xx_HAL_Driver/Src/stm32f1xx_hal_adc_ex.c ****     }
 596:Drivers/STM32F1xx_HAL_Driver/Src/stm32f1xx_hal_adc_ex.c ****   }
 597:Drivers/STM32F1xx_HAL_Driver/Src/stm32f1xx_hal_adc_ex.c ****   else
 598:Drivers/STM32F1xx_HAL_Driver/Src/stm32f1xx_hal_adc_ex.c ****   {
 599:Drivers/STM32F1xx_HAL_Driver/Src/stm32f1xx_hal_adc_ex.c ****     /* Process unlocked */
 600:Drivers/STM32F1xx_HAL_Driver/Src/stm32f1xx_hal_adc_ex.c ****     __HAL_UNLOCK(hadc);
 924              		.loc 1 600 5 is_stmt 1 view .LVU271
 925              		.loc 1 600 5 view .LVU272
 926 00b0 0023     		movs	r3, #0
 927 00b2 84F82430 		strb	r3, [r4, #36]
 928              	.L78:
 601:Drivers/STM32F1xx_HAL_Driver/Src/stm32f1xx_hal_adc_ex.c ****   }
 602:Drivers/STM32F1xx_HAL_Driver/Src/stm32f1xx_hal_adc_ex.c ****   
 603:Drivers/STM32F1xx_HAL_Driver/Src/stm32f1xx_hal_adc_ex.c ****   /* Return function status */
 604:Drivers/STM32F1xx_HAL_Driver/Src/stm32f1xx_hal_adc_ex.c ****   return tmp_hal_status;
 605:Drivers/STM32F1xx_HAL_Driver/Src/stm32f1xx_hal_adc_ex.c **** }
 929              		.loc 1 605 1 is_stmt 0 view .LVU273
 930 00b6 10BD     		pop	{r4, pc}
 931              	.LVL44:
 932              	.L86:
 933              	.LCFI13:
 934              		.cfi_def_cfa_offset 0
 935              		.cfi_restore 4
 936              		.cfi_restore 14
 528:Drivers/STM32F1xx_HAL_Driver/Src/stm32f1xx_hal_adc_ex.c ****     
 937              		.loc 1 528 3 view .LVU274
 938 00b8 0220     		movs	r0, #2
 939              	.LVL45:
 940              		.loc 1 605 1 view .LVU275
 941 00ba 7047     		bx	lr
 942              	.L95:
 943              		.align	2
 944              	.L94:
 945 00bc 00280140 		.word	1073817600
 946              		.cfi_endproc
 947              	.LFE70:
 949              		.section	.text.HAL_ADCEx_InjectedStop_IT,"ax",%progbits
 950              		.align	1
 951              		.global	HAL_ADCEx_InjectedStop_IT
 952              		.syntax unified
 953              		.thumb
ARM GAS  /var/folders/2w/5wbrmvx534s_vk8svtxz852c0000gn/T//cc29HaPQ.s 			page 30


 954              		.thumb_func
 956              	HAL_ADCEx_InjectedStop_IT:
 957              	.LVL46:
 958              	.LFB71:
 606:Drivers/STM32F1xx_HAL_Driver/Src/stm32f1xx_hal_adc_ex.c **** 
 607:Drivers/STM32F1xx_HAL_Driver/Src/stm32f1xx_hal_adc_ex.c **** /**
 608:Drivers/STM32F1xx_HAL_Driver/Src/stm32f1xx_hal_adc_ex.c ****   * @brief  Stop conversion of injected channels, disable interruption of 
 609:Drivers/STM32F1xx_HAL_Driver/Src/stm32f1xx_hal_adc_ex.c ****   *         end-of-conversion. Disable ADC peripheral if no regular conversion
 610:Drivers/STM32F1xx_HAL_Driver/Src/stm32f1xx_hal_adc_ex.c ****   *         is on going.
 611:Drivers/STM32F1xx_HAL_Driver/Src/stm32f1xx_hal_adc_ex.c ****   * @note   If ADC must be disabled and if conversion is on going on 
 612:Drivers/STM32F1xx_HAL_Driver/Src/stm32f1xx_hal_adc_ex.c ****   *         regular group, function HAL_ADC_Stop must be used to stop both
 613:Drivers/STM32F1xx_HAL_Driver/Src/stm32f1xx_hal_adc_ex.c ****   *         injected and regular groups, and disable the ADC.
 614:Drivers/STM32F1xx_HAL_Driver/Src/stm32f1xx_hal_adc_ex.c ****   * @note   If injected group mode auto-injection is enabled,
 615:Drivers/STM32F1xx_HAL_Driver/Src/stm32f1xx_hal_adc_ex.c ****   *         function HAL_ADC_Stop must be used.
 616:Drivers/STM32F1xx_HAL_Driver/Src/stm32f1xx_hal_adc_ex.c ****   * @param  hadc: ADC handle
 617:Drivers/STM32F1xx_HAL_Driver/Src/stm32f1xx_hal_adc_ex.c ****   * @retval None
 618:Drivers/STM32F1xx_HAL_Driver/Src/stm32f1xx_hal_adc_ex.c ****   */
 619:Drivers/STM32F1xx_HAL_Driver/Src/stm32f1xx_hal_adc_ex.c **** HAL_StatusTypeDef HAL_ADCEx_InjectedStop_IT(ADC_HandleTypeDef* hadc)
 620:Drivers/STM32F1xx_HAL_Driver/Src/stm32f1xx_hal_adc_ex.c **** {
 959              		.loc 1 620 1 is_stmt 1 view -0
 960              		.cfi_startproc
 961              		@ args = 0, pretend = 0, frame = 0
 962              		@ frame_needed = 0, uses_anonymous_args = 0
 621:Drivers/STM32F1xx_HAL_Driver/Src/stm32f1xx_hal_adc_ex.c ****   HAL_StatusTypeDef tmp_hal_status = HAL_OK;
 963              		.loc 1 621 3 view .LVU277
 622:Drivers/STM32F1xx_HAL_Driver/Src/stm32f1xx_hal_adc_ex.c ****   
 623:Drivers/STM32F1xx_HAL_Driver/Src/stm32f1xx_hal_adc_ex.c ****   /* Check the parameters */
 624:Drivers/STM32F1xx_HAL_Driver/Src/stm32f1xx_hal_adc_ex.c ****   assert_param(IS_ADC_ALL_INSTANCE(hadc->Instance));
 964              		.loc 1 624 3 view .LVU278
 625:Drivers/STM32F1xx_HAL_Driver/Src/stm32f1xx_hal_adc_ex.c **** 
 626:Drivers/STM32F1xx_HAL_Driver/Src/stm32f1xx_hal_adc_ex.c ****   /* Process locked */
 627:Drivers/STM32F1xx_HAL_Driver/Src/stm32f1xx_hal_adc_ex.c ****   __HAL_LOCK(hadc);
 965              		.loc 1 627 3 view .LVU279
 966              		.loc 1 627 3 view .LVU280
 967 0000 90F82430 		ldrb	r3, [r0, #36]	@ zero_extendqisi2
 968 0004 012B     		cmp	r3, #1
 969 0006 28D0     		beq	.L100
 620:Drivers/STM32F1xx_HAL_Driver/Src/stm32f1xx_hal_adc_ex.c ****   HAL_StatusTypeDef tmp_hal_status = HAL_OK;
 970              		.loc 1 620 1 is_stmt 0 discriminator 2 view .LVU281
 971 0008 10B5     		push	{r4, lr}
 972              	.LCFI14:
 973              		.cfi_def_cfa_offset 8
 974              		.cfi_offset 4, -8
 975              		.cfi_offset 14, -4
 976 000a 0446     		mov	r4, r0
 977              		.loc 1 627 3 is_stmt 1 discriminator 2 view .LVU282
 978 000c 0123     		movs	r3, #1
 979 000e 80F82430 		strb	r3, [r0, #36]
 980              		.loc 1 627 3 discriminator 2 view .LVU283
 628:Drivers/STM32F1xx_HAL_Driver/Src/stm32f1xx_hal_adc_ex.c ****     
 629:Drivers/STM32F1xx_HAL_Driver/Src/stm32f1xx_hal_adc_ex.c ****   /* Stop potential conversion and disable ADC peripheral                     */
 630:Drivers/STM32F1xx_HAL_Driver/Src/stm32f1xx_hal_adc_ex.c ****   /* Conditioned to:                                                          */
 631:Drivers/STM32F1xx_HAL_Driver/Src/stm32f1xx_hal_adc_ex.c ****   /* - No conversion on the other group (regular group) is intended to        */
 632:Drivers/STM32F1xx_HAL_Driver/Src/stm32f1xx_hal_adc_ex.c ****   /*   continue (injected and regular groups stop conversion and ADC disable  */
 633:Drivers/STM32F1xx_HAL_Driver/Src/stm32f1xx_hal_adc_ex.c ****   /*   are common)                                                            */
 634:Drivers/STM32F1xx_HAL_Driver/Src/stm32f1xx_hal_adc_ex.c ****   /* - In case of auto-injection mode, HAL_ADC_Stop must be used.             */ 
 635:Drivers/STM32F1xx_HAL_Driver/Src/stm32f1xx_hal_adc_ex.c ****   if(((hadc->State & HAL_ADC_STATE_REG_BUSY) == RESET)  &&
ARM GAS  /var/folders/2w/5wbrmvx534s_vk8svtxz852c0000gn/T//cc29HaPQ.s 			page 31


 981              		.loc 1 635 3 discriminator 2 view .LVU284
 982              		.loc 1 635 12 is_stmt 0 discriminator 2 view .LVU285
 983 0012 836A     		ldr	r3, [r0, #40]
 984              		.loc 1 635 5 discriminator 2 view .LVU286
 985 0014 13F4807F 		tst	r3, #256
 986 0018 04D1     		bne	.L98
 636:Drivers/STM32F1xx_HAL_Driver/Src/stm32f1xx_hal_adc_ex.c ****      HAL_IS_BIT_CLR(hadc->Instance->CR1, ADC_CR1_JAUTO)   )
 987              		.loc 1 636 6 discriminator 1 view .LVU287
 988 001a 0368     		ldr	r3, [r0]
 989 001c 5B68     		ldr	r3, [r3, #4]
 635:Drivers/STM32F1xx_HAL_Driver/Src/stm32f1xx_hal_adc_ex.c ****      HAL_IS_BIT_CLR(hadc->Instance->CR1, ADC_CR1_JAUTO)   )
 990              		.loc 1 635 57 discriminator 1 view .LVU288
 991 001e 13F4806F 		tst	r3, #1024
 992 0022 08D0     		beq	.L105
 993              	.L98:
 637:Drivers/STM32F1xx_HAL_Driver/Src/stm32f1xx_hal_adc_ex.c ****   {
 638:Drivers/STM32F1xx_HAL_Driver/Src/stm32f1xx_hal_adc_ex.c ****     /* Stop potential conversion on going, on regular and injected groups */
 639:Drivers/STM32F1xx_HAL_Driver/Src/stm32f1xx_hal_adc_ex.c ****     /* Disable ADC peripheral */
 640:Drivers/STM32F1xx_HAL_Driver/Src/stm32f1xx_hal_adc_ex.c ****     tmp_hal_status = ADC_ConversionStop_Disable(hadc);
 641:Drivers/STM32F1xx_HAL_Driver/Src/stm32f1xx_hal_adc_ex.c ****     
 642:Drivers/STM32F1xx_HAL_Driver/Src/stm32f1xx_hal_adc_ex.c ****     /* Check if ADC is effectively disabled */
 643:Drivers/STM32F1xx_HAL_Driver/Src/stm32f1xx_hal_adc_ex.c ****     if (tmp_hal_status == HAL_OK)
 644:Drivers/STM32F1xx_HAL_Driver/Src/stm32f1xx_hal_adc_ex.c ****     {
 645:Drivers/STM32F1xx_HAL_Driver/Src/stm32f1xx_hal_adc_ex.c ****       /* Disable ADC end of conversion interrupt for injected channels */
 646:Drivers/STM32F1xx_HAL_Driver/Src/stm32f1xx_hal_adc_ex.c ****       __HAL_ADC_DISABLE_IT(hadc, ADC_IT_JEOC);
 647:Drivers/STM32F1xx_HAL_Driver/Src/stm32f1xx_hal_adc_ex.c ****       
 648:Drivers/STM32F1xx_HAL_Driver/Src/stm32f1xx_hal_adc_ex.c ****       /* Set ADC state */
 649:Drivers/STM32F1xx_HAL_Driver/Src/stm32f1xx_hal_adc_ex.c ****       ADC_STATE_CLR_SET(hadc->State,
 650:Drivers/STM32F1xx_HAL_Driver/Src/stm32f1xx_hal_adc_ex.c ****                         HAL_ADC_STATE_REG_BUSY | HAL_ADC_STATE_INJ_BUSY,
 651:Drivers/STM32F1xx_HAL_Driver/Src/stm32f1xx_hal_adc_ex.c ****                         HAL_ADC_STATE_READY);
 652:Drivers/STM32F1xx_HAL_Driver/Src/stm32f1xx_hal_adc_ex.c ****     }
 653:Drivers/STM32F1xx_HAL_Driver/Src/stm32f1xx_hal_adc_ex.c ****   }
 654:Drivers/STM32F1xx_HAL_Driver/Src/stm32f1xx_hal_adc_ex.c ****   else
 655:Drivers/STM32F1xx_HAL_Driver/Src/stm32f1xx_hal_adc_ex.c ****   {
 656:Drivers/STM32F1xx_HAL_Driver/Src/stm32f1xx_hal_adc_ex.c ****     /* Update ADC state machine to error */
 657:Drivers/STM32F1xx_HAL_Driver/Src/stm32f1xx_hal_adc_ex.c ****     SET_BIT(hadc->State, HAL_ADC_STATE_ERROR_CONFIG);
 994              		.loc 1 657 5 is_stmt 1 view .LVU289
 995 0024 A36A     		ldr	r3, [r4, #40]
 996 0026 43F02003 		orr	r3, r3, #32
 997 002a A362     		str	r3, [r4, #40]
 658:Drivers/STM32F1xx_HAL_Driver/Src/stm32f1xx_hal_adc_ex.c ****       
 659:Drivers/STM32F1xx_HAL_Driver/Src/stm32f1xx_hal_adc_ex.c ****     tmp_hal_status = HAL_ERROR;
 998              		.loc 1 659 5 view .LVU290
 999              	.LVL47:
 1000              		.loc 1 659 20 is_stmt 0 view .LVU291
 1001 002c 0120     		movs	r0, #1
 1002              	.LVL48:
 1003              	.L99:
 660:Drivers/STM32F1xx_HAL_Driver/Src/stm32f1xx_hal_adc_ex.c ****   }
 661:Drivers/STM32F1xx_HAL_Driver/Src/stm32f1xx_hal_adc_ex.c ****   
 662:Drivers/STM32F1xx_HAL_Driver/Src/stm32f1xx_hal_adc_ex.c ****   /* Process unlocked */
 663:Drivers/STM32F1xx_HAL_Driver/Src/stm32f1xx_hal_adc_ex.c ****   __HAL_UNLOCK(hadc);
 1004              		.loc 1 663 3 is_stmt 1 view .LVU292
 1005              		.loc 1 663 3 view .LVU293
 1006 002e 0023     		movs	r3, #0
 1007 0030 84F82430 		strb	r3, [r4, #36]
 1008              		.loc 1 663 3 view .LVU294
ARM GAS  /var/folders/2w/5wbrmvx534s_vk8svtxz852c0000gn/T//cc29HaPQ.s 			page 32


 664:Drivers/STM32F1xx_HAL_Driver/Src/stm32f1xx_hal_adc_ex.c ****   
 665:Drivers/STM32F1xx_HAL_Driver/Src/stm32f1xx_hal_adc_ex.c ****   /* Return function status */
 666:Drivers/STM32F1xx_HAL_Driver/Src/stm32f1xx_hal_adc_ex.c ****   return tmp_hal_status;
 1009              		.loc 1 666 3 view .LVU295
 667:Drivers/STM32F1xx_HAL_Driver/Src/stm32f1xx_hal_adc_ex.c **** }
 1010              		.loc 1 667 1 is_stmt 0 view .LVU296
 1011 0034 10BD     		pop	{r4, pc}
 1012              	.LVL49:
 1013              	.L105:
 640:Drivers/STM32F1xx_HAL_Driver/Src/stm32f1xx_hal_adc_ex.c ****     
 1014              		.loc 1 640 5 is_stmt 1 view .LVU297
 640:Drivers/STM32F1xx_HAL_Driver/Src/stm32f1xx_hal_adc_ex.c ****     
 1015              		.loc 1 640 22 is_stmt 0 view .LVU298
 1016 0036 FFF7FEFF 		bl	ADC_ConversionStop_Disable
 1017              	.LVL50:
 643:Drivers/STM32F1xx_HAL_Driver/Src/stm32f1xx_hal_adc_ex.c ****     {
 1018              		.loc 1 643 5 is_stmt 1 view .LVU299
 643:Drivers/STM32F1xx_HAL_Driver/Src/stm32f1xx_hal_adc_ex.c ****     {
 1019              		.loc 1 643 8 is_stmt 0 view .LVU300
 1020 003a 0028     		cmp	r0, #0
 1021 003c F7D1     		bne	.L99
 646:Drivers/STM32F1xx_HAL_Driver/Src/stm32f1xx_hal_adc_ex.c ****       
 1022              		.loc 1 646 7 is_stmt 1 view .LVU301
 1023 003e 2268     		ldr	r2, [r4]
 1024 0040 5368     		ldr	r3, [r2, #4]
 1025 0042 23F08003 		bic	r3, r3, #128
 1026 0046 5360     		str	r3, [r2, #4]
 649:Drivers/STM32F1xx_HAL_Driver/Src/stm32f1xx_hal_adc_ex.c ****                         HAL_ADC_STATE_REG_BUSY | HAL_ADC_STATE_INJ_BUSY,
 1027              		.loc 1 649 7 view .LVU302
 1028 0048 A36A     		ldr	r3, [r4, #40]
 1029 004a 23F48853 		bic	r3, r3, #4352
 1030 004e 23F00103 		bic	r3, r3, #1
 1031 0052 43F00103 		orr	r3, r3, #1
 1032 0056 A362     		str	r3, [r4, #40]
 1033 0058 E9E7     		b	.L99
 1034              	.LVL51:
 1035              	.L100:
 1036              	.LCFI15:
 1037              		.cfi_def_cfa_offset 0
 1038              		.cfi_restore 4
 1039              		.cfi_restore 14
 627:Drivers/STM32F1xx_HAL_Driver/Src/stm32f1xx_hal_adc_ex.c ****     
 1040              		.loc 1 627 3 is_stmt 0 view .LVU303
 1041 005a 0220     		movs	r0, #2
 1042              	.LVL52:
 1043              		.loc 1 667 1 view .LVU304
 1044 005c 7047     		bx	lr
 1045              		.cfi_endproc
 1046              	.LFE71:
 1048              		.section	.text.HAL_ADCEx_MultiModeStart_DMA,"ax",%progbits
 1049              		.align	1
 1050              		.global	HAL_ADCEx_MultiModeStart_DMA
 1051              		.syntax unified
 1052              		.thumb
 1053              		.thumb_func
 1055              	HAL_ADCEx_MultiModeStart_DMA:
 1056              	.LVL53:
ARM GAS  /var/folders/2w/5wbrmvx534s_vk8svtxz852c0000gn/T//cc29HaPQ.s 			page 33


 1057              	.LFB72:
 668:Drivers/STM32F1xx_HAL_Driver/Src/stm32f1xx_hal_adc_ex.c **** 
 669:Drivers/STM32F1xx_HAL_Driver/Src/stm32f1xx_hal_adc_ex.c **** #if defined (STM32F103x6) || defined (STM32F103xB) || defined (STM32F105xC) || defined (STM32F107xC
 670:Drivers/STM32F1xx_HAL_Driver/Src/stm32f1xx_hal_adc_ex.c **** /**
 671:Drivers/STM32F1xx_HAL_Driver/Src/stm32f1xx_hal_adc_ex.c ****   * @brief  Enables ADC, starts conversion of regular group and transfers result
 672:Drivers/STM32F1xx_HAL_Driver/Src/stm32f1xx_hal_adc_ex.c ****   *         through DMA.
 673:Drivers/STM32F1xx_HAL_Driver/Src/stm32f1xx_hal_adc_ex.c ****   *         Multimode must have been previously configured using 
 674:Drivers/STM32F1xx_HAL_Driver/Src/stm32f1xx_hal_adc_ex.c ****   *         HAL_ADCEx_MultiModeConfigChannel() function.
 675:Drivers/STM32F1xx_HAL_Driver/Src/stm32f1xx_hal_adc_ex.c ****   *         Interruptions enabled in this function:
 676:Drivers/STM32F1xx_HAL_Driver/Src/stm32f1xx_hal_adc_ex.c ****   *          - DMA transfer complete
 677:Drivers/STM32F1xx_HAL_Driver/Src/stm32f1xx_hal_adc_ex.c ****   *          - DMA half transfer
 678:Drivers/STM32F1xx_HAL_Driver/Src/stm32f1xx_hal_adc_ex.c ****   *         Each of these interruptions has its dedicated callback function.
 679:Drivers/STM32F1xx_HAL_Driver/Src/stm32f1xx_hal_adc_ex.c ****   * @note:  On STM32F1 devices, ADC slave regular group must be configured 
 680:Drivers/STM32F1xx_HAL_Driver/Src/stm32f1xx_hal_adc_ex.c ****   *         with conversion trigger ADC_SOFTWARE_START.
 681:Drivers/STM32F1xx_HAL_Driver/Src/stm32f1xx_hal_adc_ex.c ****   * @note:  ADC slave can be enabled preliminarily using single-mode  
 682:Drivers/STM32F1xx_HAL_Driver/Src/stm32f1xx_hal_adc_ex.c ****   *         HAL_ADC_Start() function.
 683:Drivers/STM32F1xx_HAL_Driver/Src/stm32f1xx_hal_adc_ex.c ****   * @param  hadc: ADC handle of ADC master (handle of ADC slave must not be used)
 684:Drivers/STM32F1xx_HAL_Driver/Src/stm32f1xx_hal_adc_ex.c ****   * @param  pData: The destination Buffer address.
 685:Drivers/STM32F1xx_HAL_Driver/Src/stm32f1xx_hal_adc_ex.c ****   * @param  Length: The length of data to be transferred from ADC peripheral to memory.
 686:Drivers/STM32F1xx_HAL_Driver/Src/stm32f1xx_hal_adc_ex.c ****   * @retval None
 687:Drivers/STM32F1xx_HAL_Driver/Src/stm32f1xx_hal_adc_ex.c ****   */
 688:Drivers/STM32F1xx_HAL_Driver/Src/stm32f1xx_hal_adc_ex.c **** HAL_StatusTypeDef HAL_ADCEx_MultiModeStart_DMA(ADC_HandleTypeDef* hadc, uint32_t* pData, uint32_t L
 689:Drivers/STM32F1xx_HAL_Driver/Src/stm32f1xx_hal_adc_ex.c **** {
 1058              		.loc 1 689 1 is_stmt 1 view -0
 1059              		.cfi_startproc
 1060              		@ args = 0, pretend = 0, frame = 48
 1061              		@ frame_needed = 0, uses_anonymous_args = 0
 1062              		.loc 1 689 1 is_stmt 0 view .LVU306
 1063 0000 F0B5     		push	{r4, r5, r6, r7, lr}
 1064              	.LCFI16:
 1065              		.cfi_def_cfa_offset 20
 1066              		.cfi_offset 4, -20
 1067              		.cfi_offset 5, -16
 1068              		.cfi_offset 6, -12
 1069              		.cfi_offset 7, -8
 1070              		.cfi_offset 14, -4
 1071 0002 8DB0     		sub	sp, sp, #52
 1072              	.LCFI17:
 1073              		.cfi_def_cfa_offset 72
 1074 0004 0D46     		mov	r5, r1
 690:Drivers/STM32F1xx_HAL_Driver/Src/stm32f1xx_hal_adc_ex.c ****   HAL_StatusTypeDef tmp_hal_status = HAL_OK;
 1075              		.loc 1 690 3 is_stmt 1 view .LVU307
 1076              	.LVL54:
 691:Drivers/STM32F1xx_HAL_Driver/Src/stm32f1xx_hal_adc_ex.c ****   ADC_HandleTypeDef tmphadcSlave;
 1077              		.loc 1 691 3 view .LVU308
 692:Drivers/STM32F1xx_HAL_Driver/Src/stm32f1xx_hal_adc_ex.c **** 
 693:Drivers/STM32F1xx_HAL_Driver/Src/stm32f1xx_hal_adc_ex.c ****   /* Check the parameters */
 694:Drivers/STM32F1xx_HAL_Driver/Src/stm32f1xx_hal_adc_ex.c ****   assert_param(IS_ADC_MULTIMODE_MASTER_INSTANCE(hadc->Instance));
 1078              		.loc 1 694 3 view .LVU309
 695:Drivers/STM32F1xx_HAL_Driver/Src/stm32f1xx_hal_adc_ex.c ****   assert_param(IS_FUNCTIONAL_STATE(hadc->Init.ContinuousConvMode));
 1079              		.loc 1 695 3 view .LVU310
 696:Drivers/STM32F1xx_HAL_Driver/Src/stm32f1xx_hal_adc_ex.c ****   
 697:Drivers/STM32F1xx_HAL_Driver/Src/stm32f1xx_hal_adc_ex.c ****   /* Process locked */
 698:Drivers/STM32F1xx_HAL_Driver/Src/stm32f1xx_hal_adc_ex.c ****   __HAL_LOCK(hadc);
 1080              		.loc 1 698 3 view .LVU311
 1081              		.loc 1 698 3 view .LVU312
 1082 0006 90F82410 		ldrb	r1, [r0, #36]	@ zero_extendqisi2
ARM GAS  /var/folders/2w/5wbrmvx534s_vk8svtxz852c0000gn/T//cc29HaPQ.s 			page 34


 1083              	.LVL55:
 1084              		.loc 1 698 3 is_stmt 0 view .LVU313
 1085 000a 0129     		cmp	r1, #1
 1086 000c 67D0     		beq	.L113
 1087 000e 0446     		mov	r4, r0
 1088 0010 1746     		mov	r7, r2
 1089              		.loc 1 698 3 is_stmt 1 discriminator 2 view .LVU314
 1090 0012 0123     		movs	r3, #1
 1091 0014 80F82430 		strb	r3, [r0, #36]
 1092              		.loc 1 698 3 discriminator 2 view .LVU315
 699:Drivers/STM32F1xx_HAL_Driver/Src/stm32f1xx_hal_adc_ex.c **** 
 700:Drivers/STM32F1xx_HAL_Driver/Src/stm32f1xx_hal_adc_ex.c ****   /* Set a temporary handle of the ADC slave associated to the ADC master     */
 701:Drivers/STM32F1xx_HAL_Driver/Src/stm32f1xx_hal_adc_ex.c ****   ADC_MULTI_SLAVE(hadc, &tmphadcSlave);
 1093              		.loc 1 701 3 discriminator 2 view .LVU316
 1094 0018 3249     		ldr	r1, .L117
 1095 001a 0091     		str	r1, [sp]
 702:Drivers/STM32F1xx_HAL_Driver/Src/stm32f1xx_hal_adc_ex.c ****   
 703:Drivers/STM32F1xx_HAL_Driver/Src/stm32f1xx_hal_adc_ex.c ****   /* On STM32F1 devices, ADC slave regular group must be configured with      */
 704:Drivers/STM32F1xx_HAL_Driver/Src/stm32f1xx_hal_adc_ex.c ****   /* conversion trigger ADC_SOFTWARE_START.                                   */
 705:Drivers/STM32F1xx_HAL_Driver/Src/stm32f1xx_hal_adc_ex.c ****   /* Note: External trigger of ADC slave must be enabled, it is already done  */
 706:Drivers/STM32F1xx_HAL_Driver/Src/stm32f1xx_hal_adc_ex.c ****   /*       into function "HAL_ADC_Init()".                                    */
 707:Drivers/STM32F1xx_HAL_Driver/Src/stm32f1xx_hal_adc_ex.c ****   if(!ADC_IS_SOFTWARE_START_REGULAR(&tmphadcSlave))  
 1096              		.loc 1 707 3 discriminator 2 view .LVU317
 1097              		.loc 1 707 7 is_stmt 0 discriminator 2 view .LVU318
 1098 001c 8868     		ldr	r0, [r1, #8]
 1099              	.LVL56:
 1100              		.loc 1 707 7 discriminator 2 view .LVU319
 1101 001e 00F46020 		and	r0, r0, #917504
 1102              		.loc 1 707 5 discriminator 2 view .LVU320
 1103 0022 B0F5602F 		cmp	r0, #917504
 1104 0026 0AD0     		beq	.L108
 708:Drivers/STM32F1xx_HAL_Driver/Src/stm32f1xx_hal_adc_ex.c ****   {
 709:Drivers/STM32F1xx_HAL_Driver/Src/stm32f1xx_hal_adc_ex.c ****     /* Update ADC state machine to error */
 710:Drivers/STM32F1xx_HAL_Driver/Src/stm32f1xx_hal_adc_ex.c ****     SET_BIT(hadc->State, HAL_ADC_STATE_ERROR_CONFIG);
 1105              		.loc 1 710 5 is_stmt 1 view .LVU321
 1106 0028 A36A     		ldr	r3, [r4, #40]
 1107 002a 43F02003 		orr	r3, r3, #32
 1108 002e A362     		str	r3, [r4, #40]
 711:Drivers/STM32F1xx_HAL_Driver/Src/stm32f1xx_hal_adc_ex.c ****     
 712:Drivers/STM32F1xx_HAL_Driver/Src/stm32f1xx_hal_adc_ex.c ****     /* Process unlocked */
 713:Drivers/STM32F1xx_HAL_Driver/Src/stm32f1xx_hal_adc_ex.c ****     __HAL_UNLOCK(hadc);
 1109              		.loc 1 713 5 view .LVU322
 1110              		.loc 1 713 5 view .LVU323
 1111 0030 0023     		movs	r3, #0
 1112 0032 84F82430 		strb	r3, [r4, #36]
 1113              		.loc 1 713 5 view .LVU324
 714:Drivers/STM32F1xx_HAL_Driver/Src/stm32f1xx_hal_adc_ex.c ****     
 715:Drivers/STM32F1xx_HAL_Driver/Src/stm32f1xx_hal_adc_ex.c ****     return HAL_ERROR;
 1114              		.loc 1 715 5 view .LVU325
 1115              		.loc 1 715 12 is_stmt 0 view .LVU326
 1116 0036 0126     		movs	r6, #1
 1117              	.LVL57:
 1118              	.L107:
 716:Drivers/STM32F1xx_HAL_Driver/Src/stm32f1xx_hal_adc_ex.c ****   }
 717:Drivers/STM32F1xx_HAL_Driver/Src/stm32f1xx_hal_adc_ex.c ****   
 718:Drivers/STM32F1xx_HAL_Driver/Src/stm32f1xx_hal_adc_ex.c ****   /* Enable the ADC peripherals: master and slave (in case if not already     */
 719:Drivers/STM32F1xx_HAL_Driver/Src/stm32f1xx_hal_adc_ex.c ****   /* enabled previously)                                                      */
ARM GAS  /var/folders/2w/5wbrmvx534s_vk8svtxz852c0000gn/T//cc29HaPQ.s 			page 35


 720:Drivers/STM32F1xx_HAL_Driver/Src/stm32f1xx_hal_adc_ex.c ****   tmp_hal_status = ADC_Enable(hadc);
 721:Drivers/STM32F1xx_HAL_Driver/Src/stm32f1xx_hal_adc_ex.c ****   if (tmp_hal_status == HAL_OK)
 722:Drivers/STM32F1xx_HAL_Driver/Src/stm32f1xx_hal_adc_ex.c ****   {
 723:Drivers/STM32F1xx_HAL_Driver/Src/stm32f1xx_hal_adc_ex.c ****     tmp_hal_status = ADC_Enable(&tmphadcSlave);
 724:Drivers/STM32F1xx_HAL_Driver/Src/stm32f1xx_hal_adc_ex.c ****   }
 725:Drivers/STM32F1xx_HAL_Driver/Src/stm32f1xx_hal_adc_ex.c ****   
 726:Drivers/STM32F1xx_HAL_Driver/Src/stm32f1xx_hal_adc_ex.c ****   /* Start conversion if all ADCs of multimode are effectively enabled */
 727:Drivers/STM32F1xx_HAL_Driver/Src/stm32f1xx_hal_adc_ex.c ****   if (tmp_hal_status == HAL_OK)
 728:Drivers/STM32F1xx_HAL_Driver/Src/stm32f1xx_hal_adc_ex.c ****   {
 729:Drivers/STM32F1xx_HAL_Driver/Src/stm32f1xx_hal_adc_ex.c ****     /* Set ADC state (ADC master)                                             */
 730:Drivers/STM32F1xx_HAL_Driver/Src/stm32f1xx_hal_adc_ex.c ****     /* - Clear state bitfield related to regular group conversion results     */
 731:Drivers/STM32F1xx_HAL_Driver/Src/stm32f1xx_hal_adc_ex.c ****     /* - Set state bitfield related to regular operation                      */
 732:Drivers/STM32F1xx_HAL_Driver/Src/stm32f1xx_hal_adc_ex.c ****     ADC_STATE_CLR_SET(hadc->State,
 733:Drivers/STM32F1xx_HAL_Driver/Src/stm32f1xx_hal_adc_ex.c ****                       HAL_ADC_STATE_READY | HAL_ADC_STATE_REG_EOC | HAL_ADC_STATE_MULTIMODE_SLAVE,
 734:Drivers/STM32F1xx_HAL_Driver/Src/stm32f1xx_hal_adc_ex.c ****                       HAL_ADC_STATE_REG_BUSY);
 735:Drivers/STM32F1xx_HAL_Driver/Src/stm32f1xx_hal_adc_ex.c ****       
 736:Drivers/STM32F1xx_HAL_Driver/Src/stm32f1xx_hal_adc_ex.c ****     /* If conversions on group regular are also triggering group injected,    */
 737:Drivers/STM32F1xx_HAL_Driver/Src/stm32f1xx_hal_adc_ex.c ****     /* update ADC state.                                                      */
 738:Drivers/STM32F1xx_HAL_Driver/Src/stm32f1xx_hal_adc_ex.c ****     if (READ_BIT(hadc->Instance->CR1, ADC_CR1_JAUTO) != RESET)
 739:Drivers/STM32F1xx_HAL_Driver/Src/stm32f1xx_hal_adc_ex.c ****     {
 740:Drivers/STM32F1xx_HAL_Driver/Src/stm32f1xx_hal_adc_ex.c ****       ADC_STATE_CLR_SET(hadc->State, HAL_ADC_STATE_INJ_EOC, HAL_ADC_STATE_INJ_BUSY);  
 741:Drivers/STM32F1xx_HAL_Driver/Src/stm32f1xx_hal_adc_ex.c ****     }
 742:Drivers/STM32F1xx_HAL_Driver/Src/stm32f1xx_hal_adc_ex.c ****     
 743:Drivers/STM32F1xx_HAL_Driver/Src/stm32f1xx_hal_adc_ex.c ****     /* Process unlocked */
 744:Drivers/STM32F1xx_HAL_Driver/Src/stm32f1xx_hal_adc_ex.c ****     /* Unlock before starting ADC conversions: in case of potential           */
 745:Drivers/STM32F1xx_HAL_Driver/Src/stm32f1xx_hal_adc_ex.c ****     /* interruption, to let the process to ADC IRQ Handler.                   */
 746:Drivers/STM32F1xx_HAL_Driver/Src/stm32f1xx_hal_adc_ex.c ****     __HAL_UNLOCK(hadc);
 747:Drivers/STM32F1xx_HAL_Driver/Src/stm32f1xx_hal_adc_ex.c ****     
 748:Drivers/STM32F1xx_HAL_Driver/Src/stm32f1xx_hal_adc_ex.c ****     /* Set ADC error code to none */
 749:Drivers/STM32F1xx_HAL_Driver/Src/stm32f1xx_hal_adc_ex.c ****     ADC_CLEAR_ERRORCODE(hadc);
 750:Drivers/STM32F1xx_HAL_Driver/Src/stm32f1xx_hal_adc_ex.c ****     
 751:Drivers/STM32F1xx_HAL_Driver/Src/stm32f1xx_hal_adc_ex.c ****     
 752:Drivers/STM32F1xx_HAL_Driver/Src/stm32f1xx_hal_adc_ex.c ****     /* Set the DMA transfer complete callback */
 753:Drivers/STM32F1xx_HAL_Driver/Src/stm32f1xx_hal_adc_ex.c ****     hadc->DMA_Handle->XferCpltCallback = ADC_DMAConvCplt;
 754:Drivers/STM32F1xx_HAL_Driver/Src/stm32f1xx_hal_adc_ex.c ****        
 755:Drivers/STM32F1xx_HAL_Driver/Src/stm32f1xx_hal_adc_ex.c ****     /* Set the DMA half transfer complete callback */
 756:Drivers/STM32F1xx_HAL_Driver/Src/stm32f1xx_hal_adc_ex.c ****     hadc->DMA_Handle->XferHalfCpltCallback = ADC_DMAHalfConvCplt;
 757:Drivers/STM32F1xx_HAL_Driver/Src/stm32f1xx_hal_adc_ex.c ****     
 758:Drivers/STM32F1xx_HAL_Driver/Src/stm32f1xx_hal_adc_ex.c ****     /* Set the DMA error callback */
 759:Drivers/STM32F1xx_HAL_Driver/Src/stm32f1xx_hal_adc_ex.c ****     hadc->DMA_Handle->XferErrorCallback = ADC_DMAError;
 760:Drivers/STM32F1xx_HAL_Driver/Src/stm32f1xx_hal_adc_ex.c **** 
 761:Drivers/STM32F1xx_HAL_Driver/Src/stm32f1xx_hal_adc_ex.c ****     
 762:Drivers/STM32F1xx_HAL_Driver/Src/stm32f1xx_hal_adc_ex.c ****     /* Manage ADC and DMA start: ADC overrun interruption, DMA start, ADC     */
 763:Drivers/STM32F1xx_HAL_Driver/Src/stm32f1xx_hal_adc_ex.c ****     /* start (in case of SW start):                                           */
 764:Drivers/STM32F1xx_HAL_Driver/Src/stm32f1xx_hal_adc_ex.c ****     
 765:Drivers/STM32F1xx_HAL_Driver/Src/stm32f1xx_hal_adc_ex.c ****     /* Clear regular group conversion flag and overrun flag */
 766:Drivers/STM32F1xx_HAL_Driver/Src/stm32f1xx_hal_adc_ex.c ****     /* (To ensure of no unknown state from potential previous ADC operations) */
 767:Drivers/STM32F1xx_HAL_Driver/Src/stm32f1xx_hal_adc_ex.c ****     __HAL_ADC_CLEAR_FLAG(hadc, ADC_FLAG_EOC);
 768:Drivers/STM32F1xx_HAL_Driver/Src/stm32f1xx_hal_adc_ex.c ****     
 769:Drivers/STM32F1xx_HAL_Driver/Src/stm32f1xx_hal_adc_ex.c ****     /* Enable ADC DMA mode of ADC master */
 770:Drivers/STM32F1xx_HAL_Driver/Src/stm32f1xx_hal_adc_ex.c ****     SET_BIT(hadc->Instance->CR2, ADC_CR2_DMA);
 771:Drivers/STM32F1xx_HAL_Driver/Src/stm32f1xx_hal_adc_ex.c ****     
 772:Drivers/STM32F1xx_HAL_Driver/Src/stm32f1xx_hal_adc_ex.c ****     /* Start the DMA channel */
 773:Drivers/STM32F1xx_HAL_Driver/Src/stm32f1xx_hal_adc_ex.c ****     HAL_DMA_Start_IT(hadc->DMA_Handle, (uint32_t)&hadc->Instance->DR, (uint32_t)pData, Length);
 774:Drivers/STM32F1xx_HAL_Driver/Src/stm32f1xx_hal_adc_ex.c ****     
 775:Drivers/STM32F1xx_HAL_Driver/Src/stm32f1xx_hal_adc_ex.c ****     /* Start conversion of regular group if software start has been selected. */
 776:Drivers/STM32F1xx_HAL_Driver/Src/stm32f1xx_hal_adc_ex.c ****     /* If external trigger has been selected, conversion will start at next   */
ARM GAS  /var/folders/2w/5wbrmvx534s_vk8svtxz852c0000gn/T//cc29HaPQ.s 			page 36


 777:Drivers/STM32F1xx_HAL_Driver/Src/stm32f1xx_hal_adc_ex.c ****     /* trigger event.                                                         */
 778:Drivers/STM32F1xx_HAL_Driver/Src/stm32f1xx_hal_adc_ex.c ****     /* Note: Alternate trigger for single conversion could be to force an     */
 779:Drivers/STM32F1xx_HAL_Driver/Src/stm32f1xx_hal_adc_ex.c ****     /*       additional set of bit ADON "hadc->Instance->CR2 |= ADC_CR2_ADON;"*/
 780:Drivers/STM32F1xx_HAL_Driver/Src/stm32f1xx_hal_adc_ex.c ****     if (ADC_IS_SOFTWARE_START_REGULAR(hadc))
 781:Drivers/STM32F1xx_HAL_Driver/Src/stm32f1xx_hal_adc_ex.c ****     {
 782:Drivers/STM32F1xx_HAL_Driver/Src/stm32f1xx_hal_adc_ex.c ****       /* Start ADC conversion on regular group with SW start */
 783:Drivers/STM32F1xx_HAL_Driver/Src/stm32f1xx_hal_adc_ex.c ****       SET_BIT(hadc->Instance->CR2, (ADC_CR2_SWSTART | ADC_CR2_EXTTRIG));
 784:Drivers/STM32F1xx_HAL_Driver/Src/stm32f1xx_hal_adc_ex.c ****     }
 785:Drivers/STM32F1xx_HAL_Driver/Src/stm32f1xx_hal_adc_ex.c ****     else
 786:Drivers/STM32F1xx_HAL_Driver/Src/stm32f1xx_hal_adc_ex.c ****     {
 787:Drivers/STM32F1xx_HAL_Driver/Src/stm32f1xx_hal_adc_ex.c ****       /* Start ADC conversion on regular group with external trigger */
 788:Drivers/STM32F1xx_HAL_Driver/Src/stm32f1xx_hal_adc_ex.c ****       SET_BIT(hadc->Instance->CR2, ADC_CR2_EXTTRIG);
 789:Drivers/STM32F1xx_HAL_Driver/Src/stm32f1xx_hal_adc_ex.c ****     }
 790:Drivers/STM32F1xx_HAL_Driver/Src/stm32f1xx_hal_adc_ex.c ****   }
 791:Drivers/STM32F1xx_HAL_Driver/Src/stm32f1xx_hal_adc_ex.c ****   else
 792:Drivers/STM32F1xx_HAL_Driver/Src/stm32f1xx_hal_adc_ex.c ****   {
 793:Drivers/STM32F1xx_HAL_Driver/Src/stm32f1xx_hal_adc_ex.c ****     /* Process unlocked */
 794:Drivers/STM32F1xx_HAL_Driver/Src/stm32f1xx_hal_adc_ex.c ****     __HAL_UNLOCK(hadc);
 795:Drivers/STM32F1xx_HAL_Driver/Src/stm32f1xx_hal_adc_ex.c ****   }
 796:Drivers/STM32F1xx_HAL_Driver/Src/stm32f1xx_hal_adc_ex.c ****   
 797:Drivers/STM32F1xx_HAL_Driver/Src/stm32f1xx_hal_adc_ex.c ****   /* Return function status */
 798:Drivers/STM32F1xx_HAL_Driver/Src/stm32f1xx_hal_adc_ex.c ****   return tmp_hal_status;
 799:Drivers/STM32F1xx_HAL_Driver/Src/stm32f1xx_hal_adc_ex.c **** }
 1119              		.loc 1 799 1 view .LVU327
 1120 0038 3046     		mov	r0, r6
 1121 003a 0DB0     		add	sp, sp, #52
 1122              	.LCFI18:
 1123              		.cfi_remember_state
 1124              		.cfi_def_cfa_offset 20
 1125              		@ sp needed
 1126 003c F0BD     		pop	{r4, r5, r6, r7, pc}
 1127              	.LVL58:
 1128              	.L108:
 1129              	.LCFI19:
 1130              		.cfi_restore_state
 720:Drivers/STM32F1xx_HAL_Driver/Src/stm32f1xx_hal_adc_ex.c ****   if (tmp_hal_status == HAL_OK)
 1131              		.loc 1 720 3 is_stmt 1 view .LVU328
 720:Drivers/STM32F1xx_HAL_Driver/Src/stm32f1xx_hal_adc_ex.c ****   if (tmp_hal_status == HAL_OK)
 1132              		.loc 1 720 20 is_stmt 0 view .LVU329
 1133 003e 2046     		mov	r0, r4
 1134 0040 FFF7FEFF 		bl	ADC_Enable
 1135              	.LVL59:
 721:Drivers/STM32F1xx_HAL_Driver/Src/stm32f1xx_hal_adc_ex.c ****   {
 1136              		.loc 1 721 3 is_stmt 1 view .LVU330
 721:Drivers/STM32F1xx_HAL_Driver/Src/stm32f1xx_hal_adc_ex.c ****   {
 1137              		.loc 1 721 6 is_stmt 0 view .LVU331
 1138 0044 0646     		mov	r6, r0
 1139 0046 0028     		cmp	r0, #0
 1140 0048 3BD0     		beq	.L115
 1141              	.LVL60:
 1142              	.L109:
 727:Drivers/STM32F1xx_HAL_Driver/Src/stm32f1xx_hal_adc_ex.c ****   {
 1143              		.loc 1 727 3 is_stmt 1 view .LVU332
 727:Drivers/STM32F1xx_HAL_Driver/Src/stm32f1xx_hal_adc_ex.c ****   {
 1144              		.loc 1 727 6 is_stmt 0 view .LVU333
 1145 004a 002E     		cmp	r6, #0
 1146 004c 43D1     		bne	.L110
ARM GAS  /var/folders/2w/5wbrmvx534s_vk8svtxz852c0000gn/T//cc29HaPQ.s 			page 37


 732:Drivers/STM32F1xx_HAL_Driver/Src/stm32f1xx_hal_adc_ex.c ****                       HAL_ADC_STATE_READY | HAL_ADC_STATE_REG_EOC | HAL_ADC_STATE_MULTIMODE_SLAVE,
 1147              		.loc 1 732 5 is_stmt 1 view .LVU334
 1148 004e A26A     		ldr	r2, [r4, #40]
 1149 0050 254B     		ldr	r3, .L117+4
 1150 0052 1340     		ands	r3, r3, r2
 1151 0054 43F48073 		orr	r3, r3, #256
 1152 0058 A362     		str	r3, [r4, #40]
 738:Drivers/STM32F1xx_HAL_Driver/Src/stm32f1xx_hal_adc_ex.c ****     {
 1153              		.loc 1 738 5 view .LVU335
 738:Drivers/STM32F1xx_HAL_Driver/Src/stm32f1xx_hal_adc_ex.c ****     {
 1154              		.loc 1 738 9 is_stmt 0 view .LVU336
 1155 005a 2368     		ldr	r3, [r4]
 1156 005c 5B68     		ldr	r3, [r3, #4]
 738:Drivers/STM32F1xx_HAL_Driver/Src/stm32f1xx_hal_adc_ex.c ****     {
 1157              		.loc 1 738 8 view .LVU337
 1158 005e 13F4806F 		tst	r3, #1024
 1159 0062 05D0     		beq	.L111
 740:Drivers/STM32F1xx_HAL_Driver/Src/stm32f1xx_hal_adc_ex.c ****     }
 1160              		.loc 1 740 7 is_stmt 1 view .LVU338
 1161 0064 A36A     		ldr	r3, [r4, #40]
 1162 0066 23F44053 		bic	r3, r3, #12288
 1163 006a 43F48053 		orr	r3, r3, #4096
 1164 006e A362     		str	r3, [r4, #40]
 1165              	.L111:
 746:Drivers/STM32F1xx_HAL_Driver/Src/stm32f1xx_hal_adc_ex.c ****     
 1166              		.loc 1 746 5 view .LVU339
 746:Drivers/STM32F1xx_HAL_Driver/Src/stm32f1xx_hal_adc_ex.c ****     
 1167              		.loc 1 746 5 view .LVU340
 1168 0070 0023     		movs	r3, #0
 1169 0072 84F82430 		strb	r3, [r4, #36]
 746:Drivers/STM32F1xx_HAL_Driver/Src/stm32f1xx_hal_adc_ex.c ****     
 1170              		.loc 1 746 5 view .LVU341
 749:Drivers/STM32F1xx_HAL_Driver/Src/stm32f1xx_hal_adc_ex.c ****     
 1171              		.loc 1 749 5 view .LVU342
 1172 0076 E362     		str	r3, [r4, #44]
 753:Drivers/STM32F1xx_HAL_Driver/Src/stm32f1xx_hal_adc_ex.c ****        
 1173              		.loc 1 753 5 view .LVU343
 753:Drivers/STM32F1xx_HAL_Driver/Src/stm32f1xx_hal_adc_ex.c ****        
 1174              		.loc 1 753 9 is_stmt 0 view .LVU344
 1175 0078 236A     		ldr	r3, [r4, #32]
 753:Drivers/STM32F1xx_HAL_Driver/Src/stm32f1xx_hal_adc_ex.c ****        
 1176              		.loc 1 753 40 view .LVU345
 1177 007a 1C4A     		ldr	r2, .L117+8
 1178 007c 9A62     		str	r2, [r3, #40]
 756:Drivers/STM32F1xx_HAL_Driver/Src/stm32f1xx_hal_adc_ex.c ****     
 1179              		.loc 1 756 5 is_stmt 1 view .LVU346
 756:Drivers/STM32F1xx_HAL_Driver/Src/stm32f1xx_hal_adc_ex.c ****     
 1180              		.loc 1 756 9 is_stmt 0 view .LVU347
 1181 007e 236A     		ldr	r3, [r4, #32]
 756:Drivers/STM32F1xx_HAL_Driver/Src/stm32f1xx_hal_adc_ex.c ****     
 1182              		.loc 1 756 44 view .LVU348
 1183 0080 1B4A     		ldr	r2, .L117+12
 1184 0082 DA62     		str	r2, [r3, #44]
 759:Drivers/STM32F1xx_HAL_Driver/Src/stm32f1xx_hal_adc_ex.c **** 
 1185              		.loc 1 759 5 is_stmt 1 view .LVU349
 759:Drivers/STM32F1xx_HAL_Driver/Src/stm32f1xx_hal_adc_ex.c **** 
 1186              		.loc 1 759 9 is_stmt 0 view .LVU350
ARM GAS  /var/folders/2w/5wbrmvx534s_vk8svtxz852c0000gn/T//cc29HaPQ.s 			page 38


 1187 0084 236A     		ldr	r3, [r4, #32]
 759:Drivers/STM32F1xx_HAL_Driver/Src/stm32f1xx_hal_adc_ex.c **** 
 1188              		.loc 1 759 41 view .LVU351
 1189 0086 1B4A     		ldr	r2, .L117+16
 1190 0088 1A63     		str	r2, [r3, #48]
 767:Drivers/STM32F1xx_HAL_Driver/Src/stm32f1xx_hal_adc_ex.c ****     
 1191              		.loc 1 767 5 is_stmt 1 view .LVU352
 1192 008a 2368     		ldr	r3, [r4]
 1193 008c 6FF00202 		mvn	r2, #2
 1194 0090 1A60     		str	r2, [r3]
 770:Drivers/STM32F1xx_HAL_Driver/Src/stm32f1xx_hal_adc_ex.c ****     
 1195              		.loc 1 770 5 view .LVU353
 1196 0092 2268     		ldr	r2, [r4]
 1197 0094 9368     		ldr	r3, [r2, #8]
 1198 0096 43F48073 		orr	r3, r3, #256
 1199 009a 9360     		str	r3, [r2, #8]
 773:Drivers/STM32F1xx_HAL_Driver/Src/stm32f1xx_hal_adc_ex.c ****     
 1200              		.loc 1 773 5 view .LVU354
 773:Drivers/STM32F1xx_HAL_Driver/Src/stm32f1xx_hal_adc_ex.c ****     
 1201              		.loc 1 773 55 is_stmt 0 view .LVU355
 1202 009c 2168     		ldr	r1, [r4]
 773:Drivers/STM32F1xx_HAL_Driver/Src/stm32f1xx_hal_adc_ex.c ****     
 1203              		.loc 1 773 5 view .LVU356
 1204 009e 3B46     		mov	r3, r7
 1205 00a0 2A46     		mov	r2, r5
 1206 00a2 4C31     		adds	r1, r1, #76
 1207 00a4 206A     		ldr	r0, [r4, #32]
 1208 00a6 FFF7FEFF 		bl	HAL_DMA_Start_IT
 1209              	.LVL61:
 780:Drivers/STM32F1xx_HAL_Driver/Src/stm32f1xx_hal_adc_ex.c ****     {
 1210              		.loc 1 780 5 is_stmt 1 view .LVU357
 780:Drivers/STM32F1xx_HAL_Driver/Src/stm32f1xx_hal_adc_ex.c ****     {
 1211              		.loc 1 780 9 is_stmt 0 view .LVU358
 1212 00aa 2368     		ldr	r3, [r4]
 1213 00ac 9A68     		ldr	r2, [r3, #8]
 1214 00ae 02F46022 		and	r2, r2, #917504
 780:Drivers/STM32F1xx_HAL_Driver/Src/stm32f1xx_hal_adc_ex.c ****     {
 1215              		.loc 1 780 8 view .LVU359
 1216 00b2 B2F5602F 		cmp	r2, #917504
 1217 00b6 09D0     		beq	.L116
 788:Drivers/STM32F1xx_HAL_Driver/Src/stm32f1xx_hal_adc_ex.c ****     }
 1218              		.loc 1 788 7 is_stmt 1 view .LVU360
 1219 00b8 9A68     		ldr	r2, [r3, #8]
 1220 00ba 42F48012 		orr	r2, r2, #1048576
 1221 00be 9A60     		str	r2, [r3, #8]
 1222 00c0 BAE7     		b	.L107
 1223              	.LVL62:
 1224              	.L115:
 723:Drivers/STM32F1xx_HAL_Driver/Src/stm32f1xx_hal_adc_ex.c ****   }
 1225              		.loc 1 723 5 view .LVU361
 723:Drivers/STM32F1xx_HAL_Driver/Src/stm32f1xx_hal_adc_ex.c ****   }
 1226              		.loc 1 723 22 is_stmt 0 view .LVU362
 1227 00c2 6846     		mov	r0, sp
 1228              	.LVL63:
 723:Drivers/STM32F1xx_HAL_Driver/Src/stm32f1xx_hal_adc_ex.c ****   }
 1229              		.loc 1 723 22 view .LVU363
 1230 00c4 FFF7FEFF 		bl	ADC_Enable
ARM GAS  /var/folders/2w/5wbrmvx534s_vk8svtxz852c0000gn/T//cc29HaPQ.s 			page 39


 1231              	.LVL64:
 1232 00c8 0646     		mov	r6, r0
 1233              	.LVL65:
 723:Drivers/STM32F1xx_HAL_Driver/Src/stm32f1xx_hal_adc_ex.c ****   }
 1234              		.loc 1 723 22 view .LVU364
 1235 00ca BEE7     		b	.L109
 1236              	.L116:
 783:Drivers/STM32F1xx_HAL_Driver/Src/stm32f1xx_hal_adc_ex.c ****     }
 1237              		.loc 1 783 7 is_stmt 1 view .LVU365
 1238 00cc 9A68     		ldr	r2, [r3, #8]
 1239 00ce 42F4A002 		orr	r2, r2, #5242880
 1240 00d2 9A60     		str	r2, [r3, #8]
 1241 00d4 B0E7     		b	.L107
 1242              	.L110:
 794:Drivers/STM32F1xx_HAL_Driver/Src/stm32f1xx_hal_adc_ex.c ****   }
 1243              		.loc 1 794 5 view .LVU366
 794:Drivers/STM32F1xx_HAL_Driver/Src/stm32f1xx_hal_adc_ex.c ****   }
 1244              		.loc 1 794 5 view .LVU367
 1245 00d6 0023     		movs	r3, #0
 1246 00d8 84F82430 		strb	r3, [r4, #36]
 1247 00dc ACE7     		b	.L107
 1248              	.LVL66:
 1249              	.L113:
 698:Drivers/STM32F1xx_HAL_Driver/Src/stm32f1xx_hal_adc_ex.c **** 
 1250              		.loc 1 698 3 is_stmt 0 view .LVU368
 1251 00de 0226     		movs	r6, #2
 1252 00e0 AAE7     		b	.L107
 1253              	.L118:
 1254 00e2 00BF     		.align	2
 1255              	.L117:
 1256 00e4 00280140 		.word	1073817600
 1257 00e8 FEFCEFFF 		.word	-1049346
 1258 00ec 00000000 		.word	ADC_DMAConvCplt
 1259 00f0 00000000 		.word	ADC_DMAHalfConvCplt
 1260 00f4 00000000 		.word	ADC_DMAError
 1261              		.cfi_endproc
 1262              	.LFE72:
 1264              		.section	.text.HAL_ADCEx_MultiModeStop_DMA,"ax",%progbits
 1265              		.align	1
 1266              		.global	HAL_ADCEx_MultiModeStop_DMA
 1267              		.syntax unified
 1268              		.thumb
 1269              		.thumb_func
 1271              	HAL_ADCEx_MultiModeStop_DMA:
 1272              	.LVL67:
 1273              	.LFB73:
 800:Drivers/STM32F1xx_HAL_Driver/Src/stm32f1xx_hal_adc_ex.c **** 
 801:Drivers/STM32F1xx_HAL_Driver/Src/stm32f1xx_hal_adc_ex.c **** /**
 802:Drivers/STM32F1xx_HAL_Driver/Src/stm32f1xx_hal_adc_ex.c ****   * @brief  Stop ADC conversion of regular group (and injected channels in 
 803:Drivers/STM32F1xx_HAL_Driver/Src/stm32f1xx_hal_adc_ex.c ****   *         case of auto_injection mode), disable ADC DMA transfer, disable 
 804:Drivers/STM32F1xx_HAL_Driver/Src/stm32f1xx_hal_adc_ex.c ****   *         ADC peripheral.
 805:Drivers/STM32F1xx_HAL_Driver/Src/stm32f1xx_hal_adc_ex.c ****   * @note   Multimode is kept enabled after this function. To disable multimode 
 806:Drivers/STM32F1xx_HAL_Driver/Src/stm32f1xx_hal_adc_ex.c ****   *         (set with HAL_ADCEx_MultiModeConfigChannel(), ADC must be 
 807:Drivers/STM32F1xx_HAL_Driver/Src/stm32f1xx_hal_adc_ex.c ****   *         reinitialized using HAL_ADC_Init() or HAL_ADC_ReInit().
 808:Drivers/STM32F1xx_HAL_Driver/Src/stm32f1xx_hal_adc_ex.c ****   * @note   In case of DMA configured in circular mode, function 
 809:Drivers/STM32F1xx_HAL_Driver/Src/stm32f1xx_hal_adc_ex.c ****   *         HAL_ADC_Stop_DMA must be called after this function with handle of
 810:Drivers/STM32F1xx_HAL_Driver/Src/stm32f1xx_hal_adc_ex.c ****   *         ADC slave, to properly disable the DMA channel.
ARM GAS  /var/folders/2w/5wbrmvx534s_vk8svtxz852c0000gn/T//cc29HaPQ.s 			page 40


 811:Drivers/STM32F1xx_HAL_Driver/Src/stm32f1xx_hal_adc_ex.c ****   * @param  hadc: ADC handle of ADC master (handle of ADC slave must not be used)
 812:Drivers/STM32F1xx_HAL_Driver/Src/stm32f1xx_hal_adc_ex.c ****   * @retval None
 813:Drivers/STM32F1xx_HAL_Driver/Src/stm32f1xx_hal_adc_ex.c ****   */
 814:Drivers/STM32F1xx_HAL_Driver/Src/stm32f1xx_hal_adc_ex.c **** HAL_StatusTypeDef HAL_ADCEx_MultiModeStop_DMA(ADC_HandleTypeDef* hadc)
 815:Drivers/STM32F1xx_HAL_Driver/Src/stm32f1xx_hal_adc_ex.c **** {
 1274              		.loc 1 815 1 is_stmt 1 view -0
 1275              		.cfi_startproc
 1276              		@ args = 0, pretend = 0, frame = 48
 1277              		@ frame_needed = 0, uses_anonymous_args = 0
 816:Drivers/STM32F1xx_HAL_Driver/Src/stm32f1xx_hal_adc_ex.c ****   HAL_StatusTypeDef tmp_hal_status = HAL_OK;
 1278              		.loc 1 816 3 view .LVU370
 817:Drivers/STM32F1xx_HAL_Driver/Src/stm32f1xx_hal_adc_ex.c ****   ADC_HandleTypeDef tmphadcSlave;
 1279              		.loc 1 817 3 view .LVU371
 818:Drivers/STM32F1xx_HAL_Driver/Src/stm32f1xx_hal_adc_ex.c ****   
 819:Drivers/STM32F1xx_HAL_Driver/Src/stm32f1xx_hal_adc_ex.c ****   /* Check the parameters */
 820:Drivers/STM32F1xx_HAL_Driver/Src/stm32f1xx_hal_adc_ex.c ****   assert_param(IS_ADC_MULTIMODE_MASTER_INSTANCE(hadc->Instance));
 1280              		.loc 1 820 3 view .LVU372
 821:Drivers/STM32F1xx_HAL_Driver/Src/stm32f1xx_hal_adc_ex.c ****   
 822:Drivers/STM32F1xx_HAL_Driver/Src/stm32f1xx_hal_adc_ex.c ****   /* Process locked */
 823:Drivers/STM32F1xx_HAL_Driver/Src/stm32f1xx_hal_adc_ex.c ****   __HAL_LOCK(hadc);
 1281              		.loc 1 823 3 view .LVU373
 1282              		.loc 1 823 3 view .LVU374
 1283 0000 90F82430 		ldrb	r3, [r0, #36]	@ zero_extendqisi2
 1284 0004 012B     		cmp	r3, #1
 1285 0006 32D0     		beq	.L123
 815:Drivers/STM32F1xx_HAL_Driver/Src/stm32f1xx_hal_adc_ex.c ****   HAL_StatusTypeDef tmp_hal_status = HAL_OK;
 1286              		.loc 1 815 1 is_stmt 0 discriminator 2 view .LVU375
 1287 0008 10B5     		push	{r4, lr}
 1288              	.LCFI20:
 1289              		.cfi_def_cfa_offset 8
 1290              		.cfi_offset 4, -8
 1291              		.cfi_offset 14, -4
 1292 000a 8CB0     		sub	sp, sp, #48
 1293              	.LCFI21:
 1294              		.cfi_def_cfa_offset 56
 1295 000c 0446     		mov	r4, r0
 1296              		.loc 1 823 3 is_stmt 1 discriminator 2 view .LVU376
 1297 000e 0123     		movs	r3, #1
 1298 0010 80F82430 		strb	r3, [r0, #36]
 1299              		.loc 1 823 3 discriminator 2 view .LVU377
 824:Drivers/STM32F1xx_HAL_Driver/Src/stm32f1xx_hal_adc_ex.c ****   
 825:Drivers/STM32F1xx_HAL_Driver/Src/stm32f1xx_hal_adc_ex.c ****  
 826:Drivers/STM32F1xx_HAL_Driver/Src/stm32f1xx_hal_adc_ex.c ****   /* Stop potential conversion on going, on regular and injected groups */
 827:Drivers/STM32F1xx_HAL_Driver/Src/stm32f1xx_hal_adc_ex.c ****   /* Disable ADC master peripheral */
 828:Drivers/STM32F1xx_HAL_Driver/Src/stm32f1xx_hal_adc_ex.c ****   tmp_hal_status = ADC_ConversionStop_Disable(hadc);
 1300              		.loc 1 828 3 discriminator 2 view .LVU378
 1301              		.loc 1 828 20 is_stmt 0 discriminator 2 view .LVU379
 1302 0014 FFF7FEFF 		bl	ADC_ConversionStop_Disable
 1303              	.LVL68:
 829:Drivers/STM32F1xx_HAL_Driver/Src/stm32f1xx_hal_adc_ex.c ****   
 830:Drivers/STM32F1xx_HAL_Driver/Src/stm32f1xx_hal_adc_ex.c ****   /* Check if ADC is effectively disabled */
 831:Drivers/STM32F1xx_HAL_Driver/Src/stm32f1xx_hal_adc_ex.c ****   if(tmp_hal_status == HAL_OK)
 1304              		.loc 1 831 3 is_stmt 1 discriminator 2 view .LVU380
 1305              		.loc 1 831 5 is_stmt 0 discriminator 2 view .LVU381
 1306 0018 20B1     		cbz	r0, .L128
 1307              	.L121:
 832:Drivers/STM32F1xx_HAL_Driver/Src/stm32f1xx_hal_adc_ex.c ****   {
ARM GAS  /var/folders/2w/5wbrmvx534s_vk8svtxz852c0000gn/T//cc29HaPQ.s 			page 41


 833:Drivers/STM32F1xx_HAL_Driver/Src/stm32f1xx_hal_adc_ex.c ****     /* Set a temporary handle of the ADC slave associated to the ADC master   */
 834:Drivers/STM32F1xx_HAL_Driver/Src/stm32f1xx_hal_adc_ex.c ****     ADC_MULTI_SLAVE(hadc, &tmphadcSlave);
 835:Drivers/STM32F1xx_HAL_Driver/Src/stm32f1xx_hal_adc_ex.c **** 
 836:Drivers/STM32F1xx_HAL_Driver/Src/stm32f1xx_hal_adc_ex.c ****     /* Disable ADC slave peripheral */
 837:Drivers/STM32F1xx_HAL_Driver/Src/stm32f1xx_hal_adc_ex.c ****     tmp_hal_status = ADC_ConversionStop_Disable(&tmphadcSlave);
 838:Drivers/STM32F1xx_HAL_Driver/Src/stm32f1xx_hal_adc_ex.c **** 
 839:Drivers/STM32F1xx_HAL_Driver/Src/stm32f1xx_hal_adc_ex.c ****     /* Check if ADC is effectively disabled */
 840:Drivers/STM32F1xx_HAL_Driver/Src/stm32f1xx_hal_adc_ex.c ****     if(tmp_hal_status != HAL_OK)
 841:Drivers/STM32F1xx_HAL_Driver/Src/stm32f1xx_hal_adc_ex.c ****     {
 842:Drivers/STM32F1xx_HAL_Driver/Src/stm32f1xx_hal_adc_ex.c ****       /* Update ADC state machine to error */
 843:Drivers/STM32F1xx_HAL_Driver/Src/stm32f1xx_hal_adc_ex.c ****       SET_BIT(hadc->State, HAL_ADC_STATE_ERROR_INTERNAL);
 844:Drivers/STM32F1xx_HAL_Driver/Src/stm32f1xx_hal_adc_ex.c **** 
 845:Drivers/STM32F1xx_HAL_Driver/Src/stm32f1xx_hal_adc_ex.c ****       /* Process unlocked */
 846:Drivers/STM32F1xx_HAL_Driver/Src/stm32f1xx_hal_adc_ex.c ****       __HAL_UNLOCK(hadc);
 847:Drivers/STM32F1xx_HAL_Driver/Src/stm32f1xx_hal_adc_ex.c **** 
 848:Drivers/STM32F1xx_HAL_Driver/Src/stm32f1xx_hal_adc_ex.c ****       return HAL_ERROR;
 849:Drivers/STM32F1xx_HAL_Driver/Src/stm32f1xx_hal_adc_ex.c ****     }
 850:Drivers/STM32F1xx_HAL_Driver/Src/stm32f1xx_hal_adc_ex.c **** 
 851:Drivers/STM32F1xx_HAL_Driver/Src/stm32f1xx_hal_adc_ex.c ****     /* Disable ADC DMA mode */
 852:Drivers/STM32F1xx_HAL_Driver/Src/stm32f1xx_hal_adc_ex.c ****     CLEAR_BIT(hadc->Instance->CR2, ADC_CR2_DMA);
 853:Drivers/STM32F1xx_HAL_Driver/Src/stm32f1xx_hal_adc_ex.c ****     
 854:Drivers/STM32F1xx_HAL_Driver/Src/stm32f1xx_hal_adc_ex.c ****     /* Reset configuration of ADC DMA continuous request for dual mode */
 855:Drivers/STM32F1xx_HAL_Driver/Src/stm32f1xx_hal_adc_ex.c ****     CLEAR_BIT(hadc->Instance->CR1, ADC_CR1_DUALMOD);
 856:Drivers/STM32F1xx_HAL_Driver/Src/stm32f1xx_hal_adc_ex.c ****         
 857:Drivers/STM32F1xx_HAL_Driver/Src/stm32f1xx_hal_adc_ex.c ****     /* Disable the DMA channel (in case of DMA in circular mode or stop while */
 858:Drivers/STM32F1xx_HAL_Driver/Src/stm32f1xx_hal_adc_ex.c ****     /* while DMA transfer is on going)                                        */
 859:Drivers/STM32F1xx_HAL_Driver/Src/stm32f1xx_hal_adc_ex.c ****     tmp_hal_status = HAL_DMA_Abort(hadc->DMA_Handle);
 860:Drivers/STM32F1xx_HAL_Driver/Src/stm32f1xx_hal_adc_ex.c **** 
 861:Drivers/STM32F1xx_HAL_Driver/Src/stm32f1xx_hal_adc_ex.c ****     /* Change ADC state (ADC master) */
 862:Drivers/STM32F1xx_HAL_Driver/Src/stm32f1xx_hal_adc_ex.c ****     ADC_STATE_CLR_SET(hadc->State,
 863:Drivers/STM32F1xx_HAL_Driver/Src/stm32f1xx_hal_adc_ex.c ****                       HAL_ADC_STATE_REG_BUSY | HAL_ADC_STATE_INJ_BUSY,
 864:Drivers/STM32F1xx_HAL_Driver/Src/stm32f1xx_hal_adc_ex.c ****                       HAL_ADC_STATE_READY);
 865:Drivers/STM32F1xx_HAL_Driver/Src/stm32f1xx_hal_adc_ex.c ****   }
 866:Drivers/STM32F1xx_HAL_Driver/Src/stm32f1xx_hal_adc_ex.c ****   
 867:Drivers/STM32F1xx_HAL_Driver/Src/stm32f1xx_hal_adc_ex.c ****   /* Process unlocked */
 868:Drivers/STM32F1xx_HAL_Driver/Src/stm32f1xx_hal_adc_ex.c ****   __HAL_UNLOCK(hadc);
 1308              		.loc 1 868 3 is_stmt 1 view .LVU382
 1309              		.loc 1 868 3 view .LVU383
 1310 001a 0023     		movs	r3, #0
 1311 001c 84F82430 		strb	r3, [r4, #36]
 1312              		.loc 1 868 3 view .LVU384
 869:Drivers/STM32F1xx_HAL_Driver/Src/stm32f1xx_hal_adc_ex.c ****   
 870:Drivers/STM32F1xx_HAL_Driver/Src/stm32f1xx_hal_adc_ex.c ****   /* Return function status */
 871:Drivers/STM32F1xx_HAL_Driver/Src/stm32f1xx_hal_adc_ex.c ****   return tmp_hal_status;
 1313              		.loc 1 871 3 view .LVU385
 1314              	.LVL69:
 1315              	.L120:
 872:Drivers/STM32F1xx_HAL_Driver/Src/stm32f1xx_hal_adc_ex.c **** }
 1316              		.loc 1 872 1 is_stmt 0 view .LVU386
 1317 0020 0CB0     		add	sp, sp, #48
 1318              	.LCFI22:
 1319              		.cfi_remember_state
 1320              		.cfi_def_cfa_offset 8
 1321              		@ sp needed
 1322 0022 10BD     		pop	{r4, pc}
 1323              	.LVL70:
 1324              	.L128:
ARM GAS  /var/folders/2w/5wbrmvx534s_vk8svtxz852c0000gn/T//cc29HaPQ.s 			page 42


 1325              	.LCFI23:
 1326              		.cfi_restore_state
 834:Drivers/STM32F1xx_HAL_Driver/Src/stm32f1xx_hal_adc_ex.c **** 
 1327              		.loc 1 834 5 is_stmt 1 view .LVU387
 1328 0024 134B     		ldr	r3, .L129
 1329 0026 0093     		str	r3, [sp]
 837:Drivers/STM32F1xx_HAL_Driver/Src/stm32f1xx_hal_adc_ex.c **** 
 1330              		.loc 1 837 5 view .LVU388
 837:Drivers/STM32F1xx_HAL_Driver/Src/stm32f1xx_hal_adc_ex.c **** 
 1331              		.loc 1 837 22 is_stmt 0 view .LVU389
 1332 0028 6846     		mov	r0, sp
 1333              	.LVL71:
 837:Drivers/STM32F1xx_HAL_Driver/Src/stm32f1xx_hal_adc_ex.c **** 
 1334              		.loc 1 837 22 view .LVU390
 1335 002a FFF7FEFF 		bl	ADC_ConversionStop_Disable
 1336              	.LVL72:
 840:Drivers/STM32F1xx_HAL_Driver/Src/stm32f1xx_hal_adc_ex.c ****     {
 1337              		.loc 1 840 5 is_stmt 1 view .LVU391
 840:Drivers/STM32F1xx_HAL_Driver/Src/stm32f1xx_hal_adc_ex.c ****     {
 1338              		.loc 1 840 7 is_stmt 0 view .LVU392
 1339 002e 40B1     		cbz	r0, .L122
 843:Drivers/STM32F1xx_HAL_Driver/Src/stm32f1xx_hal_adc_ex.c **** 
 1340              		.loc 1 843 7 is_stmt 1 view .LVU393
 1341 0030 A36A     		ldr	r3, [r4, #40]
 1342 0032 43F01003 		orr	r3, r3, #16
 1343 0036 A362     		str	r3, [r4, #40]
 846:Drivers/STM32F1xx_HAL_Driver/Src/stm32f1xx_hal_adc_ex.c **** 
 1344              		.loc 1 846 7 view .LVU394
 846:Drivers/STM32F1xx_HAL_Driver/Src/stm32f1xx_hal_adc_ex.c **** 
 1345              		.loc 1 846 7 view .LVU395
 1346 0038 0023     		movs	r3, #0
 1347 003a 84F82430 		strb	r3, [r4, #36]
 846:Drivers/STM32F1xx_HAL_Driver/Src/stm32f1xx_hal_adc_ex.c **** 
 1348              		.loc 1 846 7 view .LVU396
 848:Drivers/STM32F1xx_HAL_Driver/Src/stm32f1xx_hal_adc_ex.c ****     }
 1349              		.loc 1 848 7 view .LVU397
 848:Drivers/STM32F1xx_HAL_Driver/Src/stm32f1xx_hal_adc_ex.c ****     }
 1350              		.loc 1 848 14 is_stmt 0 view .LVU398
 1351 003e 0120     		movs	r0, #1
 1352              	.LVL73:
 848:Drivers/STM32F1xx_HAL_Driver/Src/stm32f1xx_hal_adc_ex.c ****     }
 1353              		.loc 1 848 14 view .LVU399
 1354 0040 EEE7     		b	.L120
 1355              	.LVL74:
 1356              	.L122:
 852:Drivers/STM32F1xx_HAL_Driver/Src/stm32f1xx_hal_adc_ex.c ****     
 1357              		.loc 1 852 5 is_stmt 1 view .LVU400
 1358 0042 2268     		ldr	r2, [r4]
 1359 0044 9368     		ldr	r3, [r2, #8]
 1360 0046 23F48073 		bic	r3, r3, #256
 1361 004a 9360     		str	r3, [r2, #8]
 855:Drivers/STM32F1xx_HAL_Driver/Src/stm32f1xx_hal_adc_ex.c ****         
 1362              		.loc 1 855 5 view .LVU401
 1363 004c 2268     		ldr	r2, [r4]
 1364 004e 5368     		ldr	r3, [r2, #4]
 1365 0050 23F47023 		bic	r3, r3, #983040
 1366 0054 5360     		str	r3, [r2, #4]
ARM GAS  /var/folders/2w/5wbrmvx534s_vk8svtxz852c0000gn/T//cc29HaPQ.s 			page 43


 859:Drivers/STM32F1xx_HAL_Driver/Src/stm32f1xx_hal_adc_ex.c **** 
 1367              		.loc 1 859 5 view .LVU402
 859:Drivers/STM32F1xx_HAL_Driver/Src/stm32f1xx_hal_adc_ex.c **** 
 1368              		.loc 1 859 22 is_stmt 0 view .LVU403
 1369 0056 206A     		ldr	r0, [r4, #32]
 1370              	.LVL75:
 859:Drivers/STM32F1xx_HAL_Driver/Src/stm32f1xx_hal_adc_ex.c **** 
 1371              		.loc 1 859 22 view .LVU404
 1372 0058 FFF7FEFF 		bl	HAL_DMA_Abort
 1373              	.LVL76:
 862:Drivers/STM32F1xx_HAL_Driver/Src/stm32f1xx_hal_adc_ex.c ****                       HAL_ADC_STATE_REG_BUSY | HAL_ADC_STATE_INJ_BUSY,
 1374              		.loc 1 862 5 is_stmt 1 view .LVU405
 1375 005c A36A     		ldr	r3, [r4, #40]
 1376 005e 23F48853 		bic	r3, r3, #4352
 1377 0062 23F00103 		bic	r3, r3, #1
 1378 0066 43F00103 		orr	r3, r3, #1
 1379 006a A362     		str	r3, [r4, #40]
 1380 006c D5E7     		b	.L121
 1381              	.LVL77:
 1382              	.L123:
 1383              	.LCFI24:
 1384              		.cfi_def_cfa_offset 0
 1385              		.cfi_restore 4
 1386              		.cfi_restore 14
 823:Drivers/STM32F1xx_HAL_Driver/Src/stm32f1xx_hal_adc_ex.c ****   
 1387              		.loc 1 823 3 is_stmt 0 view .LVU406
 1388 006e 0220     		movs	r0, #2
 1389              	.LVL78:
 1390              		.loc 1 872 1 view .LVU407
 1391 0070 7047     		bx	lr
 1392              	.L130:
 1393 0072 00BF     		.align	2
 1394              	.L129:
 1395 0074 00280140 		.word	1073817600
 1396              		.cfi_endproc
 1397              	.LFE73:
 1399              		.section	.text.HAL_ADCEx_InjectedGetValue,"ax",%progbits
 1400              		.align	1
 1401              		.global	HAL_ADCEx_InjectedGetValue
 1402              		.syntax unified
 1403              		.thumb
 1404              		.thumb_func
 1406              	HAL_ADCEx_InjectedGetValue:
 1407              	.LVL79:
 1408              	.LFB74:
 873:Drivers/STM32F1xx_HAL_Driver/Src/stm32f1xx_hal_adc_ex.c **** #endif /* defined STM32F103x6 || defined STM32F103xB || defined STM32F105xC || defined STM32F107xC 
 874:Drivers/STM32F1xx_HAL_Driver/Src/stm32f1xx_hal_adc_ex.c **** 
 875:Drivers/STM32F1xx_HAL_Driver/Src/stm32f1xx_hal_adc_ex.c **** /**
 876:Drivers/STM32F1xx_HAL_Driver/Src/stm32f1xx_hal_adc_ex.c ****   * @brief  Get ADC injected group conversion result.
 877:Drivers/STM32F1xx_HAL_Driver/Src/stm32f1xx_hal_adc_ex.c ****   * @note   Reading register JDRx automatically clears ADC flag JEOC
 878:Drivers/STM32F1xx_HAL_Driver/Src/stm32f1xx_hal_adc_ex.c ****   *         (ADC group injected end of unitary conversion).
 879:Drivers/STM32F1xx_HAL_Driver/Src/stm32f1xx_hal_adc_ex.c ****   * @note   This function does not clear ADC flag JEOS 
 880:Drivers/STM32F1xx_HAL_Driver/Src/stm32f1xx_hal_adc_ex.c ****   *         (ADC group injected end of sequence conversion)
 881:Drivers/STM32F1xx_HAL_Driver/Src/stm32f1xx_hal_adc_ex.c ****   *         Occurrence of flag JEOS rising:
 882:Drivers/STM32F1xx_HAL_Driver/Src/stm32f1xx_hal_adc_ex.c ****   *          - If sequencer is composed of 1 rank, flag JEOS is equivalent
 883:Drivers/STM32F1xx_HAL_Driver/Src/stm32f1xx_hal_adc_ex.c ****   *            to flag JEOC.
 884:Drivers/STM32F1xx_HAL_Driver/Src/stm32f1xx_hal_adc_ex.c ****   *          - If sequencer is composed of several ranks, during the scan
ARM GAS  /var/folders/2w/5wbrmvx534s_vk8svtxz852c0000gn/T//cc29HaPQ.s 			page 44


 885:Drivers/STM32F1xx_HAL_Driver/Src/stm32f1xx_hal_adc_ex.c ****   *            sequence flag JEOC only is raised, at the end of the scan sequence
 886:Drivers/STM32F1xx_HAL_Driver/Src/stm32f1xx_hal_adc_ex.c ****   *            both flags JEOC and EOS are raised.
 887:Drivers/STM32F1xx_HAL_Driver/Src/stm32f1xx_hal_adc_ex.c ****   *         Flag JEOS must not be cleared by this function because
 888:Drivers/STM32F1xx_HAL_Driver/Src/stm32f1xx_hal_adc_ex.c ****   *         it would not be compliant with low power features
 889:Drivers/STM32F1xx_HAL_Driver/Src/stm32f1xx_hal_adc_ex.c ****   *         (feature low power auto-wait, not available on all STM32 families).
 890:Drivers/STM32F1xx_HAL_Driver/Src/stm32f1xx_hal_adc_ex.c ****   *         To clear this flag, either use function: 
 891:Drivers/STM32F1xx_HAL_Driver/Src/stm32f1xx_hal_adc_ex.c ****   *         in programming model IT: @ref HAL_ADC_IRQHandler(), in programming
 892:Drivers/STM32F1xx_HAL_Driver/Src/stm32f1xx_hal_adc_ex.c ****   *         model polling: @ref HAL_ADCEx_InjectedPollForConversion() 
 893:Drivers/STM32F1xx_HAL_Driver/Src/stm32f1xx_hal_adc_ex.c ****   *         or @ref __HAL_ADC_CLEAR_FLAG(&hadc, ADC_FLAG_JEOS).
 894:Drivers/STM32F1xx_HAL_Driver/Src/stm32f1xx_hal_adc_ex.c ****   * @param  hadc: ADC handle
 895:Drivers/STM32F1xx_HAL_Driver/Src/stm32f1xx_hal_adc_ex.c ****   * @param  InjectedRank: the converted ADC injected rank.
 896:Drivers/STM32F1xx_HAL_Driver/Src/stm32f1xx_hal_adc_ex.c ****   *          This parameter can be one of the following values:
 897:Drivers/STM32F1xx_HAL_Driver/Src/stm32f1xx_hal_adc_ex.c ****   *            @arg ADC_INJECTED_RANK_1: Injected Channel1 selected
 898:Drivers/STM32F1xx_HAL_Driver/Src/stm32f1xx_hal_adc_ex.c ****   *            @arg ADC_INJECTED_RANK_2: Injected Channel2 selected
 899:Drivers/STM32F1xx_HAL_Driver/Src/stm32f1xx_hal_adc_ex.c ****   *            @arg ADC_INJECTED_RANK_3: Injected Channel3 selected
 900:Drivers/STM32F1xx_HAL_Driver/Src/stm32f1xx_hal_adc_ex.c ****   *            @arg ADC_INJECTED_RANK_4: Injected Channel4 selected
 901:Drivers/STM32F1xx_HAL_Driver/Src/stm32f1xx_hal_adc_ex.c ****   * @retval ADC group injected conversion data
 902:Drivers/STM32F1xx_HAL_Driver/Src/stm32f1xx_hal_adc_ex.c ****   */
 903:Drivers/STM32F1xx_HAL_Driver/Src/stm32f1xx_hal_adc_ex.c **** uint32_t HAL_ADCEx_InjectedGetValue(ADC_HandleTypeDef* hadc, uint32_t InjectedRank)
 904:Drivers/STM32F1xx_HAL_Driver/Src/stm32f1xx_hal_adc_ex.c **** {
 1409              		.loc 1 904 1 is_stmt 1 view -0
 1410              		.cfi_startproc
 1411              		@ args = 0, pretend = 0, frame = 0
 1412              		@ frame_needed = 0, uses_anonymous_args = 0
 1413              		@ link register save eliminated.
 905:Drivers/STM32F1xx_HAL_Driver/Src/stm32f1xx_hal_adc_ex.c ****   uint32_t tmp_jdr = 0U;
 1414              		.loc 1 905 3 view .LVU409
 906:Drivers/STM32F1xx_HAL_Driver/Src/stm32f1xx_hal_adc_ex.c ****   
 907:Drivers/STM32F1xx_HAL_Driver/Src/stm32f1xx_hal_adc_ex.c ****   /* Check the parameters */
 908:Drivers/STM32F1xx_HAL_Driver/Src/stm32f1xx_hal_adc_ex.c ****   assert_param(IS_ADC_ALL_INSTANCE(hadc->Instance));
 1415              		.loc 1 908 3 view .LVU410
 909:Drivers/STM32F1xx_HAL_Driver/Src/stm32f1xx_hal_adc_ex.c ****   assert_param(IS_ADC_INJECTED_RANK(InjectedRank));
 1416              		.loc 1 909 3 view .LVU411
 910:Drivers/STM32F1xx_HAL_Driver/Src/stm32f1xx_hal_adc_ex.c ****   
 911:Drivers/STM32F1xx_HAL_Driver/Src/stm32f1xx_hal_adc_ex.c ****   /* Get ADC converted value */ 
 912:Drivers/STM32F1xx_HAL_Driver/Src/stm32f1xx_hal_adc_ex.c ****   switch(InjectedRank)
 1417              		.loc 1 912 3 view .LVU412
 1418 0000 0329     		cmp	r1, #3
 1419 0002 09D0     		beq	.L132
 1420 0004 0429     		cmp	r1, #4
 1421 0006 04D0     		beq	.L133
 1422 0008 0229     		cmp	r1, #2
 1423 000a 08D0     		beq	.L138
 913:Drivers/STM32F1xx_HAL_Driver/Src/stm32f1xx_hal_adc_ex.c ****   {  
 914:Drivers/STM32F1xx_HAL_Driver/Src/stm32f1xx_hal_adc_ex.c ****     case ADC_INJECTED_RANK_4: 
 915:Drivers/STM32F1xx_HAL_Driver/Src/stm32f1xx_hal_adc_ex.c ****       tmp_jdr = hadc->Instance->JDR4;
 916:Drivers/STM32F1xx_HAL_Driver/Src/stm32f1xx_hal_adc_ex.c ****       break;
 917:Drivers/STM32F1xx_HAL_Driver/Src/stm32f1xx_hal_adc_ex.c ****     case ADC_INJECTED_RANK_3: 
 918:Drivers/STM32F1xx_HAL_Driver/Src/stm32f1xx_hal_adc_ex.c ****       tmp_jdr = hadc->Instance->JDR3;
 919:Drivers/STM32F1xx_HAL_Driver/Src/stm32f1xx_hal_adc_ex.c ****       break;
 920:Drivers/STM32F1xx_HAL_Driver/Src/stm32f1xx_hal_adc_ex.c ****     case ADC_INJECTED_RANK_2: 
 921:Drivers/STM32F1xx_HAL_Driver/Src/stm32f1xx_hal_adc_ex.c ****       tmp_jdr = hadc->Instance->JDR2;
 922:Drivers/STM32F1xx_HAL_Driver/Src/stm32f1xx_hal_adc_ex.c ****       break;
 923:Drivers/STM32F1xx_HAL_Driver/Src/stm32f1xx_hal_adc_ex.c ****     case ADC_INJECTED_RANK_1:
 924:Drivers/STM32F1xx_HAL_Driver/Src/stm32f1xx_hal_adc_ex.c ****     default:
 925:Drivers/STM32F1xx_HAL_Driver/Src/stm32f1xx_hal_adc_ex.c ****       tmp_jdr = hadc->Instance->JDR1;
 1424              		.loc 1 925 7 view .LVU413
ARM GAS  /var/folders/2w/5wbrmvx534s_vk8svtxz852c0000gn/T//cc29HaPQ.s 			page 45


 1425              		.loc 1 925 21 is_stmt 0 view .LVU414
 1426 000c 0368     		ldr	r3, [r0]
 1427              		.loc 1 925 15 view .LVU415
 1428 000e D86B     		ldr	r0, [r3, #60]
 1429              	.LVL80:
 926:Drivers/STM32F1xx_HAL_Driver/Src/stm32f1xx_hal_adc_ex.c ****       break;
 1430              		.loc 1 926 7 is_stmt 1 view .LVU416
 927:Drivers/STM32F1xx_HAL_Driver/Src/stm32f1xx_hal_adc_ex.c ****   }
 928:Drivers/STM32F1xx_HAL_Driver/Src/stm32f1xx_hal_adc_ex.c ****   
 929:Drivers/STM32F1xx_HAL_Driver/Src/stm32f1xx_hal_adc_ex.c ****   /* Return ADC converted value */ 
 930:Drivers/STM32F1xx_HAL_Driver/Src/stm32f1xx_hal_adc_ex.c ****   return tmp_jdr;
 1431              		.loc 1 930 3 view .LVU417
 931:Drivers/STM32F1xx_HAL_Driver/Src/stm32f1xx_hal_adc_ex.c **** }
 1432              		.loc 1 931 1 is_stmt 0 view .LVU418
 1433 0010 7047     		bx	lr
 1434              	.LVL81:
 1435              	.L133:
 915:Drivers/STM32F1xx_HAL_Driver/Src/stm32f1xx_hal_adc_ex.c ****       break;
 1436              		.loc 1 915 7 is_stmt 1 view .LVU419
 915:Drivers/STM32F1xx_HAL_Driver/Src/stm32f1xx_hal_adc_ex.c ****       break;
 1437              		.loc 1 915 21 is_stmt 0 view .LVU420
 1438 0012 0368     		ldr	r3, [r0]
 915:Drivers/STM32F1xx_HAL_Driver/Src/stm32f1xx_hal_adc_ex.c ****       break;
 1439              		.loc 1 915 15 view .LVU421
 1440 0014 986C     		ldr	r0, [r3, #72]
 1441              	.LVL82:
 916:Drivers/STM32F1xx_HAL_Driver/Src/stm32f1xx_hal_adc_ex.c ****     case ADC_INJECTED_RANK_3: 
 1442              		.loc 1 916 7 is_stmt 1 view .LVU422
 1443 0016 7047     		bx	lr
 1444              	.LVL83:
 1445              	.L132:
 918:Drivers/STM32F1xx_HAL_Driver/Src/stm32f1xx_hal_adc_ex.c ****       break;
 1446              		.loc 1 918 7 view .LVU423
 918:Drivers/STM32F1xx_HAL_Driver/Src/stm32f1xx_hal_adc_ex.c ****       break;
 1447              		.loc 1 918 21 is_stmt 0 view .LVU424
 1448 0018 0368     		ldr	r3, [r0]
 918:Drivers/STM32F1xx_HAL_Driver/Src/stm32f1xx_hal_adc_ex.c ****       break;
 1449              		.loc 1 918 15 view .LVU425
 1450 001a 586C     		ldr	r0, [r3, #68]
 1451              	.LVL84:
 919:Drivers/STM32F1xx_HAL_Driver/Src/stm32f1xx_hal_adc_ex.c ****     case ADC_INJECTED_RANK_2: 
 1452              		.loc 1 919 7 is_stmt 1 view .LVU426
 1453 001c 7047     		bx	lr
 1454              	.LVL85:
 1455              	.L138:
 921:Drivers/STM32F1xx_HAL_Driver/Src/stm32f1xx_hal_adc_ex.c ****       break;
 1456              		.loc 1 921 7 view .LVU427
 921:Drivers/STM32F1xx_HAL_Driver/Src/stm32f1xx_hal_adc_ex.c ****       break;
 1457              		.loc 1 921 21 is_stmt 0 view .LVU428
 1458 001e 0368     		ldr	r3, [r0]
 921:Drivers/STM32F1xx_HAL_Driver/Src/stm32f1xx_hal_adc_ex.c ****       break;
 1459              		.loc 1 921 15 view .LVU429
 1460 0020 186C     		ldr	r0, [r3, #64]
 1461              	.LVL86:
 922:Drivers/STM32F1xx_HAL_Driver/Src/stm32f1xx_hal_adc_ex.c ****     case ADC_INJECTED_RANK_1:
 1462              		.loc 1 922 7 is_stmt 1 view .LVU430
 1463 0022 7047     		bx	lr
ARM GAS  /var/folders/2w/5wbrmvx534s_vk8svtxz852c0000gn/T//cc29HaPQ.s 			page 46


 1464              		.cfi_endproc
 1465              	.LFE74:
 1467              		.section	.text.HAL_ADCEx_MultiModeGetValue,"ax",%progbits
 1468              		.align	1
 1469              		.global	HAL_ADCEx_MultiModeGetValue
 1470              		.syntax unified
 1471              		.thumb
 1472              		.thumb_func
 1474              	HAL_ADCEx_MultiModeGetValue:
 1475              	.LVL87:
 1476              	.LFB75:
 932:Drivers/STM32F1xx_HAL_Driver/Src/stm32f1xx_hal_adc_ex.c **** 
 933:Drivers/STM32F1xx_HAL_Driver/Src/stm32f1xx_hal_adc_ex.c **** #if defined (STM32F103x6) || defined (STM32F103xB) || defined (STM32F105xC) || defined (STM32F107xC
 934:Drivers/STM32F1xx_HAL_Driver/Src/stm32f1xx_hal_adc_ex.c **** /**
 935:Drivers/STM32F1xx_HAL_Driver/Src/stm32f1xx_hal_adc_ex.c ****   * @brief  Returns the last ADC Master&Slave regular conversions results data
 936:Drivers/STM32F1xx_HAL_Driver/Src/stm32f1xx_hal_adc_ex.c ****   *         in the selected multi mode.
 937:Drivers/STM32F1xx_HAL_Driver/Src/stm32f1xx_hal_adc_ex.c ****   * @param  hadc: ADC handle of ADC master (handle of ADC slave must not be used)
 938:Drivers/STM32F1xx_HAL_Driver/Src/stm32f1xx_hal_adc_ex.c ****   * @retval The converted data value.
 939:Drivers/STM32F1xx_HAL_Driver/Src/stm32f1xx_hal_adc_ex.c ****   */
 940:Drivers/STM32F1xx_HAL_Driver/Src/stm32f1xx_hal_adc_ex.c **** uint32_t HAL_ADCEx_MultiModeGetValue(ADC_HandleTypeDef* hadc)
 941:Drivers/STM32F1xx_HAL_Driver/Src/stm32f1xx_hal_adc_ex.c **** {
 1477              		.loc 1 941 1 view -0
 1478              		.cfi_startproc
 1479              		@ args = 0, pretend = 0, frame = 0
 1480              		@ frame_needed = 0, uses_anonymous_args = 0
 1481              		@ link register save eliminated.
 942:Drivers/STM32F1xx_HAL_Driver/Src/stm32f1xx_hal_adc_ex.c ****   uint32_t tmpDR = 0U;
 1482              		.loc 1 942 3 view .LVU432
 943:Drivers/STM32F1xx_HAL_Driver/Src/stm32f1xx_hal_adc_ex.c ****   
 944:Drivers/STM32F1xx_HAL_Driver/Src/stm32f1xx_hal_adc_ex.c ****   /* Check the parameters */
 945:Drivers/STM32F1xx_HAL_Driver/Src/stm32f1xx_hal_adc_ex.c ****   assert_param(IS_ADC_MULTIMODE_MASTER_INSTANCE(hadc->Instance));
 1483              		.loc 1 945 3 view .LVU433
 946:Drivers/STM32F1xx_HAL_Driver/Src/stm32f1xx_hal_adc_ex.c ****   
 947:Drivers/STM32F1xx_HAL_Driver/Src/stm32f1xx_hal_adc_ex.c ****   /* Check the parameters */
 948:Drivers/STM32F1xx_HAL_Driver/Src/stm32f1xx_hal_adc_ex.c ****   assert_param(IS_ADC_ALL_INSTANCE(hadc->Instance));
 1484              		.loc 1 948 3 view .LVU434
 949:Drivers/STM32F1xx_HAL_Driver/Src/stm32f1xx_hal_adc_ex.c **** 
 950:Drivers/STM32F1xx_HAL_Driver/Src/stm32f1xx_hal_adc_ex.c ****   /* Note: EOC flag is not cleared here by software because automatically     */
 951:Drivers/STM32F1xx_HAL_Driver/Src/stm32f1xx_hal_adc_ex.c ****   /*       cleared by hardware when reading register DR.                      */
 952:Drivers/STM32F1xx_HAL_Driver/Src/stm32f1xx_hal_adc_ex.c ****   
 953:Drivers/STM32F1xx_HAL_Driver/Src/stm32f1xx_hal_adc_ex.c ****   /* On STM32F1 devices, ADC1 data register DR contains ADC2 conversions      */
 954:Drivers/STM32F1xx_HAL_Driver/Src/stm32f1xx_hal_adc_ex.c ****   /* only if ADC1 DMA mode is enabled.                                        */
 955:Drivers/STM32F1xx_HAL_Driver/Src/stm32f1xx_hal_adc_ex.c ****   tmpDR = hadc->Instance->DR;
 1485              		.loc 1 955 3 view .LVU435
 1486              		.loc 1 955 15 is_stmt 0 view .LVU436
 1487 0000 0368     		ldr	r3, [r0]
 1488              		.loc 1 955 9 view .LVU437
 1489 0002 D86C     		ldr	r0, [r3, #76]
 1490              	.LVL88:
 956:Drivers/STM32F1xx_HAL_Driver/Src/stm32f1xx_hal_adc_ex.c **** 
 957:Drivers/STM32F1xx_HAL_Driver/Src/stm32f1xx_hal_adc_ex.c ****   if (HAL_IS_BIT_CLR(ADC1->CR2, ADC_CR2_DMA))
 1491              		.loc 1 957 3 is_stmt 1 view .LVU438
 1492              		.loc 1 957 7 is_stmt 0 view .LVU439
 1493 0004 044B     		ldr	r3, .L141
 1494 0006 9B68     		ldr	r3, [r3, #8]
 1495              		.loc 1 957 6 view .LVU440
 1496 0008 13F4807F 		tst	r3, #256
ARM GAS  /var/folders/2w/5wbrmvx534s_vk8svtxz852c0000gn/T//cc29HaPQ.s 			page 47


 1497 000c 03D1     		bne	.L139
 958:Drivers/STM32F1xx_HAL_Driver/Src/stm32f1xx_hal_adc_ex.c ****   {
 959:Drivers/STM32F1xx_HAL_Driver/Src/stm32f1xx_hal_adc_ex.c ****     tmpDR |= (ADC2->DR << 16U);
 1498              		.loc 1 959 5 is_stmt 1 view .LVU441
 1499              		.loc 1 959 19 is_stmt 0 view .LVU442
 1500 000e 034B     		ldr	r3, .L141+4
 1501 0010 DB6C     		ldr	r3, [r3, #76]
 1502              		.loc 1 959 11 view .LVU443
 1503 0012 40EA0340 		orr	r0, r0, r3, lsl #16
 1504              	.LVL89:
 960:Drivers/STM32F1xx_HAL_Driver/Src/stm32f1xx_hal_adc_ex.c ****   }
 961:Drivers/STM32F1xx_HAL_Driver/Src/stm32f1xx_hal_adc_ex.c ****     
 962:Drivers/STM32F1xx_HAL_Driver/Src/stm32f1xx_hal_adc_ex.c ****   /* Return ADC converted value */ 
 963:Drivers/STM32F1xx_HAL_Driver/Src/stm32f1xx_hal_adc_ex.c ****   return tmpDR;
 1505              		.loc 1 963 3 is_stmt 1 view .LVU444
 1506              	.L139:
 964:Drivers/STM32F1xx_HAL_Driver/Src/stm32f1xx_hal_adc_ex.c **** }
 1507              		.loc 1 964 1 is_stmt 0 view .LVU445
 1508 0016 7047     		bx	lr
 1509              	.L142:
 1510              		.align	2
 1511              	.L141:
 1512 0018 00240140 		.word	1073816576
 1513 001c 00280140 		.word	1073817600
 1514              		.cfi_endproc
 1515              	.LFE75:
 1517              		.section	.text.HAL_ADCEx_InjectedConvCpltCallback,"ax",%progbits
 1518              		.align	1
 1519              		.weak	HAL_ADCEx_InjectedConvCpltCallback
 1520              		.syntax unified
 1521              		.thumb
 1522              		.thumb_func
 1524              	HAL_ADCEx_InjectedConvCpltCallback:
 1525              	.LVL90:
 1526              	.LFB76:
 965:Drivers/STM32F1xx_HAL_Driver/Src/stm32f1xx_hal_adc_ex.c **** #endif /* defined STM32F103x6 || defined STM32F103xB || defined STM32F105xC || defined STM32F107xC 
 966:Drivers/STM32F1xx_HAL_Driver/Src/stm32f1xx_hal_adc_ex.c **** 
 967:Drivers/STM32F1xx_HAL_Driver/Src/stm32f1xx_hal_adc_ex.c **** /**
 968:Drivers/STM32F1xx_HAL_Driver/Src/stm32f1xx_hal_adc_ex.c ****   * @brief  Injected conversion complete callback in non blocking mode 
 969:Drivers/STM32F1xx_HAL_Driver/Src/stm32f1xx_hal_adc_ex.c ****   * @param  hadc: ADC handle
 970:Drivers/STM32F1xx_HAL_Driver/Src/stm32f1xx_hal_adc_ex.c ****   * @retval None
 971:Drivers/STM32F1xx_HAL_Driver/Src/stm32f1xx_hal_adc_ex.c ****   */
 972:Drivers/STM32F1xx_HAL_Driver/Src/stm32f1xx_hal_adc_ex.c **** __weak void HAL_ADCEx_InjectedConvCpltCallback(ADC_HandleTypeDef* hadc)
 973:Drivers/STM32F1xx_HAL_Driver/Src/stm32f1xx_hal_adc_ex.c **** {
 1527              		.loc 1 973 1 is_stmt 1 view -0
 1528              		.cfi_startproc
 1529              		@ args = 0, pretend = 0, frame = 0
 1530              		@ frame_needed = 0, uses_anonymous_args = 0
 1531              		@ link register save eliminated.
 974:Drivers/STM32F1xx_HAL_Driver/Src/stm32f1xx_hal_adc_ex.c ****   /* Prevent unused argument(s) compilation warning */
 975:Drivers/STM32F1xx_HAL_Driver/Src/stm32f1xx_hal_adc_ex.c ****   UNUSED(hadc);
 1532              		.loc 1 975 3 view .LVU447
 976:Drivers/STM32F1xx_HAL_Driver/Src/stm32f1xx_hal_adc_ex.c ****   /* NOTE : This function Should not be modified, when the callback is needed,
 977:Drivers/STM32F1xx_HAL_Driver/Src/stm32f1xx_hal_adc_ex.c ****             the HAL_ADCEx_InjectedConvCpltCallback could be implemented in the user file
 978:Drivers/STM32F1xx_HAL_Driver/Src/stm32f1xx_hal_adc_ex.c ****   */
 979:Drivers/STM32F1xx_HAL_Driver/Src/stm32f1xx_hal_adc_ex.c **** }
 1533              		.loc 1 979 1 is_stmt 0 view .LVU448
ARM GAS  /var/folders/2w/5wbrmvx534s_vk8svtxz852c0000gn/T//cc29HaPQ.s 			page 48


 1534 0000 7047     		bx	lr
 1535              		.cfi_endproc
 1536              	.LFE76:
 1538              		.section	.text.HAL_ADCEx_InjectedConfigChannel,"ax",%progbits
 1539              		.align	1
 1540              		.global	HAL_ADCEx_InjectedConfigChannel
 1541              		.syntax unified
 1542              		.thumb
 1543              		.thumb_func
 1545              	HAL_ADCEx_InjectedConfigChannel:
 1546              	.LVL91:
 1547              	.LFB77:
 980:Drivers/STM32F1xx_HAL_Driver/Src/stm32f1xx_hal_adc_ex.c **** 
 981:Drivers/STM32F1xx_HAL_Driver/Src/stm32f1xx_hal_adc_ex.c **** /**
 982:Drivers/STM32F1xx_HAL_Driver/Src/stm32f1xx_hal_adc_ex.c ****   * @}
 983:Drivers/STM32F1xx_HAL_Driver/Src/stm32f1xx_hal_adc_ex.c ****   */
 984:Drivers/STM32F1xx_HAL_Driver/Src/stm32f1xx_hal_adc_ex.c **** 
 985:Drivers/STM32F1xx_HAL_Driver/Src/stm32f1xx_hal_adc_ex.c **** /** @defgroup ADCEx_Exported_Functions_Group2 Extended Peripheral Control functions
 986:Drivers/STM32F1xx_HAL_Driver/Src/stm32f1xx_hal_adc_ex.c ****   * @brief    Extended Peripheral Control functions
 987:Drivers/STM32F1xx_HAL_Driver/Src/stm32f1xx_hal_adc_ex.c ****   *
 988:Drivers/STM32F1xx_HAL_Driver/Src/stm32f1xx_hal_adc_ex.c **** @verbatim   
 989:Drivers/STM32F1xx_HAL_Driver/Src/stm32f1xx_hal_adc_ex.c ****  ===============================================================================
 990:Drivers/STM32F1xx_HAL_Driver/Src/stm32f1xx_hal_adc_ex.c ****              ##### Peripheral Control functions #####
 991:Drivers/STM32F1xx_HAL_Driver/Src/stm32f1xx_hal_adc_ex.c ****  ===============================================================================  
 992:Drivers/STM32F1xx_HAL_Driver/Src/stm32f1xx_hal_adc_ex.c ****     [..]  This section provides functions allowing to:
 993:Drivers/STM32F1xx_HAL_Driver/Src/stm32f1xx_hal_adc_ex.c ****       (+) Configure channels on injected group
 994:Drivers/STM32F1xx_HAL_Driver/Src/stm32f1xx_hal_adc_ex.c ****       (+) Configure multimode
 995:Drivers/STM32F1xx_HAL_Driver/Src/stm32f1xx_hal_adc_ex.c **** 
 996:Drivers/STM32F1xx_HAL_Driver/Src/stm32f1xx_hal_adc_ex.c **** @endverbatim
 997:Drivers/STM32F1xx_HAL_Driver/Src/stm32f1xx_hal_adc_ex.c ****   * @{
 998:Drivers/STM32F1xx_HAL_Driver/Src/stm32f1xx_hal_adc_ex.c ****   */
 999:Drivers/STM32F1xx_HAL_Driver/Src/stm32f1xx_hal_adc_ex.c **** 
1000:Drivers/STM32F1xx_HAL_Driver/Src/stm32f1xx_hal_adc_ex.c **** /**
1001:Drivers/STM32F1xx_HAL_Driver/Src/stm32f1xx_hal_adc_ex.c ****   * @brief  Configures the ADC injected group and the selected channel to be
1002:Drivers/STM32F1xx_HAL_Driver/Src/stm32f1xx_hal_adc_ex.c ****   *         linked to the injected group.
1003:Drivers/STM32F1xx_HAL_Driver/Src/stm32f1xx_hal_adc_ex.c ****   * @note   Possibility to update parameters on the fly:
1004:Drivers/STM32F1xx_HAL_Driver/Src/stm32f1xx_hal_adc_ex.c ****   *         This function initializes injected group, following calls to this 
1005:Drivers/STM32F1xx_HAL_Driver/Src/stm32f1xx_hal_adc_ex.c ****   *         function can be used to reconfigure some parameters of structure
1006:Drivers/STM32F1xx_HAL_Driver/Src/stm32f1xx_hal_adc_ex.c ****   *         "ADC_InjectionConfTypeDef" on the fly, without reseting the ADC.
1007:Drivers/STM32F1xx_HAL_Driver/Src/stm32f1xx_hal_adc_ex.c ****   *         The setting of these parameters is conditioned to ADC state: 
1008:Drivers/STM32F1xx_HAL_Driver/Src/stm32f1xx_hal_adc_ex.c ****   *         this function must be called when ADC is not under conversion.
1009:Drivers/STM32F1xx_HAL_Driver/Src/stm32f1xx_hal_adc_ex.c ****   * @param  hadc: ADC handle
1010:Drivers/STM32F1xx_HAL_Driver/Src/stm32f1xx_hal_adc_ex.c ****   * @param  sConfigInjected: Structure of ADC injected group and ADC channel for
1011:Drivers/STM32F1xx_HAL_Driver/Src/stm32f1xx_hal_adc_ex.c ****   *         injected group.
1012:Drivers/STM32F1xx_HAL_Driver/Src/stm32f1xx_hal_adc_ex.c ****   * @retval None
1013:Drivers/STM32F1xx_HAL_Driver/Src/stm32f1xx_hal_adc_ex.c ****   */
1014:Drivers/STM32F1xx_HAL_Driver/Src/stm32f1xx_hal_adc_ex.c **** HAL_StatusTypeDef HAL_ADCEx_InjectedConfigChannel(ADC_HandleTypeDef* hadc, ADC_InjectionConfTypeDef
1015:Drivers/STM32F1xx_HAL_Driver/Src/stm32f1xx_hal_adc_ex.c **** {
 1548              		.loc 1 1015 1 is_stmt 1 view -0
 1549              		.cfi_startproc
 1550              		@ args = 0, pretend = 0, frame = 8
 1551              		@ frame_needed = 0, uses_anonymous_args = 0
 1552              		@ link register save eliminated.
 1553              		.loc 1 1015 1 is_stmt 0 view .LVU450
 1554 0000 70B4     		push	{r4, r5, r6}
 1555              	.LCFI25:
 1556              		.cfi_def_cfa_offset 12
ARM GAS  /var/folders/2w/5wbrmvx534s_vk8svtxz852c0000gn/T//cc29HaPQ.s 			page 49


 1557              		.cfi_offset 4, -12
 1558              		.cfi_offset 5, -8
 1559              		.cfi_offset 6, -4
 1560 0002 83B0     		sub	sp, sp, #12
 1561              	.LCFI26:
 1562              		.cfi_def_cfa_offset 24
 1563 0004 0346     		mov	r3, r0
1016:Drivers/STM32F1xx_HAL_Driver/Src/stm32f1xx_hal_adc_ex.c ****   HAL_StatusTypeDef tmp_hal_status = HAL_OK;
 1564              		.loc 1 1016 3 is_stmt 1 view .LVU451
 1565              	.LVL92:
1017:Drivers/STM32F1xx_HAL_Driver/Src/stm32f1xx_hal_adc_ex.c ****   __IO uint32_t wait_loop_index = 0U;
 1566              		.loc 1 1017 3 view .LVU452
 1567              		.loc 1 1017 17 is_stmt 0 view .LVU453
 1568 0006 0022     		movs	r2, #0
 1569 0008 0192     		str	r2, [sp, #4]
1018:Drivers/STM32F1xx_HAL_Driver/Src/stm32f1xx_hal_adc_ex.c ****   
1019:Drivers/STM32F1xx_HAL_Driver/Src/stm32f1xx_hal_adc_ex.c ****   /* Check the parameters */
1020:Drivers/STM32F1xx_HAL_Driver/Src/stm32f1xx_hal_adc_ex.c ****   assert_param(IS_ADC_ALL_INSTANCE(hadc->Instance));
 1570              		.loc 1 1020 3 is_stmt 1 view .LVU454
1021:Drivers/STM32F1xx_HAL_Driver/Src/stm32f1xx_hal_adc_ex.c ****   assert_param(IS_ADC_CHANNEL(sConfigInjected->InjectedChannel));
 1571              		.loc 1 1021 3 view .LVU455
1022:Drivers/STM32F1xx_HAL_Driver/Src/stm32f1xx_hal_adc_ex.c ****   assert_param(IS_ADC_SAMPLE_TIME(sConfigInjected->InjectedSamplingTime));
 1572              		.loc 1 1022 3 view .LVU456
1023:Drivers/STM32F1xx_HAL_Driver/Src/stm32f1xx_hal_adc_ex.c ****   assert_param(IS_FUNCTIONAL_STATE(sConfigInjected->AutoInjectedConv));
 1573              		.loc 1 1023 3 view .LVU457
1024:Drivers/STM32F1xx_HAL_Driver/Src/stm32f1xx_hal_adc_ex.c ****   assert_param(IS_ADC_EXTTRIGINJEC(sConfigInjected->ExternalTrigInjecConv));
 1574              		.loc 1 1024 3 view .LVU458
1025:Drivers/STM32F1xx_HAL_Driver/Src/stm32f1xx_hal_adc_ex.c ****   assert_param(IS_ADC_RANGE(sConfigInjected->InjectedOffset));
 1575              		.loc 1 1025 3 view .LVU459
1026:Drivers/STM32F1xx_HAL_Driver/Src/stm32f1xx_hal_adc_ex.c ****   
1027:Drivers/STM32F1xx_HAL_Driver/Src/stm32f1xx_hal_adc_ex.c ****   if(hadc->Init.ScanConvMode != ADC_SCAN_DISABLE)
 1576              		.loc 1 1027 3 view .LVU460
 1577              		.loc 1 1027 16 is_stmt 0 view .LVU461
 1578 000a 8068     		ldr	r0, [r0, #8]
 1579              	.LVL93:
1028:Drivers/STM32F1xx_HAL_Driver/Src/stm32f1xx_hal_adc_ex.c ****   {
1029:Drivers/STM32F1xx_HAL_Driver/Src/stm32f1xx_hal_adc_ex.c ****     assert_param(IS_ADC_INJECTED_RANK(sConfigInjected->InjectedRank));
 1580              		.loc 1 1029 5 is_stmt 1 view .LVU462
1030:Drivers/STM32F1xx_HAL_Driver/Src/stm32f1xx_hal_adc_ex.c ****     assert_param(IS_ADC_INJECTED_NB_CONV(sConfigInjected->InjectedNbrOfConversion));
 1581              		.loc 1 1030 5 view .LVU463
1031:Drivers/STM32F1xx_HAL_Driver/Src/stm32f1xx_hal_adc_ex.c ****     assert_param(IS_FUNCTIONAL_STATE(sConfigInjected->InjectedDiscontinuousConvMode));
 1582              		.loc 1 1031 5 view .LVU464
1032:Drivers/STM32F1xx_HAL_Driver/Src/stm32f1xx_hal_adc_ex.c ****   }
1033:Drivers/STM32F1xx_HAL_Driver/Src/stm32f1xx_hal_adc_ex.c ****   
1034:Drivers/STM32F1xx_HAL_Driver/Src/stm32f1xx_hal_adc_ex.c ****   /* Process locked */
1035:Drivers/STM32F1xx_HAL_Driver/Src/stm32f1xx_hal_adc_ex.c ****   __HAL_LOCK(hadc);
 1583              		.loc 1 1035 3 view .LVU465
 1584              		.loc 1 1035 3 view .LVU466
 1585 000c 93F82420 		ldrb	r2, [r3, #36]	@ zero_extendqisi2
 1586 0010 012A     		cmp	r2, #1
 1587 0012 00F00C81 		beq	.L168
 1588              		.loc 1 1035 3 discriminator 2 view .LVU467
 1589 0016 0122     		movs	r2, #1
 1590 0018 83F82420 		strb	r2, [r3, #36]
 1591              		.loc 1 1035 3 discriminator 2 view .LVU468
1036:Drivers/STM32F1xx_HAL_Driver/Src/stm32f1xx_hal_adc_ex.c ****   
1037:Drivers/STM32F1xx_HAL_Driver/Src/stm32f1xx_hal_adc_ex.c ****   /* Configuration of injected group sequencer:                               */
ARM GAS  /var/folders/2w/5wbrmvx534s_vk8svtxz852c0000gn/T//cc29HaPQ.s 			page 50


1038:Drivers/STM32F1xx_HAL_Driver/Src/stm32f1xx_hal_adc_ex.c ****   /* - if scan mode is disabled, injected channels sequence length is set to  */
1039:Drivers/STM32F1xx_HAL_Driver/Src/stm32f1xx_hal_adc_ex.c ****   /*   0x00: 1 channel converted (channel on regular rank 1)                  */
1040:Drivers/STM32F1xx_HAL_Driver/Src/stm32f1xx_hal_adc_ex.c ****   /*   Parameter "InjectedNbrOfConversion" is discarded.                      */
1041:Drivers/STM32F1xx_HAL_Driver/Src/stm32f1xx_hal_adc_ex.c ****   /*   Note: Scan mode is present by hardware on this device and, if          */
1042:Drivers/STM32F1xx_HAL_Driver/Src/stm32f1xx_hal_adc_ex.c ****   /*   disabled, discards automatically nb of conversions. Anyway, nb of      */
1043:Drivers/STM32F1xx_HAL_Driver/Src/stm32f1xx_hal_adc_ex.c ****   /*   conversions is forced to 0x00 for alignment over all STM32 devices.    */
1044:Drivers/STM32F1xx_HAL_Driver/Src/stm32f1xx_hal_adc_ex.c ****   /* - if scan mode is enabled, injected channels sequence length is set to   */
1045:Drivers/STM32F1xx_HAL_Driver/Src/stm32f1xx_hal_adc_ex.c ****   /*   parameter "InjectedNbrOfConversion".                                   */
1046:Drivers/STM32F1xx_HAL_Driver/Src/stm32f1xx_hal_adc_ex.c ****   if (hadc->Init.ScanConvMode == ADC_SCAN_DISABLE)
 1592              		.loc 1 1046 3 discriminator 2 view .LVU469
 1593              		.loc 1 1046 6 is_stmt 0 discriminator 2 view .LVU470
 1594 001c 0028     		cmp	r0, #0
 1595 001e 52D1     		bne	.L146
1047:Drivers/STM32F1xx_HAL_Driver/Src/stm32f1xx_hal_adc_ex.c ****   {
1048:Drivers/STM32F1xx_HAL_Driver/Src/stm32f1xx_hal_adc_ex.c ****     if (sConfigInjected->InjectedRank == ADC_INJECTED_RANK_1)
 1596              		.loc 1 1048 5 is_stmt 1 view .LVU471
 1597              		.loc 1 1048 24 is_stmt 0 view .LVU472
 1598 0020 4A68     		ldr	r2, [r1, #4]
 1599              		.loc 1 1048 8 view .LVU473
 1600 0022 012A     		cmp	r2, #1
 1601 0024 45D0     		beq	.L170
1049:Drivers/STM32F1xx_HAL_Driver/Src/stm32f1xx_hal_adc_ex.c ****     {
1050:Drivers/STM32F1xx_HAL_Driver/Src/stm32f1xx_hal_adc_ex.c ****       /* Clear the old SQx bits for all injected ranks */
1051:Drivers/STM32F1xx_HAL_Driver/Src/stm32f1xx_hal_adc_ex.c ****       MODIFY_REG(hadc->Instance->JSQR                             ,
1052:Drivers/STM32F1xx_HAL_Driver/Src/stm32f1xx_hal_adc_ex.c ****                  ADC_JSQR_JL   |
1053:Drivers/STM32F1xx_HAL_Driver/Src/stm32f1xx_hal_adc_ex.c ****                  ADC_JSQR_JSQ4 |
1054:Drivers/STM32F1xx_HAL_Driver/Src/stm32f1xx_hal_adc_ex.c ****                  ADC_JSQR_JSQ3 |
1055:Drivers/STM32F1xx_HAL_Driver/Src/stm32f1xx_hal_adc_ex.c ****                  ADC_JSQR_JSQ2 |
1056:Drivers/STM32F1xx_HAL_Driver/Src/stm32f1xx_hal_adc_ex.c ****                  ADC_JSQR_JSQ1                                    ,
1057:Drivers/STM32F1xx_HAL_Driver/Src/stm32f1xx_hal_adc_ex.c ****                  ADC_JSQR_RK_JL(sConfigInjected->InjectedChannel,
1058:Drivers/STM32F1xx_HAL_Driver/Src/stm32f1xx_hal_adc_ex.c ****                                   ADC_INJECTED_RANK_1,
1059:Drivers/STM32F1xx_HAL_Driver/Src/stm32f1xx_hal_adc_ex.c ****                                   0x01U));
1060:Drivers/STM32F1xx_HAL_Driver/Src/stm32f1xx_hal_adc_ex.c ****     }
1061:Drivers/STM32F1xx_HAL_Driver/Src/stm32f1xx_hal_adc_ex.c ****     /* If another injected rank than rank1 was intended to be set, and could  */
1062:Drivers/STM32F1xx_HAL_Driver/Src/stm32f1xx_hal_adc_ex.c ****     /* not due to ScanConvMode disabled, error is reported.                   */
1063:Drivers/STM32F1xx_HAL_Driver/Src/stm32f1xx_hal_adc_ex.c ****     else
1064:Drivers/STM32F1xx_HAL_Driver/Src/stm32f1xx_hal_adc_ex.c ****     {
1065:Drivers/STM32F1xx_HAL_Driver/Src/stm32f1xx_hal_adc_ex.c ****       /* Update ADC state machine to error */
1066:Drivers/STM32F1xx_HAL_Driver/Src/stm32f1xx_hal_adc_ex.c ****       SET_BIT(hadc->State, HAL_ADC_STATE_ERROR_CONFIG);
 1602              		.loc 1 1066 7 is_stmt 1 view .LVU474
 1603 0026 9A6A     		ldr	r2, [r3, #40]
 1604 0028 42F02002 		orr	r2, r2, #32
 1605 002c 9A62     		str	r2, [r3, #40]
1067:Drivers/STM32F1xx_HAL_Driver/Src/stm32f1xx_hal_adc_ex.c ****       
1068:Drivers/STM32F1xx_HAL_Driver/Src/stm32f1xx_hal_adc_ex.c ****       tmp_hal_status = HAL_ERROR;
 1606              		.loc 1 1068 7 view .LVU475
 1607              	.LVL94:
 1608              		.loc 1 1068 22 is_stmt 0 view .LVU476
 1609 002e 0120     		movs	r0, #1
 1610              	.LVL95:
 1611              	.L148:
1069:Drivers/STM32F1xx_HAL_Driver/Src/stm32f1xx_hal_adc_ex.c ****     }
1070:Drivers/STM32F1xx_HAL_Driver/Src/stm32f1xx_hal_adc_ex.c ****   }
1071:Drivers/STM32F1xx_HAL_Driver/Src/stm32f1xx_hal_adc_ex.c ****   else
1072:Drivers/STM32F1xx_HAL_Driver/Src/stm32f1xx_hal_adc_ex.c ****   {
1073:Drivers/STM32F1xx_HAL_Driver/Src/stm32f1xx_hal_adc_ex.c ****     /* Since injected channels rank conv. order depends on total number of   */
1074:Drivers/STM32F1xx_HAL_Driver/Src/stm32f1xx_hal_adc_ex.c ****     /* injected conversions, selected rank must be below or equal to total   */
ARM GAS  /var/folders/2w/5wbrmvx534s_vk8svtxz852c0000gn/T//cc29HaPQ.s 			page 51


1075:Drivers/STM32F1xx_HAL_Driver/Src/stm32f1xx_hal_adc_ex.c ****     /* number of injected conversions to be updated.                         */
1076:Drivers/STM32F1xx_HAL_Driver/Src/stm32f1xx_hal_adc_ex.c ****     if (sConfigInjected->InjectedRank <= sConfigInjected->InjectedNbrOfConversion)
1077:Drivers/STM32F1xx_HAL_Driver/Src/stm32f1xx_hal_adc_ex.c ****     {
1078:Drivers/STM32F1xx_HAL_Driver/Src/stm32f1xx_hal_adc_ex.c ****       /* Clear the old SQx bits for the selected rank */
1079:Drivers/STM32F1xx_HAL_Driver/Src/stm32f1xx_hal_adc_ex.c ****       /* Set the SQx bits for the selected rank */
1080:Drivers/STM32F1xx_HAL_Driver/Src/stm32f1xx_hal_adc_ex.c ****       MODIFY_REG(hadc->Instance->JSQR                                         ,
1081:Drivers/STM32F1xx_HAL_Driver/Src/stm32f1xx_hal_adc_ex.c ****                  
1082:Drivers/STM32F1xx_HAL_Driver/Src/stm32f1xx_hal_adc_ex.c ****                  ADC_JSQR_JL                                               |
1083:Drivers/STM32F1xx_HAL_Driver/Src/stm32f1xx_hal_adc_ex.c ****                  ADC_JSQR_RK_JL(ADC_JSQR_JSQ1,                         
1084:Drivers/STM32F1xx_HAL_Driver/Src/stm32f1xx_hal_adc_ex.c ****                                   sConfigInjected->InjectedRank,         
1085:Drivers/STM32F1xx_HAL_Driver/Src/stm32f1xx_hal_adc_ex.c ****                                   sConfigInjected->InjectedNbrOfConversion)   ,
1086:Drivers/STM32F1xx_HAL_Driver/Src/stm32f1xx_hal_adc_ex.c ****                  
1087:Drivers/STM32F1xx_HAL_Driver/Src/stm32f1xx_hal_adc_ex.c ****                  ADC_JSQR_JL_SHIFT(sConfigInjected->InjectedNbrOfConversion) |
1088:Drivers/STM32F1xx_HAL_Driver/Src/stm32f1xx_hal_adc_ex.c ****                  ADC_JSQR_RK_JL(sConfigInjected->InjectedChannel,      
1089:Drivers/STM32F1xx_HAL_Driver/Src/stm32f1xx_hal_adc_ex.c ****                                   sConfigInjected->InjectedRank,         
1090:Drivers/STM32F1xx_HAL_Driver/Src/stm32f1xx_hal_adc_ex.c ****                                   sConfigInjected->InjectedNbrOfConversion)    );
1091:Drivers/STM32F1xx_HAL_Driver/Src/stm32f1xx_hal_adc_ex.c ****     }
1092:Drivers/STM32F1xx_HAL_Driver/Src/stm32f1xx_hal_adc_ex.c ****     else
1093:Drivers/STM32F1xx_HAL_Driver/Src/stm32f1xx_hal_adc_ex.c ****     {
1094:Drivers/STM32F1xx_HAL_Driver/Src/stm32f1xx_hal_adc_ex.c ****       /* Clear the old SQx bits for the selected rank */
1095:Drivers/STM32F1xx_HAL_Driver/Src/stm32f1xx_hal_adc_ex.c ****       MODIFY_REG(hadc->Instance->JSQR                                       ,
1096:Drivers/STM32F1xx_HAL_Driver/Src/stm32f1xx_hal_adc_ex.c ****                  
1097:Drivers/STM32F1xx_HAL_Driver/Src/stm32f1xx_hal_adc_ex.c ****                  ADC_JSQR_JL                                               |
1098:Drivers/STM32F1xx_HAL_Driver/Src/stm32f1xx_hal_adc_ex.c ****                  ADC_JSQR_RK_JL(ADC_JSQR_JSQ1,                         
1099:Drivers/STM32F1xx_HAL_Driver/Src/stm32f1xx_hal_adc_ex.c ****                                   sConfigInjected->InjectedRank,         
1100:Drivers/STM32F1xx_HAL_Driver/Src/stm32f1xx_hal_adc_ex.c ****                                   sConfigInjected->InjectedNbrOfConversion) ,
1101:Drivers/STM32F1xx_HAL_Driver/Src/stm32f1xx_hal_adc_ex.c ****                  
1102:Drivers/STM32F1xx_HAL_Driver/Src/stm32f1xx_hal_adc_ex.c ****                  0x00000000U);
1103:Drivers/STM32F1xx_HAL_Driver/Src/stm32f1xx_hal_adc_ex.c ****     }
1104:Drivers/STM32F1xx_HAL_Driver/Src/stm32f1xx_hal_adc_ex.c ****   } 
1105:Drivers/STM32F1xx_HAL_Driver/Src/stm32f1xx_hal_adc_ex.c ****     
1106:Drivers/STM32F1xx_HAL_Driver/Src/stm32f1xx_hal_adc_ex.c ****   /* Configuration of injected group                                          */
1107:Drivers/STM32F1xx_HAL_Driver/Src/stm32f1xx_hal_adc_ex.c ****   /* Parameters update conditioned to ADC state:                              */
1108:Drivers/STM32F1xx_HAL_Driver/Src/stm32f1xx_hal_adc_ex.c ****   /* Parameters that can be updated only when ADC is disabled:                */
1109:Drivers/STM32F1xx_HAL_Driver/Src/stm32f1xx_hal_adc_ex.c ****   /*  - external trigger to start conversion                                  */
1110:Drivers/STM32F1xx_HAL_Driver/Src/stm32f1xx_hal_adc_ex.c ****   /* Parameters update not conditioned to ADC state:                          */
1111:Drivers/STM32F1xx_HAL_Driver/Src/stm32f1xx_hal_adc_ex.c ****   /*  - Automatic injected conversion                                         */
1112:Drivers/STM32F1xx_HAL_Driver/Src/stm32f1xx_hal_adc_ex.c ****   /*  - Injected discontinuous mode                                           */
1113:Drivers/STM32F1xx_HAL_Driver/Src/stm32f1xx_hal_adc_ex.c ****   /* Note: In case of ADC already enabled, caution to not launch an unwanted  */
1114:Drivers/STM32F1xx_HAL_Driver/Src/stm32f1xx_hal_adc_ex.c ****   /*       conversion while modifying register CR2 by writing 1 to bit ADON.  */
1115:Drivers/STM32F1xx_HAL_Driver/Src/stm32f1xx_hal_adc_ex.c ****   if (ADC_IS_ENABLE(hadc) == RESET)
 1612              		.loc 1 1115 3 is_stmt 1 view .LVU477
 1613              		.loc 1 1115 7 is_stmt 0 view .LVU478
 1614 0030 1C68     		ldr	r4, [r3]
 1615 0032 A268     		ldr	r2, [r4, #8]
 1616              		.loc 1 1115 6 view .LVU479
 1617 0034 12F0010F 		tst	r2, #1
 1618 0038 0AD1     		bne	.L150
1116:Drivers/STM32F1xx_HAL_Driver/Src/stm32f1xx_hal_adc_ex.c ****   {    
1117:Drivers/STM32F1xx_HAL_Driver/Src/stm32f1xx_hal_adc_ex.c ****     MODIFY_REG(hadc->Instance->CR2                                           ,
 1619              		.loc 1 1117 5 is_stmt 1 view .LVU480
 1620 003a A268     		ldr	r2, [r4, #8]
 1621 003c 22F4E042 		bic	r2, r2, #28672
 1622 0040 22F00102 		bic	r2, r2, #1
 1623 0044 7B4D     		ldr	r5, .L179
 1624 0046 AC42     		cmp	r4, r5
 1625 0048 68D0     		beq	.L171
ARM GAS  /var/folders/2w/5wbrmvx534s_vk8svtxz852c0000gn/T//cc29HaPQ.s 			page 52


 1626              		.loc 1 1117 5 is_stmt 0 discriminator 2 view .LVU481
 1627 004a CD69     		ldr	r5, [r1, #28]
 1628              	.L152:
 1629              		.loc 1 1117 5 discriminator 8 view .LVU482
 1630 004c 2A43     		orrs	r2, r2, r5
 1631 004e A260     		str	r2, [r4, #8]
 1632              	.L150:
1118:Drivers/STM32F1xx_HAL_Driver/Src/stm32f1xx_hal_adc_ex.c ****                ADC_CR2_JEXTSEL |
1119:Drivers/STM32F1xx_HAL_Driver/Src/stm32f1xx_hal_adc_ex.c ****                ADC_CR2_ADON                                                  ,
1120:Drivers/STM32F1xx_HAL_Driver/Src/stm32f1xx_hal_adc_ex.c ****                ADC_CFGR_JEXTSEL(hadc, sConfigInjected->ExternalTrigInjecConv) );
1121:Drivers/STM32F1xx_HAL_Driver/Src/stm32f1xx_hal_adc_ex.c ****   }
1122:Drivers/STM32F1xx_HAL_Driver/Src/stm32f1xx_hal_adc_ex.c ****   
1123:Drivers/STM32F1xx_HAL_Driver/Src/stm32f1xx_hal_adc_ex.c ****   
1124:Drivers/STM32F1xx_HAL_Driver/Src/stm32f1xx_hal_adc_ex.c ****   /* Configuration of injected group                                          */
1125:Drivers/STM32F1xx_HAL_Driver/Src/stm32f1xx_hal_adc_ex.c ****   /*  - Automatic injected conversion                                         */
1126:Drivers/STM32F1xx_HAL_Driver/Src/stm32f1xx_hal_adc_ex.c ****   /*  - Injected discontinuous mode                                           */
1127:Drivers/STM32F1xx_HAL_Driver/Src/stm32f1xx_hal_adc_ex.c ****   
1128:Drivers/STM32F1xx_HAL_Driver/Src/stm32f1xx_hal_adc_ex.c ****     /* Automatic injected conversion can be enabled if injected group         */
1129:Drivers/STM32F1xx_HAL_Driver/Src/stm32f1xx_hal_adc_ex.c ****     /* external triggers are disabled.                                        */
1130:Drivers/STM32F1xx_HAL_Driver/Src/stm32f1xx_hal_adc_ex.c ****     if (sConfigInjected->AutoInjectedConv == ENABLE)
 1633              		.loc 1 1130 5 is_stmt 1 view .LVU483
 1634              		.loc 1 1130 24 is_stmt 0 view .LVU484
 1635 0050 8A69     		ldr	r2, [r1, #24]
 1636              		.loc 1 1130 8 view .LVU485
 1637 0052 012A     		cmp	r2, #1
 1638 0054 69D0     		beq	.L172
 1639              	.LVL96:
 1640              	.L153:
1131:Drivers/STM32F1xx_HAL_Driver/Src/stm32f1xx_hal_adc_ex.c ****     {
1132:Drivers/STM32F1xx_HAL_Driver/Src/stm32f1xx_hal_adc_ex.c ****       if (sConfigInjected->ExternalTrigInjecConv == ADC_INJECTED_SOFTWARE_START)
1133:Drivers/STM32F1xx_HAL_Driver/Src/stm32f1xx_hal_adc_ex.c ****       {
1134:Drivers/STM32F1xx_HAL_Driver/Src/stm32f1xx_hal_adc_ex.c ****         SET_BIT(hadc->Instance->CR1, ADC_CR1_JAUTO);
1135:Drivers/STM32F1xx_HAL_Driver/Src/stm32f1xx_hal_adc_ex.c ****       }
1136:Drivers/STM32F1xx_HAL_Driver/Src/stm32f1xx_hal_adc_ex.c ****       else
1137:Drivers/STM32F1xx_HAL_Driver/Src/stm32f1xx_hal_adc_ex.c ****       {
1138:Drivers/STM32F1xx_HAL_Driver/Src/stm32f1xx_hal_adc_ex.c ****         /* Update ADC state machine to error */
1139:Drivers/STM32F1xx_HAL_Driver/Src/stm32f1xx_hal_adc_ex.c ****         SET_BIT(hadc->State, HAL_ADC_STATE_ERROR_CONFIG);
1140:Drivers/STM32F1xx_HAL_Driver/Src/stm32f1xx_hal_adc_ex.c ****         
1141:Drivers/STM32F1xx_HAL_Driver/Src/stm32f1xx_hal_adc_ex.c ****         tmp_hal_status = HAL_ERROR;
1142:Drivers/STM32F1xx_HAL_Driver/Src/stm32f1xx_hal_adc_ex.c ****       }
1143:Drivers/STM32F1xx_HAL_Driver/Src/stm32f1xx_hal_adc_ex.c ****     }
1144:Drivers/STM32F1xx_HAL_Driver/Src/stm32f1xx_hal_adc_ex.c ****     
1145:Drivers/STM32F1xx_HAL_Driver/Src/stm32f1xx_hal_adc_ex.c ****     /* Injected discontinuous can be enabled only if auto-injected mode is    */
1146:Drivers/STM32F1xx_HAL_Driver/Src/stm32f1xx_hal_adc_ex.c ****     /* disabled.                                                              */  
1147:Drivers/STM32F1xx_HAL_Driver/Src/stm32f1xx_hal_adc_ex.c ****     if (sConfigInjected->InjectedDiscontinuousConvMode == ENABLE)
 1641              		.loc 1 1147 5 is_stmt 1 view .LVU486
 1642              		.loc 1 1147 24 is_stmt 0 view .LVU487
 1643 0056 4A69     		ldr	r2, [r1, #20]
 1644              		.loc 1 1147 8 view .LVU488
 1645 0058 012A     		cmp	r2, #1
 1646 005a 76D0     		beq	.L173
 1647              	.LVL97:
 1648              	.L155:
1148:Drivers/STM32F1xx_HAL_Driver/Src/stm32f1xx_hal_adc_ex.c ****     {
1149:Drivers/STM32F1xx_HAL_Driver/Src/stm32f1xx_hal_adc_ex.c ****       if (sConfigInjected->AutoInjectedConv == DISABLE)
1150:Drivers/STM32F1xx_HAL_Driver/Src/stm32f1xx_hal_adc_ex.c ****       {
1151:Drivers/STM32F1xx_HAL_Driver/Src/stm32f1xx_hal_adc_ex.c ****         SET_BIT(hadc->Instance->CR1, ADC_CR1_JDISCEN);
ARM GAS  /var/folders/2w/5wbrmvx534s_vk8svtxz852c0000gn/T//cc29HaPQ.s 			page 53


1152:Drivers/STM32F1xx_HAL_Driver/Src/stm32f1xx_hal_adc_ex.c ****       } 
1153:Drivers/STM32F1xx_HAL_Driver/Src/stm32f1xx_hal_adc_ex.c ****       else
1154:Drivers/STM32F1xx_HAL_Driver/Src/stm32f1xx_hal_adc_ex.c ****       {
1155:Drivers/STM32F1xx_HAL_Driver/Src/stm32f1xx_hal_adc_ex.c ****         /* Update ADC state machine to error */
1156:Drivers/STM32F1xx_HAL_Driver/Src/stm32f1xx_hal_adc_ex.c ****         SET_BIT(hadc->State, HAL_ADC_STATE_ERROR_CONFIG);
1157:Drivers/STM32F1xx_HAL_Driver/Src/stm32f1xx_hal_adc_ex.c ****         
1158:Drivers/STM32F1xx_HAL_Driver/Src/stm32f1xx_hal_adc_ex.c ****         tmp_hal_status = HAL_ERROR;
1159:Drivers/STM32F1xx_HAL_Driver/Src/stm32f1xx_hal_adc_ex.c ****       }
1160:Drivers/STM32F1xx_HAL_Driver/Src/stm32f1xx_hal_adc_ex.c ****     }
1161:Drivers/STM32F1xx_HAL_Driver/Src/stm32f1xx_hal_adc_ex.c **** 
1162:Drivers/STM32F1xx_HAL_Driver/Src/stm32f1xx_hal_adc_ex.c **** 
1163:Drivers/STM32F1xx_HAL_Driver/Src/stm32f1xx_hal_adc_ex.c ****   /* InjectedChannel sampling time configuration */
1164:Drivers/STM32F1xx_HAL_Driver/Src/stm32f1xx_hal_adc_ex.c ****   /* For channels 10 to 17 */
1165:Drivers/STM32F1xx_HAL_Driver/Src/stm32f1xx_hal_adc_ex.c ****   if (sConfigInjected->InjectedChannel >= ADC_CHANNEL_10)
 1649              		.loc 1 1165 3 is_stmt 1 view .LVU489
 1650              		.loc 1 1165 22 is_stmt 0 view .LVU490
 1651 005c 0A68     		ldr	r2, [r1]
 1652              		.loc 1 1165 6 view .LVU491
 1653 005e 092A     		cmp	r2, #9
 1654 0060 40F28180 		bls	.L157
1166:Drivers/STM32F1xx_HAL_Driver/Src/stm32f1xx_hal_adc_ex.c ****   {
1167:Drivers/STM32F1xx_HAL_Driver/Src/stm32f1xx_hal_adc_ex.c ****     MODIFY_REG(hadc->Instance->SMPR1                                                             ,
 1655              		.loc 1 1167 5 is_stmt 1 view .LVU492
 1656 0064 1D68     		ldr	r5, [r3]
 1657 0066 EC68     		ldr	r4, [r5, #12]
 1658 0068 02EB4202 		add	r2, r2, r2, lsl #1
 1659 006c 1E3A     		subs	r2, r2, #30
 1660 006e 4FF0070C 		mov	ip, #7
 1661 0072 0CFA02FC 		lsl	ip, ip, r2
 1662 0076 24EA0C04 		bic	r4, r4, ip
 1663 007a 8E68     		ldr	r6, [r1, #8]
 1664 007c 06FA02F2 		lsl	r2, r6, r2
 1665 0080 2243     		orrs	r2, r2, r4
 1666 0082 EA60     		str	r2, [r5, #12]
 1667              	.L158:
1168:Drivers/STM32F1xx_HAL_Driver/Src/stm32f1xx_hal_adc_ex.c ****                ADC_SMPR1(ADC_SMPR1_SMP10, sConfigInjected->InjectedChannel)                      ,
1169:Drivers/STM32F1xx_HAL_Driver/Src/stm32f1xx_hal_adc_ex.c ****                ADC_SMPR1(sConfigInjected->InjectedSamplingTime, sConfigInjected->InjectedChannel) )
1170:Drivers/STM32F1xx_HAL_Driver/Src/stm32f1xx_hal_adc_ex.c ****   }
1171:Drivers/STM32F1xx_HAL_Driver/Src/stm32f1xx_hal_adc_ex.c ****   else /* For channels 0 to 9 */
1172:Drivers/STM32F1xx_HAL_Driver/Src/stm32f1xx_hal_adc_ex.c ****   {
1173:Drivers/STM32F1xx_HAL_Driver/Src/stm32f1xx_hal_adc_ex.c ****     MODIFY_REG(hadc->Instance->SMPR2                                                             ,
1174:Drivers/STM32F1xx_HAL_Driver/Src/stm32f1xx_hal_adc_ex.c ****                ADC_SMPR2(ADC_SMPR2_SMP0, sConfigInjected->InjectedChannel)                       ,
1175:Drivers/STM32F1xx_HAL_Driver/Src/stm32f1xx_hal_adc_ex.c ****                ADC_SMPR2(sConfigInjected->InjectedSamplingTime, sConfigInjected->InjectedChannel) )
1176:Drivers/STM32F1xx_HAL_Driver/Src/stm32f1xx_hal_adc_ex.c ****   }
1177:Drivers/STM32F1xx_HAL_Driver/Src/stm32f1xx_hal_adc_ex.c ****   
1178:Drivers/STM32F1xx_HAL_Driver/Src/stm32f1xx_hal_adc_ex.c ****   /* If ADC1 InjectedChannel_16 or InjectedChannel_17 is selected, enable Temperature sensor  */
1179:Drivers/STM32F1xx_HAL_Driver/Src/stm32f1xx_hal_adc_ex.c ****   /* and VREFINT measurement path.                                            */
1180:Drivers/STM32F1xx_HAL_Driver/Src/stm32f1xx_hal_adc_ex.c ****   if ((sConfigInjected->InjectedChannel == ADC_CHANNEL_TEMPSENSOR) ||
 1668              		.loc 1 1180 3 view .LVU493
 1669              		.loc 1 1180 23 is_stmt 0 view .LVU494
 1670 0084 0A68     		ldr	r2, [r1]
 1671              		.loc 1 1180 68 view .LVU495
 1672 0086 103A     		subs	r2, r2, #16
 1673              		.loc 1 1180 6 view .LVU496
 1674 0088 012A     		cmp	r2, #1
 1675 008a 7CD9     		bls	.L174
 1676              	.L159:
ARM GAS  /var/folders/2w/5wbrmvx534s_vk8svtxz852c0000gn/T//cc29HaPQ.s 			page 54


1181:Drivers/STM32F1xx_HAL_Driver/Src/stm32f1xx_hal_adc_ex.c ****       (sConfigInjected->InjectedChannel == ADC_CHANNEL_VREFINT)      )
1182:Drivers/STM32F1xx_HAL_Driver/Src/stm32f1xx_hal_adc_ex.c ****   {
1183:Drivers/STM32F1xx_HAL_Driver/Src/stm32f1xx_hal_adc_ex.c ****     SET_BIT(hadc->Instance->CR2, ADC_CR2_TSVREFE);
1184:Drivers/STM32F1xx_HAL_Driver/Src/stm32f1xx_hal_adc_ex.c ****   }
1185:Drivers/STM32F1xx_HAL_Driver/Src/stm32f1xx_hal_adc_ex.c ****   
1186:Drivers/STM32F1xx_HAL_Driver/Src/stm32f1xx_hal_adc_ex.c ****   
1187:Drivers/STM32F1xx_HAL_Driver/Src/stm32f1xx_hal_adc_ex.c ****   /* Configure the offset: offset enable/disable, InjectedChannel, offset value */
1188:Drivers/STM32F1xx_HAL_Driver/Src/stm32f1xx_hal_adc_ex.c ****   switch(sConfigInjected->InjectedRank)
 1677              		.loc 1 1188 3 is_stmt 1 view .LVU497
 1678              		.loc 1 1188 25 is_stmt 0 view .LVU498
 1679 008c 4A68     		ldr	r2, [r1, #4]
 1680              		.loc 1 1188 3 view .LVU499
 1681 008e 022A     		cmp	r2, #2
 1682 0090 00F09280 		beq	.L160
 1683 0094 032A     		cmp	r2, #3
 1684 0096 00F09980 		beq	.L161
 1685 009a 012A     		cmp	r2, #1
 1686 009c 79D0     		beq	.L175
1189:Drivers/STM32F1xx_HAL_Driver/Src/stm32f1xx_hal_adc_ex.c ****   {
1190:Drivers/STM32F1xx_HAL_Driver/Src/stm32f1xx_hal_adc_ex.c ****     case 1:
1191:Drivers/STM32F1xx_HAL_Driver/Src/stm32f1xx_hal_adc_ex.c ****       /* Set injected channel 1 offset */
1192:Drivers/STM32F1xx_HAL_Driver/Src/stm32f1xx_hal_adc_ex.c ****       MODIFY_REG(hadc->Instance->JOFR1,
1193:Drivers/STM32F1xx_HAL_Driver/Src/stm32f1xx_hal_adc_ex.c ****                  ADC_JOFR1_JOFFSET1,
1194:Drivers/STM32F1xx_HAL_Driver/Src/stm32f1xx_hal_adc_ex.c ****                  sConfigInjected->InjectedOffset);
1195:Drivers/STM32F1xx_HAL_Driver/Src/stm32f1xx_hal_adc_ex.c ****       break;
1196:Drivers/STM32F1xx_HAL_Driver/Src/stm32f1xx_hal_adc_ex.c ****     case 2:
1197:Drivers/STM32F1xx_HAL_Driver/Src/stm32f1xx_hal_adc_ex.c ****       /* Set injected channel 2 offset */
1198:Drivers/STM32F1xx_HAL_Driver/Src/stm32f1xx_hal_adc_ex.c ****       MODIFY_REG(hadc->Instance->JOFR2,
1199:Drivers/STM32F1xx_HAL_Driver/Src/stm32f1xx_hal_adc_ex.c ****                  ADC_JOFR2_JOFFSET2,
1200:Drivers/STM32F1xx_HAL_Driver/Src/stm32f1xx_hal_adc_ex.c ****                  sConfigInjected->InjectedOffset);
1201:Drivers/STM32F1xx_HAL_Driver/Src/stm32f1xx_hal_adc_ex.c ****       break;
1202:Drivers/STM32F1xx_HAL_Driver/Src/stm32f1xx_hal_adc_ex.c ****     case 3:
1203:Drivers/STM32F1xx_HAL_Driver/Src/stm32f1xx_hal_adc_ex.c ****       /* Set injected channel 3 offset */
1204:Drivers/STM32F1xx_HAL_Driver/Src/stm32f1xx_hal_adc_ex.c ****       MODIFY_REG(hadc->Instance->JOFR3,
1205:Drivers/STM32F1xx_HAL_Driver/Src/stm32f1xx_hal_adc_ex.c ****                  ADC_JOFR3_JOFFSET3,
1206:Drivers/STM32F1xx_HAL_Driver/Src/stm32f1xx_hal_adc_ex.c ****                  sConfigInjected->InjectedOffset);
1207:Drivers/STM32F1xx_HAL_Driver/Src/stm32f1xx_hal_adc_ex.c ****       break;
1208:Drivers/STM32F1xx_HAL_Driver/Src/stm32f1xx_hal_adc_ex.c ****     case 4:
1209:Drivers/STM32F1xx_HAL_Driver/Src/stm32f1xx_hal_adc_ex.c ****     default:
1210:Drivers/STM32F1xx_HAL_Driver/Src/stm32f1xx_hal_adc_ex.c ****       MODIFY_REG(hadc->Instance->JOFR4,
 1687              		.loc 1 1210 7 is_stmt 1 view .LVU500
 1688 009e 1C68     		ldr	r4, [r3]
 1689 00a0 226A     		ldr	r2, [r4, #32]
 1690 00a2 22F47F62 		bic	r2, r2, #4080
 1691 00a6 22F00F02 		bic	r2, r2, #15
 1692 00aa CD68     		ldr	r5, [r1, #12]
 1693 00ac 2A43     		orrs	r2, r2, r5
 1694 00ae 2262     		str	r2, [r4, #32]
1211:Drivers/STM32F1xx_HAL_Driver/Src/stm32f1xx_hal_adc_ex.c ****                  ADC_JOFR4_JOFFSET4,
1212:Drivers/STM32F1xx_HAL_Driver/Src/stm32f1xx_hal_adc_ex.c ****                  sConfigInjected->InjectedOffset);
1213:Drivers/STM32F1xx_HAL_Driver/Src/stm32f1xx_hal_adc_ex.c ****       break;
 1695              		.loc 1 1213 7 view .LVU501
 1696 00b0 78E0     		b	.L163
 1697              	.LVL98:
 1698              	.L170:
1051:Drivers/STM32F1xx_HAL_Driver/Src/stm32f1xx_hal_adc_ex.c ****                  ADC_JSQR_JL   |
 1699              		.loc 1 1051 7 view .LVU502
ARM GAS  /var/folders/2w/5wbrmvx534s_vk8svtxz852c0000gn/T//cc29HaPQ.s 			page 55


 1700 00b2 1868     		ldr	r0, [r3]
 1701 00b4 826B     		ldr	r2, [r0, #56]
 1702 00b6 920D     		lsrs	r2, r2, #22
 1703 00b8 9205     		lsls	r2, r2, #22
 1704 00ba 0C68     		ldr	r4, [r1]
 1705 00bc 42EAC432 		orr	r2, r2, r4, lsl #15
 1706 00c0 8263     		str	r2, [r0, #56]
1016:Drivers/STM32F1xx_HAL_Driver/Src/stm32f1xx_hal_adc_ex.c ****   __IO uint32_t wait_loop_index = 0U;
 1707              		.loc 1 1016 21 is_stmt 0 view .LVU503
 1708 00c2 0020     		movs	r0, #0
 1709 00c4 B4E7     		b	.L148
 1710              	.L146:
1076:Drivers/STM32F1xx_HAL_Driver/Src/stm32f1xx_hal_adc_ex.c ****     {
 1711              		.loc 1 1076 5 is_stmt 1 view .LVU504
1076:Drivers/STM32F1xx_HAL_Driver/Src/stm32f1xx_hal_adc_ex.c ****     {
 1712              		.loc 1 1076 24 is_stmt 0 view .LVU505
 1713 00c6 4A68     		ldr	r2, [r1, #4]
1076:Drivers/STM32F1xx_HAL_Driver/Src/stm32f1xx_hal_adc_ex.c ****     {
 1714              		.loc 1 1076 57 view .LVU506
 1715 00c8 0C69     		ldr	r4, [r1, #16]
1076:Drivers/STM32F1xx_HAL_Driver/Src/stm32f1xx_hal_adc_ex.c ****     {
 1716              		.loc 1 1076 8 view .LVU507
 1717 00ca A242     		cmp	r2, r4
 1718 00cc 16D8     		bhi	.L149
1080:Drivers/STM32F1xx_HAL_Driver/Src/stm32f1xx_hal_adc_ex.c ****                  
 1719              		.loc 1 1080 7 is_stmt 1 view .LVU508
 1720 00ce 1E68     		ldr	r6, [r3]
 1721 00d0 B56B     		ldr	r5, [r6, #56]
 1722 00d2 121B     		subs	r2, r2, r4
 1723 00d4 02EB8202 		add	r2, r2, r2, lsl #2
 1724 00d8 02F10F00 		add	r0, r2, #15
 1725 00dc 1F22     		movs	r2, #31
 1726 00de 8240     		lsls	r2, r2, r0
 1727 00e0 42F44012 		orr	r2, r2, #3145728
 1728 00e4 25EA0205 		bic	r5, r5, r2
 1729 00e8 621E     		subs	r2, r4, #1
 1730 00ea 0C68     		ldr	r4, [r1]
 1731 00ec 04FA00F0 		lsl	r0, r4, r0
 1732 00f0 40EA0252 		orr	r2, r0, r2, lsl #20
 1733 00f4 2A43     		orrs	r2, r2, r5
 1734 00f6 B263     		str	r2, [r6, #56]
1016:Drivers/STM32F1xx_HAL_Driver/Src/stm32f1xx_hal_adc_ex.c ****   __IO uint32_t wait_loop_index = 0U;
 1735              		.loc 1 1016 21 is_stmt 0 view .LVU509
 1736 00f8 0020     		movs	r0, #0
 1737 00fa 99E7     		b	.L148
 1738              	.L149:
1095:Drivers/STM32F1xx_HAL_Driver/Src/stm32f1xx_hal_adc_ex.c ****                  
 1739              		.loc 1 1095 7 is_stmt 1 view .LVU510
 1740 00fc 1E68     		ldr	r6, [r3]
 1741 00fe B56B     		ldr	r5, [r6, #56]
 1742 0100 121B     		subs	r2, r2, r4
 1743 0102 02EB8202 		add	r2, r2, r2, lsl #2
 1744 0106 0F32     		adds	r2, r2, #15
 1745 0108 1F20     		movs	r0, #31
 1746 010a 00FA02F2 		lsl	r2, r0, r2
 1747 010e 42F44012 		orr	r2, r2, #3145728
 1748 0112 25EA0202 		bic	r2, r5, r2
ARM GAS  /var/folders/2w/5wbrmvx534s_vk8svtxz852c0000gn/T//cc29HaPQ.s 			page 56


 1749 0116 B263     		str	r2, [r6, #56]
1016:Drivers/STM32F1xx_HAL_Driver/Src/stm32f1xx_hal_adc_ex.c ****   __IO uint32_t wait_loop_index = 0U;
 1750              		.loc 1 1016 21 is_stmt 0 view .LVU511
 1751 0118 0020     		movs	r0, #0
 1752 011a 89E7     		b	.L148
 1753              	.LVL99:
 1754              	.L171:
1117:Drivers/STM32F1xx_HAL_Driver/Src/stm32f1xx_hal_adc_ex.c ****                ADC_CR2_JEXTSEL |
 1755              		.loc 1 1117 5 discriminator 1 view .LVU512
 1756 011c CD69     		ldr	r5, [r1, #28]
 1757 011e B5F5C04F 		cmp	r5, #24576
 1758 0122 93D1     		bne	.L152
1117:Drivers/STM32F1xx_HAL_Driver/Src/stm32f1xx_hal_adc_ex.c ****                ADC_CR2_JEXTSEL |
 1759              		.loc 1 1117 5 view .LVU513
 1760 0124 4FF48045 		mov	r5, #16384
 1761 0128 90E7     		b	.L152
 1762              	.L172:
1132:Drivers/STM32F1xx_HAL_Driver/Src/stm32f1xx_hal_adc_ex.c ****       {
 1763              		.loc 1 1132 7 is_stmt 1 view .LVU514
1132:Drivers/STM32F1xx_HAL_Driver/Src/stm32f1xx_hal_adc_ex.c ****       {
 1764              		.loc 1 1132 26 is_stmt 0 view .LVU515
 1765 012a CA69     		ldr	r2, [r1, #28]
1132:Drivers/STM32F1xx_HAL_Driver/Src/stm32f1xx_hal_adc_ex.c ****       {
 1766              		.loc 1 1132 10 view .LVU516
 1767 012c B2F5E04F 		cmp	r2, #28672
 1768 0130 05D0     		beq	.L176
1139:Drivers/STM32F1xx_HAL_Driver/Src/stm32f1xx_hal_adc_ex.c ****         
 1769              		.loc 1 1139 9 is_stmt 1 view .LVU517
 1770 0132 9A6A     		ldr	r2, [r3, #40]
 1771 0134 42F02002 		orr	r2, r2, #32
 1772 0138 9A62     		str	r2, [r3, #40]
1141:Drivers/STM32F1xx_HAL_Driver/Src/stm32f1xx_hal_adc_ex.c ****       }
 1773              		.loc 1 1141 9 view .LVU518
 1774              	.LVL100:
1141:Drivers/STM32F1xx_HAL_Driver/Src/stm32f1xx_hal_adc_ex.c ****       }
 1775              		.loc 1 1141 24 is_stmt 0 view .LVU519
 1776 013a 0120     		movs	r0, #1
 1777 013c 8BE7     		b	.L153
 1778              	.LVL101:
 1779              	.L176:
1134:Drivers/STM32F1xx_HAL_Driver/Src/stm32f1xx_hal_adc_ex.c ****       }
 1780              		.loc 1 1134 9 is_stmt 1 view .LVU520
 1781 013e 1C68     		ldr	r4, [r3]
 1782 0140 6268     		ldr	r2, [r4, #4]
 1783 0142 42F48062 		orr	r2, r2, #1024
 1784 0146 6260     		str	r2, [r4, #4]
 1785 0148 85E7     		b	.L153
 1786              	.L173:
1149:Drivers/STM32F1xx_HAL_Driver/Src/stm32f1xx_hal_adc_ex.c ****       {
 1787              		.loc 1 1149 7 view .LVU521
1149:Drivers/STM32F1xx_HAL_Driver/Src/stm32f1xx_hal_adc_ex.c ****       {
 1788              		.loc 1 1149 26 is_stmt 0 view .LVU522
 1789 014a 8A69     		ldr	r2, [r1, #24]
1149:Drivers/STM32F1xx_HAL_Driver/Src/stm32f1xx_hal_adc_ex.c ****       {
 1790              		.loc 1 1149 10 view .LVU523
 1791 014c 2AB9     		cbnz	r2, .L156
1151:Drivers/STM32F1xx_HAL_Driver/Src/stm32f1xx_hal_adc_ex.c ****       } 
ARM GAS  /var/folders/2w/5wbrmvx534s_vk8svtxz852c0000gn/T//cc29HaPQ.s 			page 57


 1792              		.loc 1 1151 9 is_stmt 1 view .LVU524
 1793 014e 1C68     		ldr	r4, [r3]
 1794 0150 6268     		ldr	r2, [r4, #4]
 1795 0152 42F48052 		orr	r2, r2, #4096
 1796 0156 6260     		str	r2, [r4, #4]
 1797 0158 80E7     		b	.L155
 1798              	.L156:
1156:Drivers/STM32F1xx_HAL_Driver/Src/stm32f1xx_hal_adc_ex.c ****         
 1799              		.loc 1 1156 9 view .LVU525
 1800 015a 9A6A     		ldr	r2, [r3, #40]
 1801 015c 42F02002 		orr	r2, r2, #32
 1802 0160 9A62     		str	r2, [r3, #40]
1158:Drivers/STM32F1xx_HAL_Driver/Src/stm32f1xx_hal_adc_ex.c ****       }
 1803              		.loc 1 1158 9 view .LVU526
 1804              	.LVL102:
1158:Drivers/STM32F1xx_HAL_Driver/Src/stm32f1xx_hal_adc_ex.c ****       }
 1805              		.loc 1 1158 24 is_stmt 0 view .LVU527
 1806 0162 0120     		movs	r0, #1
 1807 0164 7AE7     		b	.L155
 1808              	.LVL103:
 1809              	.L157:
1173:Drivers/STM32F1xx_HAL_Driver/Src/stm32f1xx_hal_adc_ex.c ****                ADC_SMPR2(ADC_SMPR2_SMP0, sConfigInjected->InjectedChannel)                       ,
 1810              		.loc 1 1173 5 is_stmt 1 view .LVU528
 1811 0166 1D68     		ldr	r5, [r3]
 1812 0168 2C69     		ldr	r4, [r5, #16]
 1813 016a 02EB4202 		add	r2, r2, r2, lsl #1
 1814 016e 4FF0070C 		mov	ip, #7
 1815 0172 0CFA02FC 		lsl	ip, ip, r2
 1816 0176 24EA0C04 		bic	r4, r4, ip
 1817 017a 8E68     		ldr	r6, [r1, #8]
 1818 017c 06FA02F2 		lsl	r2, r6, r2
 1819 0180 2243     		orrs	r2, r2, r4
 1820 0182 2A61     		str	r2, [r5, #16]
 1821 0184 7EE7     		b	.L158
 1822              	.L174:
1183:Drivers/STM32F1xx_HAL_Driver/Src/stm32f1xx_hal_adc_ex.c ****   }
 1823              		.loc 1 1183 5 view .LVU529
 1824 0186 1C68     		ldr	r4, [r3]
 1825 0188 A268     		ldr	r2, [r4, #8]
 1826 018a 42F40002 		orr	r2, r2, #8388608
 1827 018e A260     		str	r2, [r4, #8]
 1828 0190 7CE7     		b	.L159
 1829              	.L175:
1192:Drivers/STM32F1xx_HAL_Driver/Src/stm32f1xx_hal_adc_ex.c ****                  ADC_JOFR1_JOFFSET1,
 1830              		.loc 1 1192 7 view .LVU530
 1831 0192 1C68     		ldr	r4, [r3]
 1832 0194 6269     		ldr	r2, [r4, #20]
 1833 0196 22F47F62 		bic	r2, r2, #4080
 1834 019a 22F00F02 		bic	r2, r2, #15
 1835 019e CD68     		ldr	r5, [r1, #12]
 1836 01a0 2A43     		orrs	r2, r2, r5
 1837 01a2 6261     		str	r2, [r4, #20]
1195:Drivers/STM32F1xx_HAL_Driver/Src/stm32f1xx_hal_adc_ex.c ****     case 2:
 1838              		.loc 1 1195 7 view .LVU531
 1839              	.L163:
1214:Drivers/STM32F1xx_HAL_Driver/Src/stm32f1xx_hal_adc_ex.c ****   }
1215:Drivers/STM32F1xx_HAL_Driver/Src/stm32f1xx_hal_adc_ex.c ****   
ARM GAS  /var/folders/2w/5wbrmvx534s_vk8svtxz852c0000gn/T//cc29HaPQ.s 			page 58


1216:Drivers/STM32F1xx_HAL_Driver/Src/stm32f1xx_hal_adc_ex.c ****   /* If ADC1 Channel_16 or Channel_17 is selected, enable Temperature sensor  */
1217:Drivers/STM32F1xx_HAL_Driver/Src/stm32f1xx_hal_adc_ex.c ****   /* and VREFINT measurement path.                                            */
1218:Drivers/STM32F1xx_HAL_Driver/Src/stm32f1xx_hal_adc_ex.c ****   if ((sConfigInjected->InjectedChannel == ADC_CHANNEL_TEMPSENSOR) ||
 1840              		.loc 1 1218 3 view .LVU532
 1841              		.loc 1 1218 23 is_stmt 0 view .LVU533
 1842 01a4 0A68     		ldr	r2, [r1]
 1843              		.loc 1 1218 68 view .LVU534
 1844 01a6 103A     		subs	r2, r2, #16
 1845              		.loc 1 1218 6 view .LVU535
 1846 01a8 012A     		cmp	r2, #1
 1847 01aa 19D9     		bls	.L177
 1848              	.LVL104:
 1849              	.L164:
1219:Drivers/STM32F1xx_HAL_Driver/Src/stm32f1xx_hal_adc_ex.c ****       (sConfigInjected->InjectedChannel == ADC_CHANNEL_VREFINT)      )
1220:Drivers/STM32F1xx_HAL_Driver/Src/stm32f1xx_hal_adc_ex.c ****   {
1221:Drivers/STM32F1xx_HAL_Driver/Src/stm32f1xx_hal_adc_ex.c ****     /* For STM32F1 devices with several ADC: Only ADC1 can access internal    */
1222:Drivers/STM32F1xx_HAL_Driver/Src/stm32f1xx_hal_adc_ex.c ****     /* measurement channels (VrefInt/TempSensor). If these channels are       */
1223:Drivers/STM32F1xx_HAL_Driver/Src/stm32f1xx_hal_adc_ex.c ****     /* intended to be set on other ADC instances, an error is reported.       */
1224:Drivers/STM32F1xx_HAL_Driver/Src/stm32f1xx_hal_adc_ex.c ****     if (hadc->Instance == ADC1)
1225:Drivers/STM32F1xx_HAL_Driver/Src/stm32f1xx_hal_adc_ex.c ****     {
1226:Drivers/STM32F1xx_HAL_Driver/Src/stm32f1xx_hal_adc_ex.c ****       if (READ_BIT(hadc->Instance->CR2, ADC_CR2_TSVREFE) == RESET)
1227:Drivers/STM32F1xx_HAL_Driver/Src/stm32f1xx_hal_adc_ex.c ****       {
1228:Drivers/STM32F1xx_HAL_Driver/Src/stm32f1xx_hal_adc_ex.c ****         SET_BIT(hadc->Instance->CR2, ADC_CR2_TSVREFE);
1229:Drivers/STM32F1xx_HAL_Driver/Src/stm32f1xx_hal_adc_ex.c ****         
1230:Drivers/STM32F1xx_HAL_Driver/Src/stm32f1xx_hal_adc_ex.c ****         if ((sConfigInjected->InjectedChannel == ADC_CHANNEL_TEMPSENSOR))
1231:Drivers/STM32F1xx_HAL_Driver/Src/stm32f1xx_hal_adc_ex.c ****         {
1232:Drivers/STM32F1xx_HAL_Driver/Src/stm32f1xx_hal_adc_ex.c ****           /* Delay for temperature sensor stabilization time */
1233:Drivers/STM32F1xx_HAL_Driver/Src/stm32f1xx_hal_adc_ex.c ****           /* Compute number of CPU cycles to wait for */
1234:Drivers/STM32F1xx_HAL_Driver/Src/stm32f1xx_hal_adc_ex.c ****           wait_loop_index = (ADC_TEMPSENSOR_DELAY_US * (SystemCoreClock / 1000000U));
1235:Drivers/STM32F1xx_HAL_Driver/Src/stm32f1xx_hal_adc_ex.c ****           while(wait_loop_index != 0U)
1236:Drivers/STM32F1xx_HAL_Driver/Src/stm32f1xx_hal_adc_ex.c ****           {
1237:Drivers/STM32F1xx_HAL_Driver/Src/stm32f1xx_hal_adc_ex.c ****             wait_loop_index--;
1238:Drivers/STM32F1xx_HAL_Driver/Src/stm32f1xx_hal_adc_ex.c ****           }
1239:Drivers/STM32F1xx_HAL_Driver/Src/stm32f1xx_hal_adc_ex.c ****         }
1240:Drivers/STM32F1xx_HAL_Driver/Src/stm32f1xx_hal_adc_ex.c ****       }
1241:Drivers/STM32F1xx_HAL_Driver/Src/stm32f1xx_hal_adc_ex.c ****     }
1242:Drivers/STM32F1xx_HAL_Driver/Src/stm32f1xx_hal_adc_ex.c ****     else
1243:Drivers/STM32F1xx_HAL_Driver/Src/stm32f1xx_hal_adc_ex.c ****     {
1244:Drivers/STM32F1xx_HAL_Driver/Src/stm32f1xx_hal_adc_ex.c ****       /* Update ADC state machine to error */
1245:Drivers/STM32F1xx_HAL_Driver/Src/stm32f1xx_hal_adc_ex.c ****       SET_BIT(hadc->State, HAL_ADC_STATE_ERROR_CONFIG);
1246:Drivers/STM32F1xx_HAL_Driver/Src/stm32f1xx_hal_adc_ex.c ****       
1247:Drivers/STM32F1xx_HAL_Driver/Src/stm32f1xx_hal_adc_ex.c ****       tmp_hal_status = HAL_ERROR;
1248:Drivers/STM32F1xx_HAL_Driver/Src/stm32f1xx_hal_adc_ex.c ****     }
1249:Drivers/STM32F1xx_HAL_Driver/Src/stm32f1xx_hal_adc_ex.c ****   }
1250:Drivers/STM32F1xx_HAL_Driver/Src/stm32f1xx_hal_adc_ex.c ****   
1251:Drivers/STM32F1xx_HAL_Driver/Src/stm32f1xx_hal_adc_ex.c ****   /* Process unlocked */
1252:Drivers/STM32F1xx_HAL_Driver/Src/stm32f1xx_hal_adc_ex.c ****   __HAL_UNLOCK(hadc);
 1850              		.loc 1 1252 3 is_stmt 1 view .LVU536
 1851              		.loc 1 1252 3 view .LVU537
 1852 01ac 0022     		movs	r2, #0
 1853 01ae 83F82420 		strb	r2, [r3, #36]
 1854              		.loc 1 1252 3 view .LVU538
1253:Drivers/STM32F1xx_HAL_Driver/Src/stm32f1xx_hal_adc_ex.c ****   
1254:Drivers/STM32F1xx_HAL_Driver/Src/stm32f1xx_hal_adc_ex.c ****   /* Return function status */
1255:Drivers/STM32F1xx_HAL_Driver/Src/stm32f1xx_hal_adc_ex.c ****   return tmp_hal_status;
 1855              		.loc 1 1255 3 view .LVU539
 1856              	.LVL105:
ARM GAS  /var/folders/2w/5wbrmvx534s_vk8svtxz852c0000gn/T//cc29HaPQ.s 			page 59


 1857              	.L145:
1256:Drivers/STM32F1xx_HAL_Driver/Src/stm32f1xx_hal_adc_ex.c **** }
 1858              		.loc 1 1256 1 is_stmt 0 view .LVU540
 1859 01b2 03B0     		add	sp, sp, #12
 1860              	.LCFI27:
 1861              		.cfi_remember_state
 1862              		.cfi_def_cfa_offset 12
 1863              		@ sp needed
 1864 01b4 70BC     		pop	{r4, r5, r6}
 1865              	.LCFI28:
 1866              		.cfi_restore 6
 1867              		.cfi_restore 5
 1868              		.cfi_restore 4
 1869              		.cfi_def_cfa_offset 0
 1870 01b6 7047     		bx	lr
 1871              	.LVL106:
 1872              	.L160:
 1873              	.LCFI29:
 1874              		.cfi_restore_state
1198:Drivers/STM32F1xx_HAL_Driver/Src/stm32f1xx_hal_adc_ex.c ****                  ADC_JOFR2_JOFFSET2,
 1875              		.loc 1 1198 7 is_stmt 1 view .LVU541
 1876 01b8 1C68     		ldr	r4, [r3]
 1877 01ba A269     		ldr	r2, [r4, #24]
 1878 01bc 22F47F62 		bic	r2, r2, #4080
 1879 01c0 22F00F02 		bic	r2, r2, #15
 1880 01c4 CD68     		ldr	r5, [r1, #12]
 1881 01c6 2A43     		orrs	r2, r2, r5
 1882 01c8 A261     		str	r2, [r4, #24]
1201:Drivers/STM32F1xx_HAL_Driver/Src/stm32f1xx_hal_adc_ex.c ****     case 3:
 1883              		.loc 1 1201 7 view .LVU542
 1884 01ca EBE7     		b	.L163
 1885              	.L161:
1204:Drivers/STM32F1xx_HAL_Driver/Src/stm32f1xx_hal_adc_ex.c ****                  ADC_JOFR3_JOFFSET3,
 1886              		.loc 1 1204 7 view .LVU543
 1887 01cc 1C68     		ldr	r4, [r3]
 1888 01ce E269     		ldr	r2, [r4, #28]
 1889 01d0 22F47F62 		bic	r2, r2, #4080
 1890 01d4 22F00F02 		bic	r2, r2, #15
 1891 01d8 CD68     		ldr	r5, [r1, #12]
 1892 01da 2A43     		orrs	r2, r2, r5
 1893 01dc E261     		str	r2, [r4, #28]
1207:Drivers/STM32F1xx_HAL_Driver/Src/stm32f1xx_hal_adc_ex.c ****     case 4:
 1894              		.loc 1 1207 7 view .LVU544
 1895 01de E1E7     		b	.L163
 1896              	.L177:
1224:Drivers/STM32F1xx_HAL_Driver/Src/stm32f1xx_hal_adc_ex.c ****     {
 1897              		.loc 1 1224 5 view .LVU545
1224:Drivers/STM32F1xx_HAL_Driver/Src/stm32f1xx_hal_adc_ex.c ****     {
 1898              		.loc 1 1224 13 is_stmt 0 view .LVU546
 1899 01e0 1A68     		ldr	r2, [r3]
1224:Drivers/STM32F1xx_HAL_Driver/Src/stm32f1xx_hal_adc_ex.c ****     {
 1900              		.loc 1 1224 8 view .LVU547
 1901 01e2 154C     		ldr	r4, .L179+4
 1902 01e4 A242     		cmp	r2, r4
 1903 01e6 05D0     		beq	.L178
1245:Drivers/STM32F1xx_HAL_Driver/Src/stm32f1xx_hal_adc_ex.c ****       
 1904              		.loc 1 1245 7 is_stmt 1 view .LVU548
ARM GAS  /var/folders/2w/5wbrmvx534s_vk8svtxz852c0000gn/T//cc29HaPQ.s 			page 60


 1905 01e8 9A6A     		ldr	r2, [r3, #40]
 1906 01ea 42F02002 		orr	r2, r2, #32
 1907 01ee 9A62     		str	r2, [r3, #40]
1247:Drivers/STM32F1xx_HAL_Driver/Src/stm32f1xx_hal_adc_ex.c ****     }
 1908              		.loc 1 1247 7 view .LVU549
 1909              	.LVL107:
1247:Drivers/STM32F1xx_HAL_Driver/Src/stm32f1xx_hal_adc_ex.c ****     }
 1910              		.loc 1 1247 22 is_stmt 0 view .LVU550
 1911 01f0 0120     		movs	r0, #1
 1912 01f2 DBE7     		b	.L164
 1913              	.LVL108:
 1914              	.L178:
1226:Drivers/STM32F1xx_HAL_Driver/Src/stm32f1xx_hal_adc_ex.c ****       {
 1915              		.loc 1 1226 7 is_stmt 1 view .LVU551
1226:Drivers/STM32F1xx_HAL_Driver/Src/stm32f1xx_hal_adc_ex.c ****       {
 1916              		.loc 1 1226 11 is_stmt 0 view .LVU552
 1917 01f4 9468     		ldr	r4, [r2, #8]
1226:Drivers/STM32F1xx_HAL_Driver/Src/stm32f1xx_hal_adc_ex.c ****       {
 1918              		.loc 1 1226 10 view .LVU553
 1919 01f6 14F4000F 		tst	r4, #8388608
 1920 01fa D7D1     		bne	.L164
1228:Drivers/STM32F1xx_HAL_Driver/Src/stm32f1xx_hal_adc_ex.c ****         
 1921              		.loc 1 1228 9 is_stmt 1 view .LVU554
 1922 01fc 9468     		ldr	r4, [r2, #8]
 1923 01fe 44F40004 		orr	r4, r4, #8388608
 1924 0202 9460     		str	r4, [r2, #8]
1230:Drivers/STM32F1xx_HAL_Driver/Src/stm32f1xx_hal_adc_ex.c ****         {
 1925              		.loc 1 1230 9 view .LVU555
1230:Drivers/STM32F1xx_HAL_Driver/Src/stm32f1xx_hal_adc_ex.c ****         {
 1926              		.loc 1 1230 29 is_stmt 0 view .LVU556
 1927 0204 0A68     		ldr	r2, [r1]
1230:Drivers/STM32F1xx_HAL_Driver/Src/stm32f1xx_hal_adc_ex.c ****         {
 1928              		.loc 1 1230 12 view .LVU557
 1929 0206 102A     		cmp	r2, #16
 1930 0208 D0D1     		bne	.L164
1234:Drivers/STM32F1xx_HAL_Driver/Src/stm32f1xx_hal_adc_ex.c ****           while(wait_loop_index != 0U)
 1931              		.loc 1 1234 11 is_stmt 1 view .LVU558
1234:Drivers/STM32F1xx_HAL_Driver/Src/stm32f1xx_hal_adc_ex.c ****           while(wait_loop_index != 0U)
 1932              		.loc 1 1234 73 is_stmt 0 view .LVU559
 1933 020a 0C4A     		ldr	r2, .L179+8
 1934 020c 1268     		ldr	r2, [r2]
 1935 020e 0C49     		ldr	r1, .L179+12
 1936              	.LVL109:
1234:Drivers/STM32F1xx_HAL_Driver/Src/stm32f1xx_hal_adc_ex.c ****           while(wait_loop_index != 0U)
 1937              		.loc 1 1234 73 view .LVU560
 1938 0210 A1FB0212 		umull	r1, r2, r1, r2
 1939 0214 920C     		lsrs	r2, r2, #18
1234:Drivers/STM32F1xx_HAL_Driver/Src/stm32f1xx_hal_adc_ex.c ****           while(wait_loop_index != 0U)
 1940              		.loc 1 1234 54 view .LVU561
 1941 0216 02EB8202 		add	r2, r2, r2, lsl #2
 1942 021a 5200     		lsls	r2, r2, #1
1234:Drivers/STM32F1xx_HAL_Driver/Src/stm32f1xx_hal_adc_ex.c ****           while(wait_loop_index != 0U)
 1943              		.loc 1 1234 27 view .LVU562
 1944 021c 0192     		str	r2, [sp, #4]
1235:Drivers/STM32F1xx_HAL_Driver/Src/stm32f1xx_hal_adc_ex.c ****           {
 1945              		.loc 1 1235 11 is_stmt 1 view .LVU563
1235:Drivers/STM32F1xx_HAL_Driver/Src/stm32f1xx_hal_adc_ex.c ****           {
ARM GAS  /var/folders/2w/5wbrmvx534s_vk8svtxz852c0000gn/T//cc29HaPQ.s 			page 61


 1946              		.loc 1 1235 16 is_stmt 0 view .LVU564
 1947 021e 02E0     		b	.L166
 1948              	.L167:
1237:Drivers/STM32F1xx_HAL_Driver/Src/stm32f1xx_hal_adc_ex.c ****           }
 1949              		.loc 1 1237 13 is_stmt 1 view .LVU565
1237:Drivers/STM32F1xx_HAL_Driver/Src/stm32f1xx_hal_adc_ex.c ****           }
 1950              		.loc 1 1237 28 is_stmt 0 view .LVU566
 1951 0220 019A     		ldr	r2, [sp, #4]
 1952 0222 013A     		subs	r2, r2, #1
 1953 0224 0192     		str	r2, [sp, #4]
 1954              	.L166:
1235:Drivers/STM32F1xx_HAL_Driver/Src/stm32f1xx_hal_adc_ex.c ****           {
 1955              		.loc 1 1235 16 is_stmt 1 view .LVU567
1235:Drivers/STM32F1xx_HAL_Driver/Src/stm32f1xx_hal_adc_ex.c ****           {
 1956              		.loc 1 1235 33 is_stmt 0 view .LVU568
 1957 0226 019A     		ldr	r2, [sp, #4]
1235:Drivers/STM32F1xx_HAL_Driver/Src/stm32f1xx_hal_adc_ex.c ****           {
 1958              		.loc 1 1235 16 view .LVU569
 1959 0228 002A     		cmp	r2, #0
 1960 022a F9D1     		bne	.L167
 1961 022c BEE7     		b	.L164
 1962              	.LVL110:
 1963              	.L168:
1035:Drivers/STM32F1xx_HAL_Driver/Src/stm32f1xx_hal_adc_ex.c ****   
 1964              		.loc 1 1035 3 view .LVU570
 1965 022e 0220     		movs	r0, #2
 1966 0230 BFE7     		b	.L145
 1967              	.L180:
 1968 0232 00BF     		.align	2
 1969              	.L179:
 1970 0234 003C0140 		.word	1073822720
 1971 0238 00240140 		.word	1073816576
 1972 023c 00000000 		.word	SystemCoreClock
 1973 0240 83DE1B43 		.word	1125899907
 1974              		.cfi_endproc
 1975              	.LFE77:
 1977              		.section	.text.HAL_ADCEx_MultiModeConfigChannel,"ax",%progbits
 1978              		.align	1
 1979              		.global	HAL_ADCEx_MultiModeConfigChannel
 1980              		.syntax unified
 1981              		.thumb
 1982              		.thumb_func
 1984              	HAL_ADCEx_MultiModeConfigChannel:
 1985              	.LVL111:
 1986              	.LFB78:
1257:Drivers/STM32F1xx_HAL_Driver/Src/stm32f1xx_hal_adc_ex.c **** 
1258:Drivers/STM32F1xx_HAL_Driver/Src/stm32f1xx_hal_adc_ex.c **** #if defined (STM32F103x6) || defined (STM32F103xB) || defined (STM32F105xC) || defined (STM32F107xC
1259:Drivers/STM32F1xx_HAL_Driver/Src/stm32f1xx_hal_adc_ex.c **** /**
1260:Drivers/STM32F1xx_HAL_Driver/Src/stm32f1xx_hal_adc_ex.c ****   * @brief  Enable ADC multimode and configure multimode parameters
1261:Drivers/STM32F1xx_HAL_Driver/Src/stm32f1xx_hal_adc_ex.c ****   * @note   Possibility to update parameters on the fly:
1262:Drivers/STM32F1xx_HAL_Driver/Src/stm32f1xx_hal_adc_ex.c ****   *         This function initializes multimode parameters, following  
1263:Drivers/STM32F1xx_HAL_Driver/Src/stm32f1xx_hal_adc_ex.c ****   *         calls to this function can be used to reconfigure some parameters 
1264:Drivers/STM32F1xx_HAL_Driver/Src/stm32f1xx_hal_adc_ex.c ****   *         of structure "ADC_MultiModeTypeDef" on the fly, without reseting 
1265:Drivers/STM32F1xx_HAL_Driver/Src/stm32f1xx_hal_adc_ex.c ****   *         the ADCs (both ADCs of the common group).
1266:Drivers/STM32F1xx_HAL_Driver/Src/stm32f1xx_hal_adc_ex.c ****   *         The setting of these parameters is conditioned to ADC state.
1267:Drivers/STM32F1xx_HAL_Driver/Src/stm32f1xx_hal_adc_ex.c ****   *         For parameters constraints, see comments of structure 
1268:Drivers/STM32F1xx_HAL_Driver/Src/stm32f1xx_hal_adc_ex.c ****   *         "ADC_MultiModeTypeDef".
ARM GAS  /var/folders/2w/5wbrmvx534s_vk8svtxz852c0000gn/T//cc29HaPQ.s 			page 62


1269:Drivers/STM32F1xx_HAL_Driver/Src/stm32f1xx_hal_adc_ex.c ****   * @note   To change back configuration from multimode to single mode, ADC must
1270:Drivers/STM32F1xx_HAL_Driver/Src/stm32f1xx_hal_adc_ex.c ****   *         be reset (using function HAL_ADC_Init() ).
1271:Drivers/STM32F1xx_HAL_Driver/Src/stm32f1xx_hal_adc_ex.c ****   * @param  hadc: ADC handle
1272:Drivers/STM32F1xx_HAL_Driver/Src/stm32f1xx_hal_adc_ex.c ****   * @param  multimode: Structure of ADC multimode configuration
1273:Drivers/STM32F1xx_HAL_Driver/Src/stm32f1xx_hal_adc_ex.c ****   * @retval HAL status
1274:Drivers/STM32F1xx_HAL_Driver/Src/stm32f1xx_hal_adc_ex.c ****   */
1275:Drivers/STM32F1xx_HAL_Driver/Src/stm32f1xx_hal_adc_ex.c **** HAL_StatusTypeDef HAL_ADCEx_MultiModeConfigChannel(ADC_HandleTypeDef* hadc, ADC_MultiModeTypeDef* m
1276:Drivers/STM32F1xx_HAL_Driver/Src/stm32f1xx_hal_adc_ex.c **** {
 1987              		.loc 1 1276 1 is_stmt 1 view -0
 1988              		.cfi_startproc
 1989              		@ args = 0, pretend = 0, frame = 48
 1990              		@ frame_needed = 0, uses_anonymous_args = 0
 1991              		@ link register save eliminated.
1277:Drivers/STM32F1xx_HAL_Driver/Src/stm32f1xx_hal_adc_ex.c ****   HAL_StatusTypeDef tmp_hal_status = HAL_OK;
 1992              		.loc 1 1277 3 view .LVU572
1278:Drivers/STM32F1xx_HAL_Driver/Src/stm32f1xx_hal_adc_ex.c ****   ADC_HandleTypeDef tmphadcSlave;
 1993              		.loc 1 1278 3 view .LVU573
1279:Drivers/STM32F1xx_HAL_Driver/Src/stm32f1xx_hal_adc_ex.c ****   
1280:Drivers/STM32F1xx_HAL_Driver/Src/stm32f1xx_hal_adc_ex.c ****   /* Check the parameters */
1281:Drivers/STM32F1xx_HAL_Driver/Src/stm32f1xx_hal_adc_ex.c ****   assert_param(IS_ADC_MULTIMODE_MASTER_INSTANCE(hadc->Instance));
 1994              		.loc 1 1281 3 view .LVU574
1282:Drivers/STM32F1xx_HAL_Driver/Src/stm32f1xx_hal_adc_ex.c ****   assert_param(IS_ADC_MODE(multimode->Mode));
 1995              		.loc 1 1282 3 view .LVU575
1283:Drivers/STM32F1xx_HAL_Driver/Src/stm32f1xx_hal_adc_ex.c ****   
1284:Drivers/STM32F1xx_HAL_Driver/Src/stm32f1xx_hal_adc_ex.c ****   /* Process locked */
1285:Drivers/STM32F1xx_HAL_Driver/Src/stm32f1xx_hal_adc_ex.c ****   __HAL_LOCK(hadc);
 1996              		.loc 1 1285 3 view .LVU576
 1997              		.loc 1 1285 3 view .LVU577
 1998 0000 90F82420 		ldrb	r2, [r0, #36]	@ zero_extendqisi2
 1999 0004 012A     		cmp	r2, #1
 2000 0006 25D0     		beq	.L185
1276:Drivers/STM32F1xx_HAL_Driver/Src/stm32f1xx_hal_adc_ex.c ****   HAL_StatusTypeDef tmp_hal_status = HAL_OK;
 2001              		.loc 1 1276 1 is_stmt 0 discriminator 2 view .LVU578
 2002 0008 8CB0     		sub	sp, sp, #48
 2003              	.LCFI30:
 2004              		.cfi_def_cfa_offset 48
 2005 000a 0346     		mov	r3, r0
 2006              		.loc 1 1285 3 is_stmt 1 discriminator 2 view .LVU579
 2007 000c 0122     		movs	r2, #1
 2008 000e 80F82420 		strb	r2, [r0, #36]
 2009              		.loc 1 1285 3 discriminator 2 view .LVU580
1286:Drivers/STM32F1xx_HAL_Driver/Src/stm32f1xx_hal_adc_ex.c ****   
1287:Drivers/STM32F1xx_HAL_Driver/Src/stm32f1xx_hal_adc_ex.c ****   /* Set a temporary handle of the ADC slave associated to the ADC master     */
1288:Drivers/STM32F1xx_HAL_Driver/Src/stm32f1xx_hal_adc_ex.c ****   ADC_MULTI_SLAVE(hadc, &tmphadcSlave);
 2010              		.loc 1 1288 3 discriminator 2 view .LVU581
 2011 0012 114A     		ldr	r2, .L191
 2012 0014 0092     		str	r2, [sp]
1289:Drivers/STM32F1xx_HAL_Driver/Src/stm32f1xx_hal_adc_ex.c ****   
1290:Drivers/STM32F1xx_HAL_Driver/Src/stm32f1xx_hal_adc_ex.c ****   /* Parameters update conditioned to ADC state:                              */
1291:Drivers/STM32F1xx_HAL_Driver/Src/stm32f1xx_hal_adc_ex.c ****   /* Parameters that can be updated when ADC is disabled or enabled without   */
1292:Drivers/STM32F1xx_HAL_Driver/Src/stm32f1xx_hal_adc_ex.c ****   /* conversion on going on regular group:                                    */
1293:Drivers/STM32F1xx_HAL_Driver/Src/stm32f1xx_hal_adc_ex.c ****   /*  - ADC master and ADC slave DMA configuration                            */
1294:Drivers/STM32F1xx_HAL_Driver/Src/stm32f1xx_hal_adc_ex.c ****   /* Parameters that can be updated only when ADC is disabled:                */
1295:Drivers/STM32F1xx_HAL_Driver/Src/stm32f1xx_hal_adc_ex.c ****   /*  - Multimode mode selection                                              */
1296:Drivers/STM32F1xx_HAL_Driver/Src/stm32f1xx_hal_adc_ex.c ****   /* To optimize code, all multimode settings can be set when both ADCs of    */
1297:Drivers/STM32F1xx_HAL_Driver/Src/stm32f1xx_hal_adc_ex.c ****   /* the common group are in state: disabled.                                 */
1298:Drivers/STM32F1xx_HAL_Driver/Src/stm32f1xx_hal_adc_ex.c ****   if ((ADC_IS_ENABLE(hadc) == RESET)                     &&
ARM GAS  /var/folders/2w/5wbrmvx534s_vk8svtxz852c0000gn/T//cc29HaPQ.s 			page 63


 2013              		.loc 1 1298 3 discriminator 2 view .LVU582
 2014              		.loc 1 1298 8 is_stmt 0 discriminator 2 view .LVU583
 2015 0016 0268     		ldr	r2, [r0]
 2016 0018 9068     		ldr	r0, [r2, #8]
 2017              	.LVL112:
 2018              		.loc 1 1298 6 discriminator 2 view .LVU584
 2019 001a 10F0010F 		tst	r0, #1
 2020 001e 07D1     		bne	.L183
1299:Drivers/STM32F1xx_HAL_Driver/Src/stm32f1xx_hal_adc_ex.c ****       (ADC_IS_ENABLE(&tmphadcSlave) == RESET)            &&
 2021              		.loc 1 1299 8 discriminator 1 view .LVU585
 2022 0020 0D48     		ldr	r0, .L191
 2023 0022 8068     		ldr	r0, [r0, #8]
1298:Drivers/STM32F1xx_HAL_Driver/Src/stm32f1xx_hal_adc_ex.c ****       (ADC_IS_ENABLE(&tmphadcSlave) == RESET)            &&
 2024              		.loc 1 1298 58 discriminator 1 view .LVU586
 2025 0024 10F0010F 		tst	r0, #1
 2026 0028 02D1     		bne	.L183
 2027              		.loc 1 1299 58 view .LVU587
 2028 002a 0C48     		ldr	r0, .L191+4
 2029 002c 8242     		cmp	r2, r0
 2030 002e 09D0     		beq	.L190
 2031              	.L183:
1300:Drivers/STM32F1xx_HAL_Driver/Src/stm32f1xx_hal_adc_ex.c ****       (IS_ADC_MULTIMODE_MASTER_INSTANCE(hadc->Instance))   )
1301:Drivers/STM32F1xx_HAL_Driver/Src/stm32f1xx_hal_adc_ex.c ****   {
1302:Drivers/STM32F1xx_HAL_Driver/Src/stm32f1xx_hal_adc_ex.c ****     MODIFY_REG(hadc->Instance->CR1,
1303:Drivers/STM32F1xx_HAL_Driver/Src/stm32f1xx_hal_adc_ex.c ****                ADC_CR1_DUALMOD    ,
1304:Drivers/STM32F1xx_HAL_Driver/Src/stm32f1xx_hal_adc_ex.c ****                multimode->Mode     );
1305:Drivers/STM32F1xx_HAL_Driver/Src/stm32f1xx_hal_adc_ex.c ****   }
1306:Drivers/STM32F1xx_HAL_Driver/Src/stm32f1xx_hal_adc_ex.c ****   /* If one of the ADC sharing the same common group is enabled, no update    */
1307:Drivers/STM32F1xx_HAL_Driver/Src/stm32f1xx_hal_adc_ex.c ****   /* could be done on neither of the multimode structure parameters.          */
1308:Drivers/STM32F1xx_HAL_Driver/Src/stm32f1xx_hal_adc_ex.c ****   else
1309:Drivers/STM32F1xx_HAL_Driver/Src/stm32f1xx_hal_adc_ex.c ****   {
1310:Drivers/STM32F1xx_HAL_Driver/Src/stm32f1xx_hal_adc_ex.c ****     /* Update ADC state machine to error */
1311:Drivers/STM32F1xx_HAL_Driver/Src/stm32f1xx_hal_adc_ex.c ****     SET_BIT(hadc->State, HAL_ADC_STATE_ERROR_CONFIG);
 2032              		.loc 1 1311 5 is_stmt 1 view .LVU588
 2033 0030 9A6A     		ldr	r2, [r3, #40]
 2034 0032 42F02002 		orr	r2, r2, #32
 2035 0036 9A62     		str	r2, [r3, #40]
1312:Drivers/STM32F1xx_HAL_Driver/Src/stm32f1xx_hal_adc_ex.c ****     
1313:Drivers/STM32F1xx_HAL_Driver/Src/stm32f1xx_hal_adc_ex.c ****     tmp_hal_status = HAL_ERROR;
 2036              		.loc 1 1313 5 view .LVU589
 2037              	.LVL113:
 2038              		.loc 1 1313 20 is_stmt 0 view .LVU590
 2039 0038 0120     		movs	r0, #1
 2040              	.LVL114:
 2041              	.L184:
1314:Drivers/STM32F1xx_HAL_Driver/Src/stm32f1xx_hal_adc_ex.c ****   }
1315:Drivers/STM32F1xx_HAL_Driver/Src/stm32f1xx_hal_adc_ex.c ****     
1316:Drivers/STM32F1xx_HAL_Driver/Src/stm32f1xx_hal_adc_ex.c ****     
1317:Drivers/STM32F1xx_HAL_Driver/Src/stm32f1xx_hal_adc_ex.c ****   /* Process unlocked */
1318:Drivers/STM32F1xx_HAL_Driver/Src/stm32f1xx_hal_adc_ex.c ****   __HAL_UNLOCK(hadc);
 2042              		.loc 1 1318 3 is_stmt 1 view .LVU591
 2043              		.loc 1 1318 3 view .LVU592
 2044 003a 0022     		movs	r2, #0
 2045 003c 83F82420 		strb	r2, [r3, #36]
 2046              		.loc 1 1318 3 view .LVU593
1319:Drivers/STM32F1xx_HAL_Driver/Src/stm32f1xx_hal_adc_ex.c ****   
1320:Drivers/STM32F1xx_HAL_Driver/Src/stm32f1xx_hal_adc_ex.c ****   /* Return function status */
ARM GAS  /var/folders/2w/5wbrmvx534s_vk8svtxz852c0000gn/T//cc29HaPQ.s 			page 64


1321:Drivers/STM32F1xx_HAL_Driver/Src/stm32f1xx_hal_adc_ex.c ****   return tmp_hal_status;
 2047              		.loc 1 1321 3 view .LVU594
1322:Drivers/STM32F1xx_HAL_Driver/Src/stm32f1xx_hal_adc_ex.c **** } 
 2048              		.loc 1 1322 1 is_stmt 0 view .LVU595
 2049 0040 0CB0     		add	sp, sp, #48
 2050              	.LCFI31:
 2051              		.cfi_remember_state
 2052              		.cfi_def_cfa_offset 0
 2053              		@ sp needed
 2054 0042 7047     		bx	lr
 2055              	.LVL115:
 2056              	.L190:
 2057              	.LCFI32:
 2058              		.cfi_restore_state
1302:Drivers/STM32F1xx_HAL_Driver/Src/stm32f1xx_hal_adc_ex.c ****                ADC_CR1_DUALMOD    ,
 2059              		.loc 1 1302 5 is_stmt 1 view .LVU596
 2060 0044 5068     		ldr	r0, [r2, #4]
 2061 0046 20F47020 		bic	r0, r0, #983040
 2062 004a 0968     		ldr	r1, [r1]
 2063              	.LVL116:
1302:Drivers/STM32F1xx_HAL_Driver/Src/stm32f1xx_hal_adc_ex.c ****                ADC_CR1_DUALMOD    ,
 2064              		.loc 1 1302 5 is_stmt 0 view .LVU597
 2065 004c 0143     		orrs	r1, r1, r0
 2066 004e 5160     		str	r1, [r2, #4]
1277:Drivers/STM32F1xx_HAL_Driver/Src/stm32f1xx_hal_adc_ex.c ****   ADC_HandleTypeDef tmphadcSlave;
 2067              		.loc 1 1277 21 view .LVU598
 2068 0050 0020     		movs	r0, #0
1302:Drivers/STM32F1xx_HAL_Driver/Src/stm32f1xx_hal_adc_ex.c ****                ADC_CR1_DUALMOD    ,
 2069              		.loc 1 1302 5 view .LVU599
 2070 0052 F2E7     		b	.L184
 2071              	.LVL117:
 2072              	.L185:
 2073              	.LCFI33:
 2074              		.cfi_def_cfa_offset 0
1285:Drivers/STM32F1xx_HAL_Driver/Src/stm32f1xx_hal_adc_ex.c ****   
 2075              		.loc 1 1285 3 view .LVU600
 2076 0054 0220     		movs	r0, #2
 2077              	.LVL118:
 2078              		.loc 1 1322 1 view .LVU601
