ARM GAS  /var/folders/2w/5wbrmvx534s_vk8svtxz852c0000gn/T//ccwiuAqP.s 			page 1


   1              		.cpu cortex-m3
   2              		.arch armv7-m
   3              		.fpu softvfp
   4              		.eabi_attribute 20, 1
   5              		.eabi_attribute 21, 1
   6              		.eabi_attribute 23, 3
   7              		.eabi_attribute 24, 1
   8              		.eabi_attribute 25, 1
   9              		.eabi_attribute 26, 1
  10              		.eabi_attribute 30, 1
  11              		.eabi_attribute 34, 1
  12              		.eabi_attribute 18, 4
  13              		.file	"stm32f1xx_hal_pwr.c"
  14              		.text
  15              	.Ltext0:
  16              		.cfi_sections	.debug_frame
  17              		.section	.text.PWR_OverloadWfe,"ax",%progbits
  18              		.align	1
  19              		.syntax unified
  20              		.thumb
  21              		.thumb_func
  23              	PWR_OverloadWfe:
  24              	.LFB66:
  25              		.file 1 "Drivers/STM32F1xx_HAL_Driver/Src/stm32f1xx_hal_pwr.c"
   1:Drivers/STM32F1xx_HAL_Driver/Src/stm32f1xx_hal_pwr.c **** /**
   2:Drivers/STM32F1xx_HAL_Driver/Src/stm32f1xx_hal_pwr.c ****   ******************************************************************************
   3:Drivers/STM32F1xx_HAL_Driver/Src/stm32f1xx_hal_pwr.c ****   * @file    stm32f1xx_hal_pwr.c
   4:Drivers/STM32F1xx_HAL_Driver/Src/stm32f1xx_hal_pwr.c ****   * @author  MCD Application Team
   5:Drivers/STM32F1xx_HAL_Driver/Src/stm32f1xx_hal_pwr.c ****   * @version V1.1.1
   6:Drivers/STM32F1xx_HAL_Driver/Src/stm32f1xx_hal_pwr.c ****   * @date    12-May-2017
   7:Drivers/STM32F1xx_HAL_Driver/Src/stm32f1xx_hal_pwr.c ****   * @brief   PWR HAL module driver.
   8:Drivers/STM32F1xx_HAL_Driver/Src/stm32f1xx_hal_pwr.c ****   *
   9:Drivers/STM32F1xx_HAL_Driver/Src/stm32f1xx_hal_pwr.c ****   *          This file provides firmware functions to manage the following
  10:Drivers/STM32F1xx_HAL_Driver/Src/stm32f1xx_hal_pwr.c ****   *          functionalities of the Power Controller (PWR) peripheral:
  11:Drivers/STM32F1xx_HAL_Driver/Src/stm32f1xx_hal_pwr.c ****   *           + Initialization/de-initialization functions
  12:Drivers/STM32F1xx_HAL_Driver/Src/stm32f1xx_hal_pwr.c ****   *           + Peripheral Control functions 
  13:Drivers/STM32F1xx_HAL_Driver/Src/stm32f1xx_hal_pwr.c ****   *
  14:Drivers/STM32F1xx_HAL_Driver/Src/stm32f1xx_hal_pwr.c ****   ******************************************************************************
  15:Drivers/STM32F1xx_HAL_Driver/Src/stm32f1xx_hal_pwr.c ****   * @attention
  16:Drivers/STM32F1xx_HAL_Driver/Src/stm32f1xx_hal_pwr.c ****   *
  17:Drivers/STM32F1xx_HAL_Driver/Src/stm32f1xx_hal_pwr.c ****   * <h2><center>&copy; COPYRIGHT(c) 2016 STMicroelectronics</center></h2>
  18:Drivers/STM32F1xx_HAL_Driver/Src/stm32f1xx_hal_pwr.c ****   *
  19:Drivers/STM32F1xx_HAL_Driver/Src/stm32f1xx_hal_pwr.c ****   * Redistribution and use in source and binary forms, with or without modification,
  20:Drivers/STM32F1xx_HAL_Driver/Src/stm32f1xx_hal_pwr.c ****   * are permitted provided that the following conditions are met:
  21:Drivers/STM32F1xx_HAL_Driver/Src/stm32f1xx_hal_pwr.c ****   *   1. Redistributions of source code must retain the above copyright notice,
  22:Drivers/STM32F1xx_HAL_Driver/Src/stm32f1xx_hal_pwr.c ****   *      this list of conditions and the following disclaimer.
  23:Drivers/STM32F1xx_HAL_Driver/Src/stm32f1xx_hal_pwr.c ****   *   2. Redistributions in binary form must reproduce the above copyright notice,
  24:Drivers/STM32F1xx_HAL_Driver/Src/stm32f1xx_hal_pwr.c ****   *      this list of conditions and the following disclaimer in the documentation
  25:Drivers/STM32F1xx_HAL_Driver/Src/stm32f1xx_hal_pwr.c ****   *      and/or other materials provided with the distribution.
  26:Drivers/STM32F1xx_HAL_Driver/Src/stm32f1xx_hal_pwr.c ****   *   3. Neither the name of STMicroelectronics nor the names of its contributors
  27:Drivers/STM32F1xx_HAL_Driver/Src/stm32f1xx_hal_pwr.c ****   *      may be used to endorse or promote products derived from this software
  28:Drivers/STM32F1xx_HAL_Driver/Src/stm32f1xx_hal_pwr.c ****   *      without specific prior written permission.
  29:Drivers/STM32F1xx_HAL_Driver/Src/stm32f1xx_hal_pwr.c ****   *
  30:Drivers/STM32F1xx_HAL_Driver/Src/stm32f1xx_hal_pwr.c ****   * THIS SOFTWARE IS PROVIDED BY THE COPYRIGHT HOLDERS AND CONTRIBUTORS "AS IS"
  31:Drivers/STM32F1xx_HAL_Driver/Src/stm32f1xx_hal_pwr.c ****   * AND ANY EXPRESS OR IMPLIED WARRANTIES, INCLUDING, BUT NOT LIMITED TO, THE
  32:Drivers/STM32F1xx_HAL_Driver/Src/stm32f1xx_hal_pwr.c ****   * IMPLIED WARRANTIES OF MERCHANTABILITY AND FITNESS FOR A PARTICULAR PURPOSE ARE
  33:Drivers/STM32F1xx_HAL_Driver/Src/stm32f1xx_hal_pwr.c ****   * DISCLAIMED. IN NO EVENT SHALL THE COPYRIGHT HOLDER OR CONTRIBUTORS BE LIABLE
ARM GAS  /var/folders/2w/5wbrmvx534s_vk8svtxz852c0000gn/T//ccwiuAqP.s 			page 2


  34:Drivers/STM32F1xx_HAL_Driver/Src/stm32f1xx_hal_pwr.c ****   * FOR ANY DIRECT, INDIRECT, INCIDENTAL, SPECIAL, EXEMPLARY, OR CONSEQUENTIAL
  35:Drivers/STM32F1xx_HAL_Driver/Src/stm32f1xx_hal_pwr.c ****   * DAMAGES (INCLUDING, BUT NOT LIMITED TO, PROCUREMENT OF SUBSTITUTE GOODS OR
  36:Drivers/STM32F1xx_HAL_Driver/Src/stm32f1xx_hal_pwr.c ****   * SERVICES; LOSS OF USE, DATA, OR PROFITS; OR BUSINESS INTERRUPTION) HOWEVER
  37:Drivers/STM32F1xx_HAL_Driver/Src/stm32f1xx_hal_pwr.c ****   * CAUSED AND ON ANY THEORY OF LIABILITY, WHETHER IN CONTRACT, STRICT LIABILITY,
  38:Drivers/STM32F1xx_HAL_Driver/Src/stm32f1xx_hal_pwr.c ****   * OR TORT (INCLUDING NEGLIGENCE OR OTHERWISE) ARISING IN ANY WAY OUT OF THE USE
  39:Drivers/STM32F1xx_HAL_Driver/Src/stm32f1xx_hal_pwr.c ****   * OF THIS SOFTWARE, EVEN IF ADVISED OF THE POSSIBILITY OF SUCH DAMAGE.
  40:Drivers/STM32F1xx_HAL_Driver/Src/stm32f1xx_hal_pwr.c ****   *
  41:Drivers/STM32F1xx_HAL_Driver/Src/stm32f1xx_hal_pwr.c ****   ******************************************************************************
  42:Drivers/STM32F1xx_HAL_Driver/Src/stm32f1xx_hal_pwr.c ****   */
  43:Drivers/STM32F1xx_HAL_Driver/Src/stm32f1xx_hal_pwr.c **** 
  44:Drivers/STM32F1xx_HAL_Driver/Src/stm32f1xx_hal_pwr.c **** /* Includes ------------------------------------------------------------------*/
  45:Drivers/STM32F1xx_HAL_Driver/Src/stm32f1xx_hal_pwr.c **** #include "stm32f1xx_hal.h"
  46:Drivers/STM32F1xx_HAL_Driver/Src/stm32f1xx_hal_pwr.c **** 
  47:Drivers/STM32F1xx_HAL_Driver/Src/stm32f1xx_hal_pwr.c **** /** @addtogroup STM32F1xx_HAL_Driver
  48:Drivers/STM32F1xx_HAL_Driver/Src/stm32f1xx_hal_pwr.c ****   * @{
  49:Drivers/STM32F1xx_HAL_Driver/Src/stm32f1xx_hal_pwr.c ****   */
  50:Drivers/STM32F1xx_HAL_Driver/Src/stm32f1xx_hal_pwr.c **** 
  51:Drivers/STM32F1xx_HAL_Driver/Src/stm32f1xx_hal_pwr.c **** /** @defgroup PWR PWR
  52:Drivers/STM32F1xx_HAL_Driver/Src/stm32f1xx_hal_pwr.c ****   * @brief    PWR HAL module driver
  53:Drivers/STM32F1xx_HAL_Driver/Src/stm32f1xx_hal_pwr.c ****   * @{
  54:Drivers/STM32F1xx_HAL_Driver/Src/stm32f1xx_hal_pwr.c ****   */
  55:Drivers/STM32F1xx_HAL_Driver/Src/stm32f1xx_hal_pwr.c **** 
  56:Drivers/STM32F1xx_HAL_Driver/Src/stm32f1xx_hal_pwr.c **** #ifdef HAL_PWR_MODULE_ENABLED
  57:Drivers/STM32F1xx_HAL_Driver/Src/stm32f1xx_hal_pwr.c **** 
  58:Drivers/STM32F1xx_HAL_Driver/Src/stm32f1xx_hal_pwr.c **** /* Private typedef -----------------------------------------------------------*/
  59:Drivers/STM32F1xx_HAL_Driver/Src/stm32f1xx_hal_pwr.c **** /* Private define ------------------------------------------------------------*/
  60:Drivers/STM32F1xx_HAL_Driver/Src/stm32f1xx_hal_pwr.c **** 
  61:Drivers/STM32F1xx_HAL_Driver/Src/stm32f1xx_hal_pwr.c **** /** @defgroup PWR_Private_Constants PWR Private Constants
  62:Drivers/STM32F1xx_HAL_Driver/Src/stm32f1xx_hal_pwr.c ****   * @{
  63:Drivers/STM32F1xx_HAL_Driver/Src/stm32f1xx_hal_pwr.c ****   */
  64:Drivers/STM32F1xx_HAL_Driver/Src/stm32f1xx_hal_pwr.c ****   
  65:Drivers/STM32F1xx_HAL_Driver/Src/stm32f1xx_hal_pwr.c **** /** @defgroup PWR_PVD_Mode_Mask PWR PVD Mode Mask
  66:Drivers/STM32F1xx_HAL_Driver/Src/stm32f1xx_hal_pwr.c ****   * @{
  67:Drivers/STM32F1xx_HAL_Driver/Src/stm32f1xx_hal_pwr.c ****   */ 
  68:Drivers/STM32F1xx_HAL_Driver/Src/stm32f1xx_hal_pwr.c **** #define PVD_MODE_IT               0x00010000U
  69:Drivers/STM32F1xx_HAL_Driver/Src/stm32f1xx_hal_pwr.c **** #define PVD_MODE_EVT              0x00020000U
  70:Drivers/STM32F1xx_HAL_Driver/Src/stm32f1xx_hal_pwr.c **** #define PVD_RISING_EDGE           0x00000001U
  71:Drivers/STM32F1xx_HAL_Driver/Src/stm32f1xx_hal_pwr.c **** #define PVD_FALLING_EDGE          0x00000002U
  72:Drivers/STM32F1xx_HAL_Driver/Src/stm32f1xx_hal_pwr.c **** /**
  73:Drivers/STM32F1xx_HAL_Driver/Src/stm32f1xx_hal_pwr.c ****   * @}
  74:Drivers/STM32F1xx_HAL_Driver/Src/stm32f1xx_hal_pwr.c ****   */
  75:Drivers/STM32F1xx_HAL_Driver/Src/stm32f1xx_hal_pwr.c **** 
  76:Drivers/STM32F1xx_HAL_Driver/Src/stm32f1xx_hal_pwr.c **** 
  77:Drivers/STM32F1xx_HAL_Driver/Src/stm32f1xx_hal_pwr.c **** /** @defgroup PWR_register_alias_address PWR Register alias address
  78:Drivers/STM32F1xx_HAL_Driver/Src/stm32f1xx_hal_pwr.c ****   * @{
  79:Drivers/STM32F1xx_HAL_Driver/Src/stm32f1xx_hal_pwr.c ****   */ 
  80:Drivers/STM32F1xx_HAL_Driver/Src/stm32f1xx_hal_pwr.c **** /* ------------- PWR registers bit address in the alias region ---------------*/
  81:Drivers/STM32F1xx_HAL_Driver/Src/stm32f1xx_hal_pwr.c **** #define PWR_OFFSET               (PWR_BASE - PERIPH_BASE)
  82:Drivers/STM32F1xx_HAL_Driver/Src/stm32f1xx_hal_pwr.c **** #define PWR_CR_OFFSET            0x00U
  83:Drivers/STM32F1xx_HAL_Driver/Src/stm32f1xx_hal_pwr.c **** #define PWR_CSR_OFFSET           0x04U
  84:Drivers/STM32F1xx_HAL_Driver/Src/stm32f1xx_hal_pwr.c **** #define PWR_CR_OFFSET_BB         (PWR_OFFSET + PWR_CR_OFFSET)
  85:Drivers/STM32F1xx_HAL_Driver/Src/stm32f1xx_hal_pwr.c **** #define PWR_CSR_OFFSET_BB        (PWR_OFFSET + PWR_CSR_OFFSET)
  86:Drivers/STM32F1xx_HAL_Driver/Src/stm32f1xx_hal_pwr.c **** /**
  87:Drivers/STM32F1xx_HAL_Driver/Src/stm32f1xx_hal_pwr.c ****   * @}
  88:Drivers/STM32F1xx_HAL_Driver/Src/stm32f1xx_hal_pwr.c ****   */
  89:Drivers/STM32F1xx_HAL_Driver/Src/stm32f1xx_hal_pwr.c ****    
  90:Drivers/STM32F1xx_HAL_Driver/Src/stm32f1xx_hal_pwr.c **** /** @defgroup PWR_CR_register_alias PWR CR Register alias address
ARM GAS  /var/folders/2w/5wbrmvx534s_vk8svtxz852c0000gn/T//ccwiuAqP.s 			page 3


  91:Drivers/STM32F1xx_HAL_Driver/Src/stm32f1xx_hal_pwr.c ****   * @{
  92:Drivers/STM32F1xx_HAL_Driver/Src/stm32f1xx_hal_pwr.c ****   */  
  93:Drivers/STM32F1xx_HAL_Driver/Src/stm32f1xx_hal_pwr.c **** /* --- CR Register ---*/
  94:Drivers/STM32F1xx_HAL_Driver/Src/stm32f1xx_hal_pwr.c **** /* Alias word address of LPSDSR bit */
  95:Drivers/STM32F1xx_HAL_Driver/Src/stm32f1xx_hal_pwr.c **** #define LPSDSR_BIT_NUMBER        PWR_CR_LPDS_Pos
  96:Drivers/STM32F1xx_HAL_Driver/Src/stm32f1xx_hal_pwr.c **** #define CR_LPSDSR_BB             ((uint32_t)(PERIPH_BB_BASE + (PWR_CR_OFFSET_BB * 32U) + (LPSDSR_BI
  97:Drivers/STM32F1xx_HAL_Driver/Src/stm32f1xx_hal_pwr.c **** 
  98:Drivers/STM32F1xx_HAL_Driver/Src/stm32f1xx_hal_pwr.c **** /* Alias word address of DBP bit */
  99:Drivers/STM32F1xx_HAL_Driver/Src/stm32f1xx_hal_pwr.c **** #define DBP_BIT_NUMBER            PWR_CR_DBP_Pos
 100:Drivers/STM32F1xx_HAL_Driver/Src/stm32f1xx_hal_pwr.c **** #define CR_DBP_BB                ((uint32_t)(PERIPH_BB_BASE + (PWR_CR_OFFSET_BB * 32U) + (DBP_BIT_N
 101:Drivers/STM32F1xx_HAL_Driver/Src/stm32f1xx_hal_pwr.c **** 
 102:Drivers/STM32F1xx_HAL_Driver/Src/stm32f1xx_hal_pwr.c **** /* Alias word address of PVDE bit */
 103:Drivers/STM32F1xx_HAL_Driver/Src/stm32f1xx_hal_pwr.c **** #define PVDE_BIT_NUMBER           PWR_CR_PVDE_Pos
 104:Drivers/STM32F1xx_HAL_Driver/Src/stm32f1xx_hal_pwr.c **** #define CR_PVDE_BB               ((uint32_t)(PERIPH_BB_BASE + (PWR_CR_OFFSET_BB * 32U) + (PVDE_BIT_
 105:Drivers/STM32F1xx_HAL_Driver/Src/stm32f1xx_hal_pwr.c **** 
 106:Drivers/STM32F1xx_HAL_Driver/Src/stm32f1xx_hal_pwr.c **** /**
 107:Drivers/STM32F1xx_HAL_Driver/Src/stm32f1xx_hal_pwr.c ****   * @}
 108:Drivers/STM32F1xx_HAL_Driver/Src/stm32f1xx_hal_pwr.c ****   */
 109:Drivers/STM32F1xx_HAL_Driver/Src/stm32f1xx_hal_pwr.c **** 
 110:Drivers/STM32F1xx_HAL_Driver/Src/stm32f1xx_hal_pwr.c **** /** @defgroup PWR_CSR_register_alias PWR CSR Register alias address
 111:Drivers/STM32F1xx_HAL_Driver/Src/stm32f1xx_hal_pwr.c ****   * @{
 112:Drivers/STM32F1xx_HAL_Driver/Src/stm32f1xx_hal_pwr.c ****   */
 113:Drivers/STM32F1xx_HAL_Driver/Src/stm32f1xx_hal_pwr.c **** 
 114:Drivers/STM32F1xx_HAL_Driver/Src/stm32f1xx_hal_pwr.c **** /* --- CSR Register ---*/
 115:Drivers/STM32F1xx_HAL_Driver/Src/stm32f1xx_hal_pwr.c **** /* Alias word address of EWUP1 bit */
 116:Drivers/STM32F1xx_HAL_Driver/Src/stm32f1xx_hal_pwr.c **** #define CSR_EWUP_BB(VAL)         ((uint32_t)(PERIPH_BB_BASE + (PWR_CSR_OFFSET_BB * 32U) + (POSITION
 117:Drivers/STM32F1xx_HAL_Driver/Src/stm32f1xx_hal_pwr.c **** /**
 118:Drivers/STM32F1xx_HAL_Driver/Src/stm32f1xx_hal_pwr.c ****   * @}
 119:Drivers/STM32F1xx_HAL_Driver/Src/stm32f1xx_hal_pwr.c ****   */
 120:Drivers/STM32F1xx_HAL_Driver/Src/stm32f1xx_hal_pwr.c ****   
 121:Drivers/STM32F1xx_HAL_Driver/Src/stm32f1xx_hal_pwr.c **** /**
 122:Drivers/STM32F1xx_HAL_Driver/Src/stm32f1xx_hal_pwr.c ****   * @}
 123:Drivers/STM32F1xx_HAL_Driver/Src/stm32f1xx_hal_pwr.c ****   */
 124:Drivers/STM32F1xx_HAL_Driver/Src/stm32f1xx_hal_pwr.c **** 
 125:Drivers/STM32F1xx_HAL_Driver/Src/stm32f1xx_hal_pwr.c **** /* Private variables ---------------------------------------------------------*/
 126:Drivers/STM32F1xx_HAL_Driver/Src/stm32f1xx_hal_pwr.c **** /* Private function prototypes -----------------------------------------------*/
 127:Drivers/STM32F1xx_HAL_Driver/Src/stm32f1xx_hal_pwr.c **** /** @defgroup PWR_Private_Functions PWR Private Functions
 128:Drivers/STM32F1xx_HAL_Driver/Src/stm32f1xx_hal_pwr.c ****  * brief   WFE cortex command overloaded for HAL_PWR_EnterSTOPMode usage only (see Workaround secti
 129:Drivers/STM32F1xx_HAL_Driver/Src/stm32f1xx_hal_pwr.c ****  * @{
 130:Drivers/STM32F1xx_HAL_Driver/Src/stm32f1xx_hal_pwr.c ****  */
 131:Drivers/STM32F1xx_HAL_Driver/Src/stm32f1xx_hal_pwr.c **** static void PWR_OverloadWfe(void);
 132:Drivers/STM32F1xx_HAL_Driver/Src/stm32f1xx_hal_pwr.c **** 
 133:Drivers/STM32F1xx_HAL_Driver/Src/stm32f1xx_hal_pwr.c **** /* Private functions ---------------------------------------------------------*/
 134:Drivers/STM32F1xx_HAL_Driver/Src/stm32f1xx_hal_pwr.c **** __NOINLINE
 135:Drivers/STM32F1xx_HAL_Driver/Src/stm32f1xx_hal_pwr.c **** static void PWR_OverloadWfe(void)
 136:Drivers/STM32F1xx_HAL_Driver/Src/stm32f1xx_hal_pwr.c **** {
  26              		.loc 1 136 1 view -0
  27              		.cfi_startproc
  28              		@ args = 0, pretend = 0, frame = 0
  29              		@ frame_needed = 0, uses_anonymous_args = 0
  30              		@ link register save eliminated.
 137:Drivers/STM32F1xx_HAL_Driver/Src/stm32f1xx_hal_pwr.c ****   __asm volatile( "wfe" );
  31              		.loc 1 137 3 view .LVU1
  32              		.syntax unified
  33              	@ 137 "Drivers/STM32F1xx_HAL_Driver/Src/stm32f1xx_hal_pwr.c" 1
  34 0000 20BF     		wfe
  35              	@ 0 "" 2
ARM GAS  /var/folders/2w/5wbrmvx534s_vk8svtxz852c0000gn/T//ccwiuAqP.s 			page 4


 138:Drivers/STM32F1xx_HAL_Driver/Src/stm32f1xx_hal_pwr.c ****   __asm volatile( "nop" );
  36              		.loc 1 138 3 view .LVU2
  37              	@ 138 "Drivers/STM32F1xx_HAL_Driver/Src/stm32f1xx_hal_pwr.c" 1
  38 0002 00BF     		nop
  39              	@ 0 "" 2
 139:Drivers/STM32F1xx_HAL_Driver/Src/stm32f1xx_hal_pwr.c **** }
  40              		.loc 1 139 1 is_stmt 0 view .LVU3
  41              		.thumb
  42              		.syntax unified
  43 0004 7047     		bx	lr
  44              		.cfi_endproc
  45              	.LFE66:
  47              		.section	.text.HAL_PWR_DeInit,"ax",%progbits
  48              		.align	1
  49              		.global	HAL_PWR_DeInit
  50              		.syntax unified
  51              		.thumb
  52              		.thumb_func
  54              	HAL_PWR_DeInit:
  55              	.LFB67:
 140:Drivers/STM32F1xx_HAL_Driver/Src/stm32f1xx_hal_pwr.c **** 
 141:Drivers/STM32F1xx_HAL_Driver/Src/stm32f1xx_hal_pwr.c **** /**
 142:Drivers/STM32F1xx_HAL_Driver/Src/stm32f1xx_hal_pwr.c ****   * @}
 143:Drivers/STM32F1xx_HAL_Driver/Src/stm32f1xx_hal_pwr.c ****   */
 144:Drivers/STM32F1xx_HAL_Driver/Src/stm32f1xx_hal_pwr.c **** 
 145:Drivers/STM32F1xx_HAL_Driver/Src/stm32f1xx_hal_pwr.c **** 
 146:Drivers/STM32F1xx_HAL_Driver/Src/stm32f1xx_hal_pwr.c **** /** @defgroup PWR_Exported_Functions PWR Exported Functions
 147:Drivers/STM32F1xx_HAL_Driver/Src/stm32f1xx_hal_pwr.c ****   * @{
 148:Drivers/STM32F1xx_HAL_Driver/Src/stm32f1xx_hal_pwr.c ****   */
 149:Drivers/STM32F1xx_HAL_Driver/Src/stm32f1xx_hal_pwr.c **** 
 150:Drivers/STM32F1xx_HAL_Driver/Src/stm32f1xx_hal_pwr.c **** /** @defgroup PWR_Exported_Functions_Group1 Initialization and de-initialization functions 
 151:Drivers/STM32F1xx_HAL_Driver/Src/stm32f1xx_hal_pwr.c ****   *  @brief   Initialization and de-initialization functions
 152:Drivers/STM32F1xx_HAL_Driver/Src/stm32f1xx_hal_pwr.c ****   *
 153:Drivers/STM32F1xx_HAL_Driver/Src/stm32f1xx_hal_pwr.c **** @verbatim
 154:Drivers/STM32F1xx_HAL_Driver/Src/stm32f1xx_hal_pwr.c ****  ===============================================================================
 155:Drivers/STM32F1xx_HAL_Driver/Src/stm32f1xx_hal_pwr.c ****               ##### Initialization and de-initialization functions #####
 156:Drivers/STM32F1xx_HAL_Driver/Src/stm32f1xx_hal_pwr.c ****  ===============================================================================
 157:Drivers/STM32F1xx_HAL_Driver/Src/stm32f1xx_hal_pwr.c ****     [..]
 158:Drivers/STM32F1xx_HAL_Driver/Src/stm32f1xx_hal_pwr.c ****       After reset, the backup domain (RTC registers, RTC backup data
 159:Drivers/STM32F1xx_HAL_Driver/Src/stm32f1xx_hal_pwr.c ****       registers) is protected against possible unwanted
 160:Drivers/STM32F1xx_HAL_Driver/Src/stm32f1xx_hal_pwr.c ****       write accesses.
 161:Drivers/STM32F1xx_HAL_Driver/Src/stm32f1xx_hal_pwr.c ****       To enable access to the RTC Domain and RTC registers, proceed as follows:
 162:Drivers/STM32F1xx_HAL_Driver/Src/stm32f1xx_hal_pwr.c ****         (+) Enable the Power Controller (PWR) APB1 interface clock using the
 163:Drivers/STM32F1xx_HAL_Driver/Src/stm32f1xx_hal_pwr.c ****             __HAL_RCC_PWR_CLK_ENABLE() macro.
 164:Drivers/STM32F1xx_HAL_Driver/Src/stm32f1xx_hal_pwr.c ****         (+) Enable access to RTC domain using the HAL_PWR_EnableBkUpAccess() function.
 165:Drivers/STM32F1xx_HAL_Driver/Src/stm32f1xx_hal_pwr.c **** 
 166:Drivers/STM32F1xx_HAL_Driver/Src/stm32f1xx_hal_pwr.c **** @endverbatim
 167:Drivers/STM32F1xx_HAL_Driver/Src/stm32f1xx_hal_pwr.c ****   * @{
 168:Drivers/STM32F1xx_HAL_Driver/Src/stm32f1xx_hal_pwr.c ****   */
 169:Drivers/STM32F1xx_HAL_Driver/Src/stm32f1xx_hal_pwr.c **** 
 170:Drivers/STM32F1xx_HAL_Driver/Src/stm32f1xx_hal_pwr.c **** /**
 171:Drivers/STM32F1xx_HAL_Driver/Src/stm32f1xx_hal_pwr.c ****   * @brief  Deinitializes the PWR peripheral registers to their default reset values.  
 172:Drivers/STM32F1xx_HAL_Driver/Src/stm32f1xx_hal_pwr.c ****   * @retval None
 173:Drivers/STM32F1xx_HAL_Driver/Src/stm32f1xx_hal_pwr.c ****   */
 174:Drivers/STM32F1xx_HAL_Driver/Src/stm32f1xx_hal_pwr.c **** void HAL_PWR_DeInit(void)
 175:Drivers/STM32F1xx_HAL_Driver/Src/stm32f1xx_hal_pwr.c **** {
  56              		.loc 1 175 1 is_stmt 1 view -0
ARM GAS  /var/folders/2w/5wbrmvx534s_vk8svtxz852c0000gn/T//ccwiuAqP.s 			page 5


  57              		.cfi_startproc
  58              		@ args = 0, pretend = 0, frame = 0
  59              		@ frame_needed = 0, uses_anonymous_args = 0
  60              		@ link register save eliminated.
 176:Drivers/STM32F1xx_HAL_Driver/Src/stm32f1xx_hal_pwr.c ****   __HAL_RCC_PWR_FORCE_RESET();
  61              		.loc 1 176 3 view .LVU5
  62 0000 044B     		ldr	r3, .L3
  63 0002 1A69     		ldr	r2, [r3, #16]
  64 0004 42F08052 		orr	r2, r2, #268435456
  65 0008 1A61     		str	r2, [r3, #16]
 177:Drivers/STM32F1xx_HAL_Driver/Src/stm32f1xx_hal_pwr.c ****   __HAL_RCC_PWR_RELEASE_RESET();
  66              		.loc 1 177 3 view .LVU6
  67 000a 1A69     		ldr	r2, [r3, #16]
  68 000c 22F08052 		bic	r2, r2, #268435456
  69 0010 1A61     		str	r2, [r3, #16]
 178:Drivers/STM32F1xx_HAL_Driver/Src/stm32f1xx_hal_pwr.c **** }
  70              		.loc 1 178 1 is_stmt 0 view .LVU7
  71 0012 7047     		bx	lr
  72              	.L4:
  73              		.align	2
  74              	.L3:
  75 0014 00100240 		.word	1073876992
  76              		.cfi_endproc
  77              	.LFE67:
  79              		.section	.text.HAL_PWR_EnableBkUpAccess,"ax",%progbits
  80              		.align	1
  81              		.global	HAL_PWR_EnableBkUpAccess
  82              		.syntax unified
  83              		.thumb
  84              		.thumb_func
  86              	HAL_PWR_EnableBkUpAccess:
  87              	.LFB68:
 179:Drivers/STM32F1xx_HAL_Driver/Src/stm32f1xx_hal_pwr.c **** 
 180:Drivers/STM32F1xx_HAL_Driver/Src/stm32f1xx_hal_pwr.c **** /**
 181:Drivers/STM32F1xx_HAL_Driver/Src/stm32f1xx_hal_pwr.c ****   * @brief  Enables access to the backup domain (RTC registers, RTC
 182:Drivers/STM32F1xx_HAL_Driver/Src/stm32f1xx_hal_pwr.c ****   *         backup data registers ).
 183:Drivers/STM32F1xx_HAL_Driver/Src/stm32f1xx_hal_pwr.c ****   * @note   If the HSE divided by 128 is used as the RTC clock, the
 184:Drivers/STM32F1xx_HAL_Driver/Src/stm32f1xx_hal_pwr.c ****   *         Backup Domain Access should be kept enabled.
 185:Drivers/STM32F1xx_HAL_Driver/Src/stm32f1xx_hal_pwr.c ****   * @retval None
 186:Drivers/STM32F1xx_HAL_Driver/Src/stm32f1xx_hal_pwr.c ****   */
 187:Drivers/STM32F1xx_HAL_Driver/Src/stm32f1xx_hal_pwr.c **** void HAL_PWR_EnableBkUpAccess(void)
 188:Drivers/STM32F1xx_HAL_Driver/Src/stm32f1xx_hal_pwr.c **** {
  88              		.loc 1 188 1 is_stmt 1 view -0
  89              		.cfi_startproc
  90              		@ args = 0, pretend = 0, frame = 0
  91              		@ frame_needed = 0, uses_anonymous_args = 0
  92              		@ link register save eliminated.
 189:Drivers/STM32F1xx_HAL_Driver/Src/stm32f1xx_hal_pwr.c ****   /* Enable access to RTC and backup registers */
 190:Drivers/STM32F1xx_HAL_Driver/Src/stm32f1xx_hal_pwr.c ****   *(__IO uint32_t *) CR_DBP_BB = (uint32_t)ENABLE;
  93              		.loc 1 190 3 view .LVU9
  94              		.loc 1 190 32 is_stmt 0 view .LVU10
  95 0000 014B     		ldr	r3, .L6
  96 0002 0122     		movs	r2, #1
  97 0004 1A62     		str	r2, [r3, #32]
 191:Drivers/STM32F1xx_HAL_Driver/Src/stm32f1xx_hal_pwr.c **** }
  98              		.loc 1 191 1 view .LVU11
  99 0006 7047     		bx	lr
ARM GAS  /var/folders/2w/5wbrmvx534s_vk8svtxz852c0000gn/T//ccwiuAqP.s 			page 6


 100              	.L7:
 101              		.align	2
 102              	.L6:
 103 0008 00000E42 		.word	1108213760
 104              		.cfi_endproc
 105              	.LFE68:
 107              		.section	.text.HAL_PWR_DisableBkUpAccess,"ax",%progbits
 108              		.align	1
 109              		.global	HAL_PWR_DisableBkUpAccess
 110              		.syntax unified
 111              		.thumb
 112              		.thumb_func
 114              	HAL_PWR_DisableBkUpAccess:
 115              	.LFB69:
 192:Drivers/STM32F1xx_HAL_Driver/Src/stm32f1xx_hal_pwr.c **** 
 193:Drivers/STM32F1xx_HAL_Driver/Src/stm32f1xx_hal_pwr.c **** /**
 194:Drivers/STM32F1xx_HAL_Driver/Src/stm32f1xx_hal_pwr.c ****   * @brief  Disables access to the backup domain (RTC registers, RTC
 195:Drivers/STM32F1xx_HAL_Driver/Src/stm32f1xx_hal_pwr.c ****   *         backup data registers).
 196:Drivers/STM32F1xx_HAL_Driver/Src/stm32f1xx_hal_pwr.c ****   * @note   If the HSE divided by 128 is used as the RTC clock, the
 197:Drivers/STM32F1xx_HAL_Driver/Src/stm32f1xx_hal_pwr.c ****   *         Backup Domain Access should be kept enabled.
 198:Drivers/STM32F1xx_HAL_Driver/Src/stm32f1xx_hal_pwr.c ****   * @retval None
 199:Drivers/STM32F1xx_HAL_Driver/Src/stm32f1xx_hal_pwr.c ****   */
 200:Drivers/STM32F1xx_HAL_Driver/Src/stm32f1xx_hal_pwr.c **** void HAL_PWR_DisableBkUpAccess(void)
 201:Drivers/STM32F1xx_HAL_Driver/Src/stm32f1xx_hal_pwr.c **** {
 116              		.loc 1 201 1 is_stmt 1 view -0
 117              		.cfi_startproc
 118              		@ args = 0, pretend = 0, frame = 0
 119              		@ frame_needed = 0, uses_anonymous_args = 0
 120              		@ link register save eliminated.
 202:Drivers/STM32F1xx_HAL_Driver/Src/stm32f1xx_hal_pwr.c ****   /* Disable access to RTC and backup registers */
 203:Drivers/STM32F1xx_HAL_Driver/Src/stm32f1xx_hal_pwr.c ****   *(__IO uint32_t *) CR_DBP_BB = (uint32_t)DISABLE;
 121              		.loc 1 203 3 view .LVU13
 122              		.loc 1 203 32 is_stmt 0 view .LVU14
 123 0000 014B     		ldr	r3, .L9
 124 0002 0022     		movs	r2, #0
 125 0004 1A62     		str	r2, [r3, #32]
 204:Drivers/STM32F1xx_HAL_Driver/Src/stm32f1xx_hal_pwr.c **** }
 126              		.loc 1 204 1 view .LVU15
 127 0006 7047     		bx	lr
 128              	.L10:
 129              		.align	2
 130              	.L9:
 131 0008 00000E42 		.word	1108213760
 132              		.cfi_endproc
 133              	.LFE69:
 135              		.section	.text.HAL_PWR_ConfigPVD,"ax",%progbits
 136              		.align	1
 137              		.global	HAL_PWR_ConfigPVD
 138              		.syntax unified
 139              		.thumb
 140              		.thumb_func
 142              	HAL_PWR_ConfigPVD:
 143              	.LVL0:
 144              	.LFB70:
 205:Drivers/STM32F1xx_HAL_Driver/Src/stm32f1xx_hal_pwr.c **** 
 206:Drivers/STM32F1xx_HAL_Driver/Src/stm32f1xx_hal_pwr.c **** /**
 207:Drivers/STM32F1xx_HAL_Driver/Src/stm32f1xx_hal_pwr.c ****   * @}
ARM GAS  /var/folders/2w/5wbrmvx534s_vk8svtxz852c0000gn/T//ccwiuAqP.s 			page 7


 208:Drivers/STM32F1xx_HAL_Driver/Src/stm32f1xx_hal_pwr.c ****   */
 209:Drivers/STM32F1xx_HAL_Driver/Src/stm32f1xx_hal_pwr.c **** 
 210:Drivers/STM32F1xx_HAL_Driver/Src/stm32f1xx_hal_pwr.c **** /** @defgroup PWR_Exported_Functions_Group2 Peripheral Control functions 
 211:Drivers/STM32F1xx_HAL_Driver/Src/stm32f1xx_hal_pwr.c ****   * @brief    Low Power modes configuration functions
 212:Drivers/STM32F1xx_HAL_Driver/Src/stm32f1xx_hal_pwr.c ****   *
 213:Drivers/STM32F1xx_HAL_Driver/Src/stm32f1xx_hal_pwr.c **** @verbatim
 214:Drivers/STM32F1xx_HAL_Driver/Src/stm32f1xx_hal_pwr.c ****  ===============================================================================
 215:Drivers/STM32F1xx_HAL_Driver/Src/stm32f1xx_hal_pwr.c ****                  ##### Peripheral Control functions #####
 216:Drivers/STM32F1xx_HAL_Driver/Src/stm32f1xx_hal_pwr.c ****  ===============================================================================
 217:Drivers/STM32F1xx_HAL_Driver/Src/stm32f1xx_hal_pwr.c ****      
 218:Drivers/STM32F1xx_HAL_Driver/Src/stm32f1xx_hal_pwr.c ****     *** PVD configuration ***
 219:Drivers/STM32F1xx_HAL_Driver/Src/stm32f1xx_hal_pwr.c ****     =========================
 220:Drivers/STM32F1xx_HAL_Driver/Src/stm32f1xx_hal_pwr.c ****     [..]
 221:Drivers/STM32F1xx_HAL_Driver/Src/stm32f1xx_hal_pwr.c ****       (+) The PVD is used to monitor the VDD power supply by comparing it to a
 222:Drivers/STM32F1xx_HAL_Driver/Src/stm32f1xx_hal_pwr.c ****           threshold selected by the PVD Level (PLS[2:0] bits in the PWR_CR).
 223:Drivers/STM32F1xx_HAL_Driver/Src/stm32f1xx_hal_pwr.c **** 
 224:Drivers/STM32F1xx_HAL_Driver/Src/stm32f1xx_hal_pwr.c ****       (+) A PVDO flag is available to indicate if VDD/VDDA is higher or lower
 225:Drivers/STM32F1xx_HAL_Driver/Src/stm32f1xx_hal_pwr.c ****           than the PVD threshold. This event is internally connected to the EXTI
 226:Drivers/STM32F1xx_HAL_Driver/Src/stm32f1xx_hal_pwr.c ****           line16 and can generate an interrupt if enabled. This is done through
 227:Drivers/STM32F1xx_HAL_Driver/Src/stm32f1xx_hal_pwr.c ****           __HAL_PVD_EXTI_ENABLE_IT() macro.
 228:Drivers/STM32F1xx_HAL_Driver/Src/stm32f1xx_hal_pwr.c ****       (+) The PVD is stopped in Standby mode.
 229:Drivers/STM32F1xx_HAL_Driver/Src/stm32f1xx_hal_pwr.c **** 
 230:Drivers/STM32F1xx_HAL_Driver/Src/stm32f1xx_hal_pwr.c ****     *** WakeUp pin configuration ***
 231:Drivers/STM32F1xx_HAL_Driver/Src/stm32f1xx_hal_pwr.c ****     ================================
 232:Drivers/STM32F1xx_HAL_Driver/Src/stm32f1xx_hal_pwr.c ****     [..]
 233:Drivers/STM32F1xx_HAL_Driver/Src/stm32f1xx_hal_pwr.c ****       (+) WakeUp pin is used to wake up the system from Standby mode. This pin is
 234:Drivers/STM32F1xx_HAL_Driver/Src/stm32f1xx_hal_pwr.c ****           forced in input pull-down configuration and is active on rising edges.
 235:Drivers/STM32F1xx_HAL_Driver/Src/stm32f1xx_hal_pwr.c ****       (+) There is one WakeUp pin:
 236:Drivers/STM32F1xx_HAL_Driver/Src/stm32f1xx_hal_pwr.c ****           WakeUp Pin 1 on PA.00.
 237:Drivers/STM32F1xx_HAL_Driver/Src/stm32f1xx_hal_pwr.c **** 
 238:Drivers/STM32F1xx_HAL_Driver/Src/stm32f1xx_hal_pwr.c ****     [..]
 239:Drivers/STM32F1xx_HAL_Driver/Src/stm32f1xx_hal_pwr.c **** 
 240:Drivers/STM32F1xx_HAL_Driver/Src/stm32f1xx_hal_pwr.c ****     *** Low Power modes configuration ***
 241:Drivers/STM32F1xx_HAL_Driver/Src/stm32f1xx_hal_pwr.c ****     =====================================
 242:Drivers/STM32F1xx_HAL_Driver/Src/stm32f1xx_hal_pwr.c ****      [..]
 243:Drivers/STM32F1xx_HAL_Driver/Src/stm32f1xx_hal_pwr.c ****       The device features 3 low-power modes:
 244:Drivers/STM32F1xx_HAL_Driver/Src/stm32f1xx_hal_pwr.c ****       (+) Sleep mode: CPU clock off, all peripherals including Cortex-M3 core peripherals like 
 245:Drivers/STM32F1xx_HAL_Driver/Src/stm32f1xx_hal_pwr.c ****                       NVIC, SysTick, etc. are kept running
 246:Drivers/STM32F1xx_HAL_Driver/Src/stm32f1xx_hal_pwr.c ****       (+) Stop mode: All clocks are stopped
 247:Drivers/STM32F1xx_HAL_Driver/Src/stm32f1xx_hal_pwr.c ****       (+) Standby mode: 1.8V domain powered off
 248:Drivers/STM32F1xx_HAL_Driver/Src/stm32f1xx_hal_pwr.c ****   
 249:Drivers/STM32F1xx_HAL_Driver/Src/stm32f1xx_hal_pwr.c ****   
 250:Drivers/STM32F1xx_HAL_Driver/Src/stm32f1xx_hal_pwr.c ****    *** Sleep mode ***
 251:Drivers/STM32F1xx_HAL_Driver/Src/stm32f1xx_hal_pwr.c ****    ==================
 252:Drivers/STM32F1xx_HAL_Driver/Src/stm32f1xx_hal_pwr.c ****     [..]
 253:Drivers/STM32F1xx_HAL_Driver/Src/stm32f1xx_hal_pwr.c ****       (+) Entry:
 254:Drivers/STM32F1xx_HAL_Driver/Src/stm32f1xx_hal_pwr.c ****           The Sleep mode is entered by using the HAL_PWR_EnterSLEEPMode(PWR_MAINREGULATOR_ON, PWR_S
 255:Drivers/STM32F1xx_HAL_Driver/Src/stm32f1xx_hal_pwr.c ****               functions with
 256:Drivers/STM32F1xx_HAL_Driver/Src/stm32f1xx_hal_pwr.c ****           (++) PWR_SLEEPENTRY_WFI: enter SLEEP mode with WFI instruction
 257:Drivers/STM32F1xx_HAL_Driver/Src/stm32f1xx_hal_pwr.c ****           (++) PWR_SLEEPENTRY_WFE: enter SLEEP mode with WFE instruction
 258:Drivers/STM32F1xx_HAL_Driver/Src/stm32f1xx_hal_pwr.c ****      
 259:Drivers/STM32F1xx_HAL_Driver/Src/stm32f1xx_hal_pwr.c ****       (+) Exit:
 260:Drivers/STM32F1xx_HAL_Driver/Src/stm32f1xx_hal_pwr.c ****         (++) WFI entry mode, Any peripheral interrupt acknowledged by the nested vectored interrupt
 261:Drivers/STM32F1xx_HAL_Driver/Src/stm32f1xx_hal_pwr.c ****              controller (NVIC) can wake up the device from Sleep mode.
 262:Drivers/STM32F1xx_HAL_Driver/Src/stm32f1xx_hal_pwr.c ****         (++) WFE entry mode, Any wakeup event can wake up the device from Sleep mode.
 263:Drivers/STM32F1xx_HAL_Driver/Src/stm32f1xx_hal_pwr.c ****            (+++) Any peripheral interrupt w/o NVIC configuration & SEVONPEND bit set in the Cortex 
 264:Drivers/STM32F1xx_HAL_Driver/Src/stm32f1xx_hal_pwr.c ****            (+++) Any EXTI Line (Internal or External) configured in Event mode
ARM GAS  /var/folders/2w/5wbrmvx534s_vk8svtxz852c0000gn/T//ccwiuAqP.s 			page 8


 265:Drivers/STM32F1xx_HAL_Driver/Src/stm32f1xx_hal_pwr.c **** 
 266:Drivers/STM32F1xx_HAL_Driver/Src/stm32f1xx_hal_pwr.c ****    *** Stop mode ***
 267:Drivers/STM32F1xx_HAL_Driver/Src/stm32f1xx_hal_pwr.c ****    =================
 268:Drivers/STM32F1xx_HAL_Driver/Src/stm32f1xx_hal_pwr.c ****     [..]
 269:Drivers/STM32F1xx_HAL_Driver/Src/stm32f1xx_hal_pwr.c ****       The Stop mode is based on the Cortex-M3 deepsleep mode combined with peripheral
 270:Drivers/STM32F1xx_HAL_Driver/Src/stm32f1xx_hal_pwr.c ****       clock gating. The voltage regulator can be configured either in normal or low-power mode.
 271:Drivers/STM32F1xx_HAL_Driver/Src/stm32f1xx_hal_pwr.c ****       In Stop mode, all clocks in the 1.8 V domain are stopped, the PLL, the HSI and the HSE RC 
 272:Drivers/STM32F1xx_HAL_Driver/Src/stm32f1xx_hal_pwr.c ****       oscillators are disabled. SRAM and register contents are preserved.
 273:Drivers/STM32F1xx_HAL_Driver/Src/stm32f1xx_hal_pwr.c ****       In Stop mode, all I/O pins keep the same state as in Run mode.
 274:Drivers/STM32F1xx_HAL_Driver/Src/stm32f1xx_hal_pwr.c **** 
 275:Drivers/STM32F1xx_HAL_Driver/Src/stm32f1xx_hal_pwr.c ****       (+) Entry:
 276:Drivers/STM32F1xx_HAL_Driver/Src/stm32f1xx_hal_pwr.c ****            The Stop mode is entered using the HAL_PWR_EnterSTOPMode(PWR_REGULATOR_VALUE, PWR_SLEEPE
 277:Drivers/STM32F1xx_HAL_Driver/Src/stm32f1xx_hal_pwr.c ****              function with:
 278:Drivers/STM32F1xx_HAL_Driver/Src/stm32f1xx_hal_pwr.c ****           (++) PWR_REGULATOR_VALUE= PWR_MAINREGULATOR_ON: Main regulator ON.
 279:Drivers/STM32F1xx_HAL_Driver/Src/stm32f1xx_hal_pwr.c ****           (++) PWR_REGULATOR_VALUE= PWR_LOWPOWERREGULATOR_ON: Low Power regulator ON.
 280:Drivers/STM32F1xx_HAL_Driver/Src/stm32f1xx_hal_pwr.c ****           (++) PWR_SLEEPENTRY_WFx= PWR_SLEEPENTRY_WFI: enter STOP mode with WFI instruction
 281:Drivers/STM32F1xx_HAL_Driver/Src/stm32f1xx_hal_pwr.c ****           (++) PWR_SLEEPENTRY_WFx= PWR_SLEEPENTRY_WFE: enter STOP mode with WFE instruction
 282:Drivers/STM32F1xx_HAL_Driver/Src/stm32f1xx_hal_pwr.c ****       (+) Exit:
 283:Drivers/STM32F1xx_HAL_Driver/Src/stm32f1xx_hal_pwr.c ****           (++) WFI entry mode, Any EXTI Line (Internal or External) configured in Interrupt mode wi
 284:Drivers/STM32F1xx_HAL_Driver/Src/stm32f1xx_hal_pwr.c ****           (++) WFE entry mode, Any EXTI Line (Internal or External) configured in Event mode.
 285:Drivers/STM32F1xx_HAL_Driver/Src/stm32f1xx_hal_pwr.c **** 
 286:Drivers/STM32F1xx_HAL_Driver/Src/stm32f1xx_hal_pwr.c ****    *** Standby mode ***
 287:Drivers/STM32F1xx_HAL_Driver/Src/stm32f1xx_hal_pwr.c ****    ====================
 288:Drivers/STM32F1xx_HAL_Driver/Src/stm32f1xx_hal_pwr.c ****      [..]
 289:Drivers/STM32F1xx_HAL_Driver/Src/stm32f1xx_hal_pwr.c ****       The Standby mode allows to achieve the lowest power consumption. It is based on the
 290:Drivers/STM32F1xx_HAL_Driver/Src/stm32f1xx_hal_pwr.c ****       Cortex-M3 deepsleep mode, with the voltage regulator disabled. The 1.8 V domain is 
 291:Drivers/STM32F1xx_HAL_Driver/Src/stm32f1xx_hal_pwr.c ****       consequently powered off. The PLL, the HSI oscillator and the HSE oscillator are also 
 292:Drivers/STM32F1xx_HAL_Driver/Src/stm32f1xx_hal_pwr.c ****       switched off. SRAM and register contents are lost except for registers in the Backup domain 
 293:Drivers/STM32F1xx_HAL_Driver/Src/stm32f1xx_hal_pwr.c ****       and Standby circuitry
 294:Drivers/STM32F1xx_HAL_Driver/Src/stm32f1xx_hal_pwr.c ****       
 295:Drivers/STM32F1xx_HAL_Driver/Src/stm32f1xx_hal_pwr.c ****       (+) Entry:
 296:Drivers/STM32F1xx_HAL_Driver/Src/stm32f1xx_hal_pwr.c ****         (++) The Standby mode is entered using the HAL_PWR_EnterSTANDBYMode() function.
 297:Drivers/STM32F1xx_HAL_Driver/Src/stm32f1xx_hal_pwr.c ****       (+) Exit:
 298:Drivers/STM32F1xx_HAL_Driver/Src/stm32f1xx_hal_pwr.c ****         (++) WKUP pin rising edge, RTC alarm event rising edge, external Reset in 
 299:Drivers/STM32F1xx_HAL_Driver/Src/stm32f1xx_hal_pwr.c ****              NRSTpin, IWDG Reset
 300:Drivers/STM32F1xx_HAL_Driver/Src/stm32f1xx_hal_pwr.c **** 
 301:Drivers/STM32F1xx_HAL_Driver/Src/stm32f1xx_hal_pwr.c ****    *** Auto-wakeup (AWU) from low-power mode ***
 302:Drivers/STM32F1xx_HAL_Driver/Src/stm32f1xx_hal_pwr.c ****        =============================================
 303:Drivers/STM32F1xx_HAL_Driver/Src/stm32f1xx_hal_pwr.c ****        [..]
 304:Drivers/STM32F1xx_HAL_Driver/Src/stm32f1xx_hal_pwr.c ****         
 305:Drivers/STM32F1xx_HAL_Driver/Src/stm32f1xx_hal_pwr.c ****        (+) The MCU can be woken up from low-power mode by an RTC Alarm event, 
 306:Drivers/STM32F1xx_HAL_Driver/Src/stm32f1xx_hal_pwr.c ****            without depending on an external interrupt (Auto-wakeup mode).
 307:Drivers/STM32F1xx_HAL_Driver/Src/stm32f1xx_hal_pwr.c ****    
 308:Drivers/STM32F1xx_HAL_Driver/Src/stm32f1xx_hal_pwr.c ****        (+) RTC auto-wakeup (AWU) from the Stop and Standby modes
 309:Drivers/STM32F1xx_HAL_Driver/Src/stm32f1xx_hal_pwr.c **** 
 310:Drivers/STM32F1xx_HAL_Driver/Src/stm32f1xx_hal_pwr.c ****            (++) To wake up from the Stop mode with an RTC alarm event, it is necessary to 
 311:Drivers/STM32F1xx_HAL_Driver/Src/stm32f1xx_hal_pwr.c ****                 configure the RTC to generate the RTC alarm using the HAL_RTC_SetAlarm_IT() functio
 312:Drivers/STM32F1xx_HAL_Driver/Src/stm32f1xx_hal_pwr.c **** 
 313:Drivers/STM32F1xx_HAL_Driver/Src/stm32f1xx_hal_pwr.c ****    *** PWR Workarounds linked to Silicon Limitation ***
 314:Drivers/STM32F1xx_HAL_Driver/Src/stm32f1xx_hal_pwr.c ****        ====================================================
 315:Drivers/STM32F1xx_HAL_Driver/Src/stm32f1xx_hal_pwr.c ****        [..]
 316:Drivers/STM32F1xx_HAL_Driver/Src/stm32f1xx_hal_pwr.c ****        Below the list of all silicon limitations known on STM32F1xx prouct.
 317:Drivers/STM32F1xx_HAL_Driver/Src/stm32f1xx_hal_pwr.c **** 
 318:Drivers/STM32F1xx_HAL_Driver/Src/stm32f1xx_hal_pwr.c ****        (#)Workarounds Implemented inside PWR HAL Driver
 319:Drivers/STM32F1xx_HAL_Driver/Src/stm32f1xx_hal_pwr.c ****           (##)Debugging Stop mode with WFE entry - overloaded the WFE by an internal function    
 320:Drivers/STM32F1xx_HAL_Driver/Src/stm32f1xx_hal_pwr.c ****         
 321:Drivers/STM32F1xx_HAL_Driver/Src/stm32f1xx_hal_pwr.c **** @endverbatim
ARM GAS  /var/folders/2w/5wbrmvx534s_vk8svtxz852c0000gn/T//ccwiuAqP.s 			page 9


 322:Drivers/STM32F1xx_HAL_Driver/Src/stm32f1xx_hal_pwr.c ****   * @{
 323:Drivers/STM32F1xx_HAL_Driver/Src/stm32f1xx_hal_pwr.c ****   */
 324:Drivers/STM32F1xx_HAL_Driver/Src/stm32f1xx_hal_pwr.c **** 
 325:Drivers/STM32F1xx_HAL_Driver/Src/stm32f1xx_hal_pwr.c **** /**
 326:Drivers/STM32F1xx_HAL_Driver/Src/stm32f1xx_hal_pwr.c ****   * @brief  Configures the voltage threshold detected by the Power Voltage Detector(PVD).
 327:Drivers/STM32F1xx_HAL_Driver/Src/stm32f1xx_hal_pwr.c ****   * @param  sConfigPVD: pointer to an PWR_PVDTypeDef structure that contains the configuration
 328:Drivers/STM32F1xx_HAL_Driver/Src/stm32f1xx_hal_pwr.c ****   *         information for the PVD.
 329:Drivers/STM32F1xx_HAL_Driver/Src/stm32f1xx_hal_pwr.c ****   * @note   Refer to the electrical characteristics of your device datasheet for
 330:Drivers/STM32F1xx_HAL_Driver/Src/stm32f1xx_hal_pwr.c ****   *         more details about the voltage threshold corresponding to each
 331:Drivers/STM32F1xx_HAL_Driver/Src/stm32f1xx_hal_pwr.c ****   *         detection level.
 332:Drivers/STM32F1xx_HAL_Driver/Src/stm32f1xx_hal_pwr.c ****   * @retval None
 333:Drivers/STM32F1xx_HAL_Driver/Src/stm32f1xx_hal_pwr.c ****   */
 334:Drivers/STM32F1xx_HAL_Driver/Src/stm32f1xx_hal_pwr.c **** void HAL_PWR_ConfigPVD(PWR_PVDTypeDef *sConfigPVD)
 335:Drivers/STM32F1xx_HAL_Driver/Src/stm32f1xx_hal_pwr.c **** {
 145              		.loc 1 335 1 is_stmt 1 view -0
 146              		.cfi_startproc
 147              		@ args = 0, pretend = 0, frame = 0
 148              		@ frame_needed = 0, uses_anonymous_args = 0
 149              		@ link register save eliminated.
 336:Drivers/STM32F1xx_HAL_Driver/Src/stm32f1xx_hal_pwr.c ****   /* Check the parameters */
 337:Drivers/STM32F1xx_HAL_Driver/Src/stm32f1xx_hal_pwr.c ****   assert_param(IS_PWR_PVD_LEVEL(sConfigPVD->PVDLevel));
 150              		.loc 1 337 3 view .LVU17
 338:Drivers/STM32F1xx_HAL_Driver/Src/stm32f1xx_hal_pwr.c ****   assert_param(IS_PWR_PVD_MODE(sConfigPVD->Mode));
 151              		.loc 1 338 3 view .LVU18
 339:Drivers/STM32F1xx_HAL_Driver/Src/stm32f1xx_hal_pwr.c **** 
 340:Drivers/STM32F1xx_HAL_Driver/Src/stm32f1xx_hal_pwr.c ****   /* Set PLS[7:5] bits according to PVDLevel value */
 341:Drivers/STM32F1xx_HAL_Driver/Src/stm32f1xx_hal_pwr.c ****   MODIFY_REG(PWR->CR, PWR_CR_PLS, sConfigPVD->PVDLevel);
 152              		.loc 1 341 3 view .LVU19
 153 0000 1E4A     		ldr	r2, .L16
 154 0002 1368     		ldr	r3, [r2]
 155 0004 23F0E003 		bic	r3, r3, #224
 156 0008 0168     		ldr	r1, [r0]
 157 000a 0B43     		orrs	r3, r3, r1
 158 000c 1360     		str	r3, [r2]
 342:Drivers/STM32F1xx_HAL_Driver/Src/stm32f1xx_hal_pwr.c ****   
 343:Drivers/STM32F1xx_HAL_Driver/Src/stm32f1xx_hal_pwr.c ****   /* Clear any previous config. Keep it clear if no event or IT mode is selected */
 344:Drivers/STM32F1xx_HAL_Driver/Src/stm32f1xx_hal_pwr.c ****   __HAL_PWR_PVD_EXTI_DISABLE_EVENT();
 159              		.loc 1 344 3 view .LVU20
 160 000e 1C4B     		ldr	r3, .L16+4
 161 0010 5A68     		ldr	r2, [r3, #4]
 162 0012 22F48032 		bic	r2, r2, #65536
 163 0016 5A60     		str	r2, [r3, #4]
 345:Drivers/STM32F1xx_HAL_Driver/Src/stm32f1xx_hal_pwr.c ****   __HAL_PWR_PVD_EXTI_DISABLE_IT();
 164              		.loc 1 345 3 view .LVU21
 165 0018 1A68     		ldr	r2, [r3]
 166 001a 22F48032 		bic	r2, r2, #65536
 167 001e 1A60     		str	r2, [r3]
 346:Drivers/STM32F1xx_HAL_Driver/Src/stm32f1xx_hal_pwr.c ****   __HAL_PWR_PVD_EXTI_DISABLE_FALLING_EDGE(); 
 168              		.loc 1 346 3 view .LVU22
 169 0020 DA68     		ldr	r2, [r3, #12]
 170 0022 22F48032 		bic	r2, r2, #65536
 171 0026 DA60     		str	r2, [r3, #12]
 347:Drivers/STM32F1xx_HAL_Driver/Src/stm32f1xx_hal_pwr.c ****   __HAL_PWR_PVD_EXTI_DISABLE_RISING_EDGE();
 172              		.loc 1 347 3 view .LVU23
 173 0028 9A68     		ldr	r2, [r3, #8]
 174 002a 22F48032 		bic	r2, r2, #65536
 175 002e 9A60     		str	r2, [r3, #8]
ARM GAS  /var/folders/2w/5wbrmvx534s_vk8svtxz852c0000gn/T//ccwiuAqP.s 			page 10


 348:Drivers/STM32F1xx_HAL_Driver/Src/stm32f1xx_hal_pwr.c **** 
 349:Drivers/STM32F1xx_HAL_Driver/Src/stm32f1xx_hal_pwr.c ****   /* Configure interrupt mode */
 350:Drivers/STM32F1xx_HAL_Driver/Src/stm32f1xx_hal_pwr.c ****   if((sConfigPVD->Mode & PVD_MODE_IT) == PVD_MODE_IT)
 176              		.loc 1 350 3 view .LVU24
 177              		.loc 1 350 17 is_stmt 0 view .LVU25
 178 0030 4368     		ldr	r3, [r0, #4]
 179              		.loc 1 350 5 view .LVU26
 180 0032 13F4803F 		tst	r3, #65536
 181 0036 04D0     		beq	.L12
 351:Drivers/STM32F1xx_HAL_Driver/Src/stm32f1xx_hal_pwr.c ****   {
 352:Drivers/STM32F1xx_HAL_Driver/Src/stm32f1xx_hal_pwr.c ****     __HAL_PWR_PVD_EXTI_ENABLE_IT();
 182              		.loc 1 352 5 is_stmt 1 view .LVU27
 183 0038 114A     		ldr	r2, .L16+4
 184 003a 1368     		ldr	r3, [r2]
 185 003c 43F48033 		orr	r3, r3, #65536
 186 0040 1360     		str	r3, [r2]
 187              	.L12:
 353:Drivers/STM32F1xx_HAL_Driver/Src/stm32f1xx_hal_pwr.c ****   }
 354:Drivers/STM32F1xx_HAL_Driver/Src/stm32f1xx_hal_pwr.c ****   
 355:Drivers/STM32F1xx_HAL_Driver/Src/stm32f1xx_hal_pwr.c ****   /* Configure event mode */
 356:Drivers/STM32F1xx_HAL_Driver/Src/stm32f1xx_hal_pwr.c ****   if((sConfigPVD->Mode & PVD_MODE_EVT) == PVD_MODE_EVT)
 188              		.loc 1 356 3 view .LVU28
 189              		.loc 1 356 17 is_stmt 0 view .LVU29
 190 0042 4368     		ldr	r3, [r0, #4]
 191              		.loc 1 356 5 view .LVU30
 192 0044 13F4003F 		tst	r3, #131072
 193 0048 04D0     		beq	.L13
 357:Drivers/STM32F1xx_HAL_Driver/Src/stm32f1xx_hal_pwr.c ****   {
 358:Drivers/STM32F1xx_HAL_Driver/Src/stm32f1xx_hal_pwr.c ****     __HAL_PWR_PVD_EXTI_ENABLE_EVENT();
 194              		.loc 1 358 5 is_stmt 1 view .LVU31
 195 004a 0D4A     		ldr	r2, .L16+4
 196 004c 5368     		ldr	r3, [r2, #4]
 197 004e 43F48033 		orr	r3, r3, #65536
 198 0052 5360     		str	r3, [r2, #4]
 199              	.L13:
 359:Drivers/STM32F1xx_HAL_Driver/Src/stm32f1xx_hal_pwr.c ****   }
 360:Drivers/STM32F1xx_HAL_Driver/Src/stm32f1xx_hal_pwr.c ****   
 361:Drivers/STM32F1xx_HAL_Driver/Src/stm32f1xx_hal_pwr.c ****   /* Configure the edge */
 362:Drivers/STM32F1xx_HAL_Driver/Src/stm32f1xx_hal_pwr.c ****   if((sConfigPVD->Mode & PVD_RISING_EDGE) == PVD_RISING_EDGE)
 200              		.loc 1 362 3 view .LVU32
 201              		.loc 1 362 17 is_stmt 0 view .LVU33
 202 0054 4368     		ldr	r3, [r0, #4]
 203              		.loc 1 362 5 view .LVU34
 204 0056 13F0010F 		tst	r3, #1
 205 005a 04D0     		beq	.L14
 363:Drivers/STM32F1xx_HAL_Driver/Src/stm32f1xx_hal_pwr.c ****   {
 364:Drivers/STM32F1xx_HAL_Driver/Src/stm32f1xx_hal_pwr.c ****     __HAL_PWR_PVD_EXTI_ENABLE_RISING_EDGE();
 206              		.loc 1 364 5 is_stmt 1 view .LVU35
 207 005c 084A     		ldr	r2, .L16+4
 208 005e 9368     		ldr	r3, [r2, #8]
 209 0060 43F48033 		orr	r3, r3, #65536
 210 0064 9360     		str	r3, [r2, #8]
 211              	.L14:
 365:Drivers/STM32F1xx_HAL_Driver/Src/stm32f1xx_hal_pwr.c ****   }
 366:Drivers/STM32F1xx_HAL_Driver/Src/stm32f1xx_hal_pwr.c ****   
 367:Drivers/STM32F1xx_HAL_Driver/Src/stm32f1xx_hal_pwr.c ****   if((sConfigPVD->Mode & PVD_FALLING_EDGE) == PVD_FALLING_EDGE)
 212              		.loc 1 367 3 view .LVU36
ARM GAS  /var/folders/2w/5wbrmvx534s_vk8svtxz852c0000gn/T//ccwiuAqP.s 			page 11


 213              		.loc 1 367 17 is_stmt 0 view .LVU37
 214 0066 4368     		ldr	r3, [r0, #4]
 215              		.loc 1 367 5 view .LVU38
 216 0068 13F0020F 		tst	r3, #2
 217 006c 04D0     		beq	.L11
 368:Drivers/STM32F1xx_HAL_Driver/Src/stm32f1xx_hal_pwr.c ****   {
 369:Drivers/STM32F1xx_HAL_Driver/Src/stm32f1xx_hal_pwr.c ****     __HAL_PWR_PVD_EXTI_ENABLE_FALLING_EDGE();
 218              		.loc 1 369 5 is_stmt 1 view .LVU39
 219 006e 044A     		ldr	r2, .L16+4
 220 0070 D368     		ldr	r3, [r2, #12]
 221 0072 43F48033 		orr	r3, r3, #65536
 222 0076 D360     		str	r3, [r2, #12]
 223              	.L11:
 370:Drivers/STM32F1xx_HAL_Driver/Src/stm32f1xx_hal_pwr.c ****   }
 371:Drivers/STM32F1xx_HAL_Driver/Src/stm32f1xx_hal_pwr.c **** }
 224              		.loc 1 371 1 is_stmt 0 view .LVU40
 225 0078 7047     		bx	lr
 226              	.L17:
 227 007a 00BF     		.align	2
 228              	.L16:
 229 007c 00700040 		.word	1073770496
 230 0080 00040140 		.word	1073808384
 231              		.cfi_endproc
 232              	.LFE70:
 234              		.section	.text.HAL_PWR_EnablePVD,"ax",%progbits
 235              		.align	1
 236              		.global	HAL_PWR_EnablePVD
 237              		.syntax unified
 238              		.thumb
 239              		.thumb_func
 241              	HAL_PWR_EnablePVD:
 242              	.LFB71:
 372:Drivers/STM32F1xx_HAL_Driver/Src/stm32f1xx_hal_pwr.c **** 
 373:Drivers/STM32F1xx_HAL_Driver/Src/stm32f1xx_hal_pwr.c **** /**
 374:Drivers/STM32F1xx_HAL_Driver/Src/stm32f1xx_hal_pwr.c ****   * @brief  Enables the Power Voltage Detector(PVD).
 375:Drivers/STM32F1xx_HAL_Driver/Src/stm32f1xx_hal_pwr.c ****   * @retval None
 376:Drivers/STM32F1xx_HAL_Driver/Src/stm32f1xx_hal_pwr.c ****   */
 377:Drivers/STM32F1xx_HAL_Driver/Src/stm32f1xx_hal_pwr.c **** void HAL_PWR_EnablePVD(void)
 378:Drivers/STM32F1xx_HAL_Driver/Src/stm32f1xx_hal_pwr.c **** {
 243              		.loc 1 378 1 is_stmt 1 view -0
 244              		.cfi_startproc
 245              		@ args = 0, pretend = 0, frame = 0
 246              		@ frame_needed = 0, uses_anonymous_args = 0
 247              		@ link register save eliminated.
 379:Drivers/STM32F1xx_HAL_Driver/Src/stm32f1xx_hal_pwr.c ****   /* Enable the power voltage detector */
 380:Drivers/STM32F1xx_HAL_Driver/Src/stm32f1xx_hal_pwr.c ****   *(__IO uint32_t *) CR_PVDE_BB = (uint32_t)ENABLE;
 248              		.loc 1 380 3 view .LVU42
 249              		.loc 1 380 33 is_stmt 0 view .LVU43
 250 0000 014B     		ldr	r3, .L19
 251 0002 0122     		movs	r2, #1
 252 0004 1A61     		str	r2, [r3, #16]
 381:Drivers/STM32F1xx_HAL_Driver/Src/stm32f1xx_hal_pwr.c **** }
 253              		.loc 1 381 1 view .LVU44
 254 0006 7047     		bx	lr
 255              	.L20:
 256              		.align	2
 257              	.L19:
ARM GAS  /var/folders/2w/5wbrmvx534s_vk8svtxz852c0000gn/T//ccwiuAqP.s 			page 12


 258 0008 00000E42 		.word	1108213760
 259              		.cfi_endproc
 260              	.LFE71:
 262              		.section	.text.HAL_PWR_DisablePVD,"ax",%progbits
 263              		.align	1
 264              		.global	HAL_PWR_DisablePVD
 265              		.syntax unified
 266              		.thumb
 267              		.thumb_func
 269              	HAL_PWR_DisablePVD:
 270              	.LFB72:
 382:Drivers/STM32F1xx_HAL_Driver/Src/stm32f1xx_hal_pwr.c **** 
 383:Drivers/STM32F1xx_HAL_Driver/Src/stm32f1xx_hal_pwr.c **** /**
 384:Drivers/STM32F1xx_HAL_Driver/Src/stm32f1xx_hal_pwr.c ****   * @brief  Disables the Power Voltage Detector(PVD).
 385:Drivers/STM32F1xx_HAL_Driver/Src/stm32f1xx_hal_pwr.c ****   * @retval None
 386:Drivers/STM32F1xx_HAL_Driver/Src/stm32f1xx_hal_pwr.c ****   */
 387:Drivers/STM32F1xx_HAL_Driver/Src/stm32f1xx_hal_pwr.c **** void HAL_PWR_DisablePVD(void)
 388:Drivers/STM32F1xx_HAL_Driver/Src/stm32f1xx_hal_pwr.c **** {
 271              		.loc 1 388 1 is_stmt 1 view -0
 272              		.cfi_startproc
 273              		@ args = 0, pretend = 0, frame = 0
 274              		@ frame_needed = 0, uses_anonymous_args = 0
 275              		@ link register save eliminated.
 389:Drivers/STM32F1xx_HAL_Driver/Src/stm32f1xx_hal_pwr.c ****   /* Disable the power voltage detector */
 390:Drivers/STM32F1xx_HAL_Driver/Src/stm32f1xx_hal_pwr.c ****   *(__IO uint32_t *) CR_PVDE_BB = (uint32_t)DISABLE;
 276              		.loc 1 390 3 view .LVU46
 277              		.loc 1 390 33 is_stmt 0 view .LVU47
 278 0000 014B     		ldr	r3, .L22
 279 0002 0022     		movs	r2, #0
 280 0004 1A61     		str	r2, [r3, #16]
 391:Drivers/STM32F1xx_HAL_Driver/Src/stm32f1xx_hal_pwr.c **** }
 281              		.loc 1 391 1 view .LVU48
 282 0006 7047     		bx	lr
 283              	.L23:
 284              		.align	2
 285              	.L22:
 286 0008 00000E42 		.word	1108213760
 287              		.cfi_endproc
 288              	.LFE72:
 290              		.section	.text.HAL_PWR_EnableWakeUpPin,"ax",%progbits
 291              		.align	1
 292              		.global	HAL_PWR_EnableWakeUpPin
 293              		.syntax unified
 294              		.thumb
 295              		.thumb_func
 297              	HAL_PWR_EnableWakeUpPin:
 298              	.LVL1:
 299              	.LFB73:
 392:Drivers/STM32F1xx_HAL_Driver/Src/stm32f1xx_hal_pwr.c **** 
 393:Drivers/STM32F1xx_HAL_Driver/Src/stm32f1xx_hal_pwr.c **** /**
 394:Drivers/STM32F1xx_HAL_Driver/Src/stm32f1xx_hal_pwr.c ****   * @brief Enables the WakeUp PINx functionality.
 395:Drivers/STM32F1xx_HAL_Driver/Src/stm32f1xx_hal_pwr.c ****   * @param WakeUpPinx: Specifies the Power Wake-Up pin to enable.
 396:Drivers/STM32F1xx_HAL_Driver/Src/stm32f1xx_hal_pwr.c ****   *        This parameter can be one of the following values:
 397:Drivers/STM32F1xx_HAL_Driver/Src/stm32f1xx_hal_pwr.c ****   *           @arg PWR_WAKEUP_PIN1
 398:Drivers/STM32F1xx_HAL_Driver/Src/stm32f1xx_hal_pwr.c ****   * @retval None
 399:Drivers/STM32F1xx_HAL_Driver/Src/stm32f1xx_hal_pwr.c ****   */
 400:Drivers/STM32F1xx_HAL_Driver/Src/stm32f1xx_hal_pwr.c **** void HAL_PWR_EnableWakeUpPin(uint32_t WakeUpPinx)
ARM GAS  /var/folders/2w/5wbrmvx534s_vk8svtxz852c0000gn/T//ccwiuAqP.s 			page 13


 401:Drivers/STM32F1xx_HAL_Driver/Src/stm32f1xx_hal_pwr.c **** {
 300              		.loc 1 401 1 is_stmt 1 view -0
 301              		.cfi_startproc
 302              		@ args = 0, pretend = 0, frame = 0
 303              		@ frame_needed = 0, uses_anonymous_args = 0
 304              		@ link register save eliminated.
 402:Drivers/STM32F1xx_HAL_Driver/Src/stm32f1xx_hal_pwr.c ****   /* Check the parameter */
 403:Drivers/STM32F1xx_HAL_Driver/Src/stm32f1xx_hal_pwr.c ****   assert_param(IS_PWR_WAKEUP_PIN(WakeUpPinx));
 305              		.loc 1 403 3 view .LVU50
 404:Drivers/STM32F1xx_HAL_Driver/Src/stm32f1xx_hal_pwr.c ****   /* Enable the EWUPx pin */
 405:Drivers/STM32F1xx_HAL_Driver/Src/stm32f1xx_hal_pwr.c ****   *(__IO uint32_t *) CSR_EWUP_BB(WakeUpPinx) = (uint32_t)ENABLE;
 306              		.loc 1 405 3 view .LVU51
 307              	.LBB20:
 308              	.LBI20:
 309              		.file 2 "Drivers/CMSIS/Include/cmsis_gcc.h"
   1:Drivers/CMSIS/Include/cmsis_gcc.h **** /**************************************************************************//**
   2:Drivers/CMSIS/Include/cmsis_gcc.h ****  * @file     cmsis_gcc.h
   3:Drivers/CMSIS/Include/cmsis_gcc.h ****  * @brief    CMSIS Cortex-M Core Function/Instruction Header File
   4:Drivers/CMSIS/Include/cmsis_gcc.h ****  * @version  V4.30
   5:Drivers/CMSIS/Include/cmsis_gcc.h ****  * @date     20. October 2015
   6:Drivers/CMSIS/Include/cmsis_gcc.h ****  ******************************************************************************/
   7:Drivers/CMSIS/Include/cmsis_gcc.h **** /* Copyright (c) 2009 - 2015 ARM LIMITED
   8:Drivers/CMSIS/Include/cmsis_gcc.h **** 
   9:Drivers/CMSIS/Include/cmsis_gcc.h ****    All rights reserved.
  10:Drivers/CMSIS/Include/cmsis_gcc.h ****    Redistribution and use in source and binary forms, with or without
  11:Drivers/CMSIS/Include/cmsis_gcc.h ****    modification, are permitted provided that the following conditions are met:
  12:Drivers/CMSIS/Include/cmsis_gcc.h ****    - Redistributions of source code must retain the above copyright
  13:Drivers/CMSIS/Include/cmsis_gcc.h ****      notice, this list of conditions and the following disclaimer.
  14:Drivers/CMSIS/Include/cmsis_gcc.h ****    - Redistributions in binary form must reproduce the above copyright
  15:Drivers/CMSIS/Include/cmsis_gcc.h ****      notice, this list of conditions and the following disclaimer in the
  16:Drivers/CMSIS/Include/cmsis_gcc.h ****      documentation and/or other materials provided with the distribution.
  17:Drivers/CMSIS/Include/cmsis_gcc.h ****    - Neither the name of ARM nor the names of its contributors may be used
  18:Drivers/CMSIS/Include/cmsis_gcc.h ****      to endorse or promote products derived from this software without
  19:Drivers/CMSIS/Include/cmsis_gcc.h ****      specific prior written permission.
  20:Drivers/CMSIS/Include/cmsis_gcc.h ****    *
  21:Drivers/CMSIS/Include/cmsis_gcc.h ****    THIS SOFTWARE IS PROVIDED BY THE COPYRIGHT HOLDERS AND CONTRIBUTORS "AS IS"
  22:Drivers/CMSIS/Include/cmsis_gcc.h ****    AND ANY EXPRESS OR IMPLIED WARRANTIES, INCLUDING, BUT NOT LIMITED TO, THE
  23:Drivers/CMSIS/Include/cmsis_gcc.h ****    IMPLIED WARRANTIES OF MERCHANTABILITY AND FITNESS FOR A PARTICULAR PURPOSE
  24:Drivers/CMSIS/Include/cmsis_gcc.h ****    ARE DISCLAIMED. IN NO EVENT SHALL COPYRIGHT HOLDERS AND CONTRIBUTORS BE
  25:Drivers/CMSIS/Include/cmsis_gcc.h ****    LIABLE FOR ANY DIRECT, INDIRECT, INCIDENTAL, SPECIAL, EXEMPLARY, OR
  26:Drivers/CMSIS/Include/cmsis_gcc.h ****    CONSEQUENTIAL DAMAGES (INCLUDING, BUT NOT LIMITED TO, PROCUREMENT OF
  27:Drivers/CMSIS/Include/cmsis_gcc.h ****    SUBSTITUTE GOODS OR SERVICES; LOSS OF USE, DATA, OR PROFITS; OR BUSINESS
  28:Drivers/CMSIS/Include/cmsis_gcc.h ****    INTERRUPTION) HOWEVER CAUSED AND ON ANY THEORY OF LIABILITY, WHETHER IN
  29:Drivers/CMSIS/Include/cmsis_gcc.h ****    CONTRACT, STRICT LIABILITY, OR TORT (INCLUDING NEGLIGENCE OR OTHERWISE)
  30:Drivers/CMSIS/Include/cmsis_gcc.h ****    ARISING IN ANY WAY OUT OF THE USE OF THIS SOFTWARE, EVEN IF ADVISED OF THE
  31:Drivers/CMSIS/Include/cmsis_gcc.h ****    POSSIBILITY OF SUCH DAMAGE.
  32:Drivers/CMSIS/Include/cmsis_gcc.h ****    ---------------------------------------------------------------------------*/
  33:Drivers/CMSIS/Include/cmsis_gcc.h **** 
  34:Drivers/CMSIS/Include/cmsis_gcc.h **** 
  35:Drivers/CMSIS/Include/cmsis_gcc.h **** #ifndef __CMSIS_GCC_H
  36:Drivers/CMSIS/Include/cmsis_gcc.h **** #define __CMSIS_GCC_H
  37:Drivers/CMSIS/Include/cmsis_gcc.h **** 
  38:Drivers/CMSIS/Include/cmsis_gcc.h **** /* ignore some GCC warnings */
  39:Drivers/CMSIS/Include/cmsis_gcc.h **** #if defined ( __GNUC__ )
  40:Drivers/CMSIS/Include/cmsis_gcc.h **** #pragma GCC diagnostic push
  41:Drivers/CMSIS/Include/cmsis_gcc.h **** #pragma GCC diagnostic ignored "-Wsign-conversion"
  42:Drivers/CMSIS/Include/cmsis_gcc.h **** #pragma GCC diagnostic ignored "-Wconversion"
ARM GAS  /var/folders/2w/5wbrmvx534s_vk8svtxz852c0000gn/T//ccwiuAqP.s 			page 14


  43:Drivers/CMSIS/Include/cmsis_gcc.h **** #pragma GCC diagnostic ignored "-Wunused-parameter"
  44:Drivers/CMSIS/Include/cmsis_gcc.h **** #endif
  45:Drivers/CMSIS/Include/cmsis_gcc.h **** 
  46:Drivers/CMSIS/Include/cmsis_gcc.h **** 
  47:Drivers/CMSIS/Include/cmsis_gcc.h **** /* ###########################  Core Function Access  ########################### */
  48:Drivers/CMSIS/Include/cmsis_gcc.h **** /** \ingroup  CMSIS_Core_FunctionInterface
  49:Drivers/CMSIS/Include/cmsis_gcc.h ****     \defgroup CMSIS_Core_RegAccFunctions CMSIS Core Register Access Functions
  50:Drivers/CMSIS/Include/cmsis_gcc.h ****   @{
  51:Drivers/CMSIS/Include/cmsis_gcc.h ****  */
  52:Drivers/CMSIS/Include/cmsis_gcc.h **** 
  53:Drivers/CMSIS/Include/cmsis_gcc.h **** /**
  54:Drivers/CMSIS/Include/cmsis_gcc.h ****   \brief   Enable IRQ Interrupts
  55:Drivers/CMSIS/Include/cmsis_gcc.h ****   \details Enables IRQ interrupts by clearing the I-bit in the CPSR.
  56:Drivers/CMSIS/Include/cmsis_gcc.h ****            Can only be executed in Privileged modes.
  57:Drivers/CMSIS/Include/cmsis_gcc.h ****  */
  58:Drivers/CMSIS/Include/cmsis_gcc.h **** __attribute__( ( always_inline ) ) __STATIC_INLINE void __enable_irq(void)
  59:Drivers/CMSIS/Include/cmsis_gcc.h **** {
  60:Drivers/CMSIS/Include/cmsis_gcc.h ****   __ASM volatile ("cpsie i" : : : "memory");
  61:Drivers/CMSIS/Include/cmsis_gcc.h **** }
  62:Drivers/CMSIS/Include/cmsis_gcc.h **** 
  63:Drivers/CMSIS/Include/cmsis_gcc.h **** 
  64:Drivers/CMSIS/Include/cmsis_gcc.h **** /**
  65:Drivers/CMSIS/Include/cmsis_gcc.h ****   \brief   Disable IRQ Interrupts
  66:Drivers/CMSIS/Include/cmsis_gcc.h ****   \details Disables IRQ interrupts by setting the I-bit in the CPSR.
  67:Drivers/CMSIS/Include/cmsis_gcc.h ****   Can only be executed in Privileged modes.
  68:Drivers/CMSIS/Include/cmsis_gcc.h ****  */
  69:Drivers/CMSIS/Include/cmsis_gcc.h **** __attribute__( ( always_inline ) ) __STATIC_INLINE void __disable_irq(void)
  70:Drivers/CMSIS/Include/cmsis_gcc.h **** {
  71:Drivers/CMSIS/Include/cmsis_gcc.h ****   __ASM volatile ("cpsid i" : : : "memory");
  72:Drivers/CMSIS/Include/cmsis_gcc.h **** }
  73:Drivers/CMSIS/Include/cmsis_gcc.h **** 
  74:Drivers/CMSIS/Include/cmsis_gcc.h **** 
  75:Drivers/CMSIS/Include/cmsis_gcc.h **** /**
  76:Drivers/CMSIS/Include/cmsis_gcc.h ****   \brief   Get Control Register
  77:Drivers/CMSIS/Include/cmsis_gcc.h ****   \details Returns the content of the Control Register.
  78:Drivers/CMSIS/Include/cmsis_gcc.h ****   \return               Control Register value
  79:Drivers/CMSIS/Include/cmsis_gcc.h ****  */
  80:Drivers/CMSIS/Include/cmsis_gcc.h **** __attribute__( ( always_inline ) ) __STATIC_INLINE uint32_t __get_CONTROL(void)
  81:Drivers/CMSIS/Include/cmsis_gcc.h **** {
  82:Drivers/CMSIS/Include/cmsis_gcc.h ****   uint32_t result;
  83:Drivers/CMSIS/Include/cmsis_gcc.h **** 
  84:Drivers/CMSIS/Include/cmsis_gcc.h ****   __ASM volatile ("MRS %0, control" : "=r" (result) );
  85:Drivers/CMSIS/Include/cmsis_gcc.h ****   return(result);
  86:Drivers/CMSIS/Include/cmsis_gcc.h **** }
  87:Drivers/CMSIS/Include/cmsis_gcc.h **** 
  88:Drivers/CMSIS/Include/cmsis_gcc.h **** 
  89:Drivers/CMSIS/Include/cmsis_gcc.h **** /**
  90:Drivers/CMSIS/Include/cmsis_gcc.h ****   \brief   Set Control Register
  91:Drivers/CMSIS/Include/cmsis_gcc.h ****   \details Writes the given value to the Control Register.
  92:Drivers/CMSIS/Include/cmsis_gcc.h ****   \param [in]    control  Control Register value to set
  93:Drivers/CMSIS/Include/cmsis_gcc.h ****  */
  94:Drivers/CMSIS/Include/cmsis_gcc.h **** __attribute__( ( always_inline ) ) __STATIC_INLINE void __set_CONTROL(uint32_t control)
  95:Drivers/CMSIS/Include/cmsis_gcc.h **** {
  96:Drivers/CMSIS/Include/cmsis_gcc.h ****   __ASM volatile ("MSR control, %0" : : "r" (control) : "memory");
  97:Drivers/CMSIS/Include/cmsis_gcc.h **** }
  98:Drivers/CMSIS/Include/cmsis_gcc.h **** 
  99:Drivers/CMSIS/Include/cmsis_gcc.h **** 
ARM GAS  /var/folders/2w/5wbrmvx534s_vk8svtxz852c0000gn/T//ccwiuAqP.s 			page 15


 100:Drivers/CMSIS/Include/cmsis_gcc.h **** /**
 101:Drivers/CMSIS/Include/cmsis_gcc.h ****   \brief   Get IPSR Register
 102:Drivers/CMSIS/Include/cmsis_gcc.h ****   \details Returns the content of the IPSR Register.
 103:Drivers/CMSIS/Include/cmsis_gcc.h ****   \return               IPSR Register value
 104:Drivers/CMSIS/Include/cmsis_gcc.h ****  */
 105:Drivers/CMSIS/Include/cmsis_gcc.h **** __attribute__( ( always_inline ) ) __STATIC_INLINE uint32_t __get_IPSR(void)
 106:Drivers/CMSIS/Include/cmsis_gcc.h **** {
 107:Drivers/CMSIS/Include/cmsis_gcc.h ****   uint32_t result;
 108:Drivers/CMSIS/Include/cmsis_gcc.h **** 
 109:Drivers/CMSIS/Include/cmsis_gcc.h ****   __ASM volatile ("MRS %0, ipsr" : "=r" (result) );
 110:Drivers/CMSIS/Include/cmsis_gcc.h ****   return(result);
 111:Drivers/CMSIS/Include/cmsis_gcc.h **** }
 112:Drivers/CMSIS/Include/cmsis_gcc.h **** 
 113:Drivers/CMSIS/Include/cmsis_gcc.h **** 
 114:Drivers/CMSIS/Include/cmsis_gcc.h **** /**
 115:Drivers/CMSIS/Include/cmsis_gcc.h ****   \brief   Get APSR Register
 116:Drivers/CMSIS/Include/cmsis_gcc.h ****   \details Returns the content of the APSR Register.
 117:Drivers/CMSIS/Include/cmsis_gcc.h ****   \return               APSR Register value
 118:Drivers/CMSIS/Include/cmsis_gcc.h ****  */
 119:Drivers/CMSIS/Include/cmsis_gcc.h **** __attribute__( ( always_inline ) ) __STATIC_INLINE uint32_t __get_APSR(void)
 120:Drivers/CMSIS/Include/cmsis_gcc.h **** {
 121:Drivers/CMSIS/Include/cmsis_gcc.h ****   uint32_t result;
 122:Drivers/CMSIS/Include/cmsis_gcc.h **** 
 123:Drivers/CMSIS/Include/cmsis_gcc.h ****   __ASM volatile ("MRS %0, apsr" : "=r" (result) );
 124:Drivers/CMSIS/Include/cmsis_gcc.h ****   return(result);
 125:Drivers/CMSIS/Include/cmsis_gcc.h **** }
 126:Drivers/CMSIS/Include/cmsis_gcc.h **** 
 127:Drivers/CMSIS/Include/cmsis_gcc.h **** 
 128:Drivers/CMSIS/Include/cmsis_gcc.h **** /**
 129:Drivers/CMSIS/Include/cmsis_gcc.h ****   \brief   Get xPSR Register
 130:Drivers/CMSIS/Include/cmsis_gcc.h ****   \details Returns the content of the xPSR Register.
 131:Drivers/CMSIS/Include/cmsis_gcc.h **** 
 132:Drivers/CMSIS/Include/cmsis_gcc.h ****     \return               xPSR Register value
 133:Drivers/CMSIS/Include/cmsis_gcc.h ****  */
 134:Drivers/CMSIS/Include/cmsis_gcc.h **** __attribute__( ( always_inline ) ) __STATIC_INLINE uint32_t __get_xPSR(void)
 135:Drivers/CMSIS/Include/cmsis_gcc.h **** {
 136:Drivers/CMSIS/Include/cmsis_gcc.h ****   uint32_t result;
 137:Drivers/CMSIS/Include/cmsis_gcc.h **** 
 138:Drivers/CMSIS/Include/cmsis_gcc.h ****   __ASM volatile ("MRS %0, xpsr" : "=r" (result) );
 139:Drivers/CMSIS/Include/cmsis_gcc.h ****   return(result);
 140:Drivers/CMSIS/Include/cmsis_gcc.h **** }
 141:Drivers/CMSIS/Include/cmsis_gcc.h **** 
 142:Drivers/CMSIS/Include/cmsis_gcc.h **** 
 143:Drivers/CMSIS/Include/cmsis_gcc.h **** /**
 144:Drivers/CMSIS/Include/cmsis_gcc.h ****   \brief   Get Process Stack Pointer
 145:Drivers/CMSIS/Include/cmsis_gcc.h ****   \details Returns the current value of the Process Stack Pointer (PSP).
 146:Drivers/CMSIS/Include/cmsis_gcc.h ****   \return               PSP Register value
 147:Drivers/CMSIS/Include/cmsis_gcc.h ****  */
 148:Drivers/CMSIS/Include/cmsis_gcc.h **** __attribute__( ( always_inline ) ) __STATIC_INLINE uint32_t __get_PSP(void)
 149:Drivers/CMSIS/Include/cmsis_gcc.h **** {
 150:Drivers/CMSIS/Include/cmsis_gcc.h ****   register uint32_t result;
 151:Drivers/CMSIS/Include/cmsis_gcc.h **** 
 152:Drivers/CMSIS/Include/cmsis_gcc.h ****   __ASM volatile ("MRS %0, psp\n"  : "=r" (result) );
 153:Drivers/CMSIS/Include/cmsis_gcc.h ****   return(result);
 154:Drivers/CMSIS/Include/cmsis_gcc.h **** }
 155:Drivers/CMSIS/Include/cmsis_gcc.h **** 
 156:Drivers/CMSIS/Include/cmsis_gcc.h **** 
ARM GAS  /var/folders/2w/5wbrmvx534s_vk8svtxz852c0000gn/T//ccwiuAqP.s 			page 16


 157:Drivers/CMSIS/Include/cmsis_gcc.h **** /**
 158:Drivers/CMSIS/Include/cmsis_gcc.h ****   \brief   Set Process Stack Pointer
 159:Drivers/CMSIS/Include/cmsis_gcc.h ****   \details Assigns the given value to the Process Stack Pointer (PSP).
 160:Drivers/CMSIS/Include/cmsis_gcc.h ****   \param [in]    topOfProcStack  Process Stack Pointer value to set
 161:Drivers/CMSIS/Include/cmsis_gcc.h ****  */
 162:Drivers/CMSIS/Include/cmsis_gcc.h **** __attribute__( ( always_inline ) ) __STATIC_INLINE void __set_PSP(uint32_t topOfProcStack)
 163:Drivers/CMSIS/Include/cmsis_gcc.h **** {
 164:Drivers/CMSIS/Include/cmsis_gcc.h ****   __ASM volatile ("MSR psp, %0\n" : : "r" (topOfProcStack) : "sp");
 165:Drivers/CMSIS/Include/cmsis_gcc.h **** }
 166:Drivers/CMSIS/Include/cmsis_gcc.h **** 
 167:Drivers/CMSIS/Include/cmsis_gcc.h **** 
 168:Drivers/CMSIS/Include/cmsis_gcc.h **** /**
 169:Drivers/CMSIS/Include/cmsis_gcc.h ****   \brief   Get Main Stack Pointer
 170:Drivers/CMSIS/Include/cmsis_gcc.h ****   \details Returns the current value of the Main Stack Pointer (MSP).
 171:Drivers/CMSIS/Include/cmsis_gcc.h ****   \return               MSP Register value
 172:Drivers/CMSIS/Include/cmsis_gcc.h ****  */
 173:Drivers/CMSIS/Include/cmsis_gcc.h **** __attribute__( ( always_inline ) ) __STATIC_INLINE uint32_t __get_MSP(void)
 174:Drivers/CMSIS/Include/cmsis_gcc.h **** {
 175:Drivers/CMSIS/Include/cmsis_gcc.h ****   register uint32_t result;
 176:Drivers/CMSIS/Include/cmsis_gcc.h **** 
 177:Drivers/CMSIS/Include/cmsis_gcc.h ****   __ASM volatile ("MRS %0, msp\n" : "=r" (result) );
 178:Drivers/CMSIS/Include/cmsis_gcc.h ****   return(result);
 179:Drivers/CMSIS/Include/cmsis_gcc.h **** }
 180:Drivers/CMSIS/Include/cmsis_gcc.h **** 
 181:Drivers/CMSIS/Include/cmsis_gcc.h **** 
 182:Drivers/CMSIS/Include/cmsis_gcc.h **** /**
 183:Drivers/CMSIS/Include/cmsis_gcc.h ****   \brief   Set Main Stack Pointer
 184:Drivers/CMSIS/Include/cmsis_gcc.h ****   \details Assigns the given value to the Main Stack Pointer (MSP).
 185:Drivers/CMSIS/Include/cmsis_gcc.h **** 
 186:Drivers/CMSIS/Include/cmsis_gcc.h ****     \param [in]    topOfMainStack  Main Stack Pointer value to set
 187:Drivers/CMSIS/Include/cmsis_gcc.h ****  */
 188:Drivers/CMSIS/Include/cmsis_gcc.h **** __attribute__( ( always_inline ) ) __STATIC_INLINE void __set_MSP(uint32_t topOfMainStack)
 189:Drivers/CMSIS/Include/cmsis_gcc.h **** {
 190:Drivers/CMSIS/Include/cmsis_gcc.h ****   __ASM volatile ("MSR msp, %0\n" : : "r" (topOfMainStack) : "sp");
 191:Drivers/CMSIS/Include/cmsis_gcc.h **** }
 192:Drivers/CMSIS/Include/cmsis_gcc.h **** 
 193:Drivers/CMSIS/Include/cmsis_gcc.h **** 
 194:Drivers/CMSIS/Include/cmsis_gcc.h **** /**
 195:Drivers/CMSIS/Include/cmsis_gcc.h ****   \brief   Get Priority Mask
 196:Drivers/CMSIS/Include/cmsis_gcc.h ****   \details Returns the current state of the priority mask bit from the Priority Mask Register.
 197:Drivers/CMSIS/Include/cmsis_gcc.h ****   \return               Priority Mask value
 198:Drivers/CMSIS/Include/cmsis_gcc.h ****  */
 199:Drivers/CMSIS/Include/cmsis_gcc.h **** __attribute__( ( always_inline ) ) __STATIC_INLINE uint32_t __get_PRIMASK(void)
 200:Drivers/CMSIS/Include/cmsis_gcc.h **** {
 201:Drivers/CMSIS/Include/cmsis_gcc.h ****   uint32_t result;
 202:Drivers/CMSIS/Include/cmsis_gcc.h **** 
 203:Drivers/CMSIS/Include/cmsis_gcc.h ****   __ASM volatile ("MRS %0, primask" : "=r" (result) );
 204:Drivers/CMSIS/Include/cmsis_gcc.h ****   return(result);
 205:Drivers/CMSIS/Include/cmsis_gcc.h **** }
 206:Drivers/CMSIS/Include/cmsis_gcc.h **** 
 207:Drivers/CMSIS/Include/cmsis_gcc.h **** 
 208:Drivers/CMSIS/Include/cmsis_gcc.h **** /**
 209:Drivers/CMSIS/Include/cmsis_gcc.h ****   \brief   Set Priority Mask
 210:Drivers/CMSIS/Include/cmsis_gcc.h ****   \details Assigns the given value to the Priority Mask Register.
 211:Drivers/CMSIS/Include/cmsis_gcc.h ****   \param [in]    priMask  Priority Mask
 212:Drivers/CMSIS/Include/cmsis_gcc.h ****  */
 213:Drivers/CMSIS/Include/cmsis_gcc.h **** __attribute__( ( always_inline ) ) __STATIC_INLINE void __set_PRIMASK(uint32_t priMask)
ARM GAS  /var/folders/2w/5wbrmvx534s_vk8svtxz852c0000gn/T//ccwiuAqP.s 			page 17


 214:Drivers/CMSIS/Include/cmsis_gcc.h **** {
 215:Drivers/CMSIS/Include/cmsis_gcc.h ****   __ASM volatile ("MSR primask, %0" : : "r" (priMask) : "memory");
 216:Drivers/CMSIS/Include/cmsis_gcc.h **** }
 217:Drivers/CMSIS/Include/cmsis_gcc.h **** 
 218:Drivers/CMSIS/Include/cmsis_gcc.h **** 
 219:Drivers/CMSIS/Include/cmsis_gcc.h **** #if       (__CORTEX_M >= 0x03U)
 220:Drivers/CMSIS/Include/cmsis_gcc.h **** 
 221:Drivers/CMSIS/Include/cmsis_gcc.h **** /**
 222:Drivers/CMSIS/Include/cmsis_gcc.h ****   \brief   Enable FIQ
 223:Drivers/CMSIS/Include/cmsis_gcc.h ****   \details Enables FIQ interrupts by clearing the F-bit in the CPSR.
 224:Drivers/CMSIS/Include/cmsis_gcc.h ****            Can only be executed in Privileged modes.
 225:Drivers/CMSIS/Include/cmsis_gcc.h ****  */
 226:Drivers/CMSIS/Include/cmsis_gcc.h **** __attribute__( ( always_inline ) ) __STATIC_INLINE void __enable_fault_irq(void)
 227:Drivers/CMSIS/Include/cmsis_gcc.h **** {
 228:Drivers/CMSIS/Include/cmsis_gcc.h ****   __ASM volatile ("cpsie f" : : : "memory");
 229:Drivers/CMSIS/Include/cmsis_gcc.h **** }
 230:Drivers/CMSIS/Include/cmsis_gcc.h **** 
 231:Drivers/CMSIS/Include/cmsis_gcc.h **** 
 232:Drivers/CMSIS/Include/cmsis_gcc.h **** /**
 233:Drivers/CMSIS/Include/cmsis_gcc.h ****   \brief   Disable FIQ
 234:Drivers/CMSIS/Include/cmsis_gcc.h ****   \details Disables FIQ interrupts by setting the F-bit in the CPSR.
 235:Drivers/CMSIS/Include/cmsis_gcc.h ****            Can only be executed in Privileged modes.
 236:Drivers/CMSIS/Include/cmsis_gcc.h ****  */
 237:Drivers/CMSIS/Include/cmsis_gcc.h **** __attribute__( ( always_inline ) ) __STATIC_INLINE void __disable_fault_irq(void)
 238:Drivers/CMSIS/Include/cmsis_gcc.h **** {
 239:Drivers/CMSIS/Include/cmsis_gcc.h ****   __ASM volatile ("cpsid f" : : : "memory");
 240:Drivers/CMSIS/Include/cmsis_gcc.h **** }
 241:Drivers/CMSIS/Include/cmsis_gcc.h **** 
 242:Drivers/CMSIS/Include/cmsis_gcc.h **** 
 243:Drivers/CMSIS/Include/cmsis_gcc.h **** /**
 244:Drivers/CMSIS/Include/cmsis_gcc.h ****   \brief   Get Base Priority
 245:Drivers/CMSIS/Include/cmsis_gcc.h ****   \details Returns the current value of the Base Priority register.
 246:Drivers/CMSIS/Include/cmsis_gcc.h ****   \return               Base Priority register value
 247:Drivers/CMSIS/Include/cmsis_gcc.h ****  */
 248:Drivers/CMSIS/Include/cmsis_gcc.h **** __attribute__( ( always_inline ) ) __STATIC_INLINE uint32_t __get_BASEPRI(void)
 249:Drivers/CMSIS/Include/cmsis_gcc.h **** {
 250:Drivers/CMSIS/Include/cmsis_gcc.h ****   uint32_t result;
 251:Drivers/CMSIS/Include/cmsis_gcc.h **** 
 252:Drivers/CMSIS/Include/cmsis_gcc.h ****   __ASM volatile ("MRS %0, basepri" : "=r" (result) );
 253:Drivers/CMSIS/Include/cmsis_gcc.h ****   return(result);
 254:Drivers/CMSIS/Include/cmsis_gcc.h **** }
 255:Drivers/CMSIS/Include/cmsis_gcc.h **** 
 256:Drivers/CMSIS/Include/cmsis_gcc.h **** 
 257:Drivers/CMSIS/Include/cmsis_gcc.h **** /**
 258:Drivers/CMSIS/Include/cmsis_gcc.h ****   \brief   Set Base Priority
 259:Drivers/CMSIS/Include/cmsis_gcc.h ****   \details Assigns the given value to the Base Priority register.
 260:Drivers/CMSIS/Include/cmsis_gcc.h ****   \param [in]    basePri  Base Priority value to set
 261:Drivers/CMSIS/Include/cmsis_gcc.h ****  */
 262:Drivers/CMSIS/Include/cmsis_gcc.h **** __attribute__( ( always_inline ) ) __STATIC_INLINE void __set_BASEPRI(uint32_t value)
 263:Drivers/CMSIS/Include/cmsis_gcc.h **** {
 264:Drivers/CMSIS/Include/cmsis_gcc.h ****   __ASM volatile ("MSR basepri, %0" : : "r" (value) : "memory");
 265:Drivers/CMSIS/Include/cmsis_gcc.h **** }
 266:Drivers/CMSIS/Include/cmsis_gcc.h **** 
 267:Drivers/CMSIS/Include/cmsis_gcc.h **** 
 268:Drivers/CMSIS/Include/cmsis_gcc.h **** /**
 269:Drivers/CMSIS/Include/cmsis_gcc.h ****   \brief   Set Base Priority with condition
 270:Drivers/CMSIS/Include/cmsis_gcc.h ****   \details Assigns the given value to the Base Priority register only if BASEPRI masking is disable
ARM GAS  /var/folders/2w/5wbrmvx534s_vk8svtxz852c0000gn/T//ccwiuAqP.s 			page 18


 271:Drivers/CMSIS/Include/cmsis_gcc.h ****            or the new value increases the BASEPRI priority level.
 272:Drivers/CMSIS/Include/cmsis_gcc.h ****   \param [in]    basePri  Base Priority value to set
 273:Drivers/CMSIS/Include/cmsis_gcc.h ****  */
 274:Drivers/CMSIS/Include/cmsis_gcc.h **** __attribute__( ( always_inline ) ) __STATIC_INLINE void __set_BASEPRI_MAX(uint32_t value)
 275:Drivers/CMSIS/Include/cmsis_gcc.h **** {
 276:Drivers/CMSIS/Include/cmsis_gcc.h ****   __ASM volatile ("MSR basepri_max, %0" : : "r" (value) : "memory");
 277:Drivers/CMSIS/Include/cmsis_gcc.h **** }
 278:Drivers/CMSIS/Include/cmsis_gcc.h **** 
 279:Drivers/CMSIS/Include/cmsis_gcc.h **** 
 280:Drivers/CMSIS/Include/cmsis_gcc.h **** /**
 281:Drivers/CMSIS/Include/cmsis_gcc.h ****   \brief   Get Fault Mask
 282:Drivers/CMSIS/Include/cmsis_gcc.h ****   \details Returns the current value of the Fault Mask register.
 283:Drivers/CMSIS/Include/cmsis_gcc.h ****   \return               Fault Mask register value
 284:Drivers/CMSIS/Include/cmsis_gcc.h ****  */
 285:Drivers/CMSIS/Include/cmsis_gcc.h **** __attribute__( ( always_inline ) ) __STATIC_INLINE uint32_t __get_FAULTMASK(void)
 286:Drivers/CMSIS/Include/cmsis_gcc.h **** {
 287:Drivers/CMSIS/Include/cmsis_gcc.h ****   uint32_t result;
 288:Drivers/CMSIS/Include/cmsis_gcc.h **** 
 289:Drivers/CMSIS/Include/cmsis_gcc.h ****   __ASM volatile ("MRS %0, faultmask" : "=r" (result) );
 290:Drivers/CMSIS/Include/cmsis_gcc.h ****   return(result);
 291:Drivers/CMSIS/Include/cmsis_gcc.h **** }
 292:Drivers/CMSIS/Include/cmsis_gcc.h **** 
 293:Drivers/CMSIS/Include/cmsis_gcc.h **** 
 294:Drivers/CMSIS/Include/cmsis_gcc.h **** /**
 295:Drivers/CMSIS/Include/cmsis_gcc.h ****   \brief   Set Fault Mask
 296:Drivers/CMSIS/Include/cmsis_gcc.h ****   \details Assigns the given value to the Fault Mask register.
 297:Drivers/CMSIS/Include/cmsis_gcc.h ****   \param [in]    faultMask  Fault Mask value to set
 298:Drivers/CMSIS/Include/cmsis_gcc.h ****  */
 299:Drivers/CMSIS/Include/cmsis_gcc.h **** __attribute__( ( always_inline ) ) __STATIC_INLINE void __set_FAULTMASK(uint32_t faultMask)
 300:Drivers/CMSIS/Include/cmsis_gcc.h **** {
 301:Drivers/CMSIS/Include/cmsis_gcc.h ****   __ASM volatile ("MSR faultmask, %0" : : "r" (faultMask) : "memory");
 302:Drivers/CMSIS/Include/cmsis_gcc.h **** }
 303:Drivers/CMSIS/Include/cmsis_gcc.h **** 
 304:Drivers/CMSIS/Include/cmsis_gcc.h **** #endif /* (__CORTEX_M >= 0x03U) */
 305:Drivers/CMSIS/Include/cmsis_gcc.h **** 
 306:Drivers/CMSIS/Include/cmsis_gcc.h **** 
 307:Drivers/CMSIS/Include/cmsis_gcc.h **** #if       (__CORTEX_M == 0x04U) || (__CORTEX_M == 0x07U)
 308:Drivers/CMSIS/Include/cmsis_gcc.h **** 
 309:Drivers/CMSIS/Include/cmsis_gcc.h **** /**
 310:Drivers/CMSIS/Include/cmsis_gcc.h ****   \brief   Get FPSCR
 311:Drivers/CMSIS/Include/cmsis_gcc.h ****   \details Returns the current value of the Floating Point Status/Control register.
 312:Drivers/CMSIS/Include/cmsis_gcc.h ****   \return               Floating Point Status/Control register value
 313:Drivers/CMSIS/Include/cmsis_gcc.h ****  */
 314:Drivers/CMSIS/Include/cmsis_gcc.h **** __attribute__( ( always_inline ) ) __STATIC_INLINE uint32_t __get_FPSCR(void)
 315:Drivers/CMSIS/Include/cmsis_gcc.h **** {
 316:Drivers/CMSIS/Include/cmsis_gcc.h **** #if (__FPU_PRESENT == 1U) && (__FPU_USED == 1U)
 317:Drivers/CMSIS/Include/cmsis_gcc.h ****   uint32_t result;
 318:Drivers/CMSIS/Include/cmsis_gcc.h **** 
 319:Drivers/CMSIS/Include/cmsis_gcc.h ****   /* Empty asm statement works as a scheduling barrier */
 320:Drivers/CMSIS/Include/cmsis_gcc.h ****   __ASM volatile ("");
 321:Drivers/CMSIS/Include/cmsis_gcc.h ****   __ASM volatile ("VMRS %0, fpscr" : "=r" (result) );
 322:Drivers/CMSIS/Include/cmsis_gcc.h ****   __ASM volatile ("");
 323:Drivers/CMSIS/Include/cmsis_gcc.h ****   return(result);
 324:Drivers/CMSIS/Include/cmsis_gcc.h **** #else
 325:Drivers/CMSIS/Include/cmsis_gcc.h ****    return(0);
 326:Drivers/CMSIS/Include/cmsis_gcc.h **** #endif
 327:Drivers/CMSIS/Include/cmsis_gcc.h **** }
ARM GAS  /var/folders/2w/5wbrmvx534s_vk8svtxz852c0000gn/T//ccwiuAqP.s 			page 19


 328:Drivers/CMSIS/Include/cmsis_gcc.h **** 
 329:Drivers/CMSIS/Include/cmsis_gcc.h **** 
 330:Drivers/CMSIS/Include/cmsis_gcc.h **** /**
 331:Drivers/CMSIS/Include/cmsis_gcc.h ****   \brief   Set FPSCR
 332:Drivers/CMSIS/Include/cmsis_gcc.h ****   \details Assigns the given value to the Floating Point Status/Control register.
 333:Drivers/CMSIS/Include/cmsis_gcc.h ****   \param [in]    fpscr  Floating Point Status/Control value to set
 334:Drivers/CMSIS/Include/cmsis_gcc.h ****  */
 335:Drivers/CMSIS/Include/cmsis_gcc.h **** __attribute__( ( always_inline ) ) __STATIC_INLINE void __set_FPSCR(uint32_t fpscr)
 336:Drivers/CMSIS/Include/cmsis_gcc.h **** {
 337:Drivers/CMSIS/Include/cmsis_gcc.h **** #if (__FPU_PRESENT == 1U) && (__FPU_USED == 1U)
 338:Drivers/CMSIS/Include/cmsis_gcc.h ****   /* Empty asm statement works as a scheduling barrier */
 339:Drivers/CMSIS/Include/cmsis_gcc.h ****   __ASM volatile ("");
 340:Drivers/CMSIS/Include/cmsis_gcc.h ****   __ASM volatile ("VMSR fpscr, %0" : : "r" (fpscr) : "vfpcc");
 341:Drivers/CMSIS/Include/cmsis_gcc.h ****   __ASM volatile ("");
 342:Drivers/CMSIS/Include/cmsis_gcc.h **** #endif
 343:Drivers/CMSIS/Include/cmsis_gcc.h **** }
 344:Drivers/CMSIS/Include/cmsis_gcc.h **** 
 345:Drivers/CMSIS/Include/cmsis_gcc.h **** #endif /* (__CORTEX_M == 0x04U) || (__CORTEX_M == 0x07U) */
 346:Drivers/CMSIS/Include/cmsis_gcc.h **** 
 347:Drivers/CMSIS/Include/cmsis_gcc.h **** 
 348:Drivers/CMSIS/Include/cmsis_gcc.h **** 
 349:Drivers/CMSIS/Include/cmsis_gcc.h **** /*@} end of CMSIS_Core_RegAccFunctions */
 350:Drivers/CMSIS/Include/cmsis_gcc.h **** 
 351:Drivers/CMSIS/Include/cmsis_gcc.h **** 
 352:Drivers/CMSIS/Include/cmsis_gcc.h **** /* ##########################  Core Instruction Access  ######################### */
 353:Drivers/CMSIS/Include/cmsis_gcc.h **** /** \defgroup CMSIS_Core_InstructionInterface CMSIS Core Instruction Interface
 354:Drivers/CMSIS/Include/cmsis_gcc.h ****   Access to dedicated instructions
 355:Drivers/CMSIS/Include/cmsis_gcc.h ****   @{
 356:Drivers/CMSIS/Include/cmsis_gcc.h **** */
 357:Drivers/CMSIS/Include/cmsis_gcc.h **** 
 358:Drivers/CMSIS/Include/cmsis_gcc.h **** /* Define macros for porting to both thumb1 and thumb2.
 359:Drivers/CMSIS/Include/cmsis_gcc.h ****  * For thumb1, use low register (r0-r7), specified by constraint "l"
 360:Drivers/CMSIS/Include/cmsis_gcc.h ****  * Otherwise, use general registers, specified by constraint "r" */
 361:Drivers/CMSIS/Include/cmsis_gcc.h **** #if defined (__thumb__) && !defined (__thumb2__)
 362:Drivers/CMSIS/Include/cmsis_gcc.h **** #define __CMSIS_GCC_OUT_REG(r) "=l" (r)
 363:Drivers/CMSIS/Include/cmsis_gcc.h **** #define __CMSIS_GCC_USE_REG(r) "l" (r)
 364:Drivers/CMSIS/Include/cmsis_gcc.h **** #else
 365:Drivers/CMSIS/Include/cmsis_gcc.h **** #define __CMSIS_GCC_OUT_REG(r) "=r" (r)
 366:Drivers/CMSIS/Include/cmsis_gcc.h **** #define __CMSIS_GCC_USE_REG(r) "r" (r)
 367:Drivers/CMSIS/Include/cmsis_gcc.h **** #endif
 368:Drivers/CMSIS/Include/cmsis_gcc.h **** 
 369:Drivers/CMSIS/Include/cmsis_gcc.h **** /**
 370:Drivers/CMSIS/Include/cmsis_gcc.h ****   \brief   No Operation
 371:Drivers/CMSIS/Include/cmsis_gcc.h ****   \details No Operation does nothing. This instruction can be used for code alignment purposes.
 372:Drivers/CMSIS/Include/cmsis_gcc.h ****  */
 373:Drivers/CMSIS/Include/cmsis_gcc.h **** __attribute__((always_inline)) __STATIC_INLINE void __NOP(void)
 374:Drivers/CMSIS/Include/cmsis_gcc.h **** {
 375:Drivers/CMSIS/Include/cmsis_gcc.h ****   __ASM volatile ("nop");
 376:Drivers/CMSIS/Include/cmsis_gcc.h **** }
 377:Drivers/CMSIS/Include/cmsis_gcc.h **** 
 378:Drivers/CMSIS/Include/cmsis_gcc.h **** 
 379:Drivers/CMSIS/Include/cmsis_gcc.h **** /**
 380:Drivers/CMSIS/Include/cmsis_gcc.h ****   \brief   Wait For Interrupt
 381:Drivers/CMSIS/Include/cmsis_gcc.h ****   \details Wait For Interrupt is a hint instruction that suspends execution until one of a number o
 382:Drivers/CMSIS/Include/cmsis_gcc.h ****  */
 383:Drivers/CMSIS/Include/cmsis_gcc.h **** __attribute__((always_inline)) __STATIC_INLINE void __WFI(void)
 384:Drivers/CMSIS/Include/cmsis_gcc.h **** {
ARM GAS  /var/folders/2w/5wbrmvx534s_vk8svtxz852c0000gn/T//ccwiuAqP.s 			page 20


 385:Drivers/CMSIS/Include/cmsis_gcc.h ****   __ASM volatile ("wfi");
 386:Drivers/CMSIS/Include/cmsis_gcc.h **** }
 387:Drivers/CMSIS/Include/cmsis_gcc.h **** 
 388:Drivers/CMSIS/Include/cmsis_gcc.h **** 
 389:Drivers/CMSIS/Include/cmsis_gcc.h **** /**
 390:Drivers/CMSIS/Include/cmsis_gcc.h ****   \brief   Wait For Event
 391:Drivers/CMSIS/Include/cmsis_gcc.h ****   \details Wait For Event is a hint instruction that permits the processor to enter
 392:Drivers/CMSIS/Include/cmsis_gcc.h ****     a low-power state until one of a number of events occurs.
 393:Drivers/CMSIS/Include/cmsis_gcc.h ****  */
 394:Drivers/CMSIS/Include/cmsis_gcc.h **** __attribute__((always_inline)) __STATIC_INLINE void __WFE(void)
 395:Drivers/CMSIS/Include/cmsis_gcc.h **** {
 396:Drivers/CMSIS/Include/cmsis_gcc.h ****   __ASM volatile ("wfe");
 397:Drivers/CMSIS/Include/cmsis_gcc.h **** }
 398:Drivers/CMSIS/Include/cmsis_gcc.h **** 
 399:Drivers/CMSIS/Include/cmsis_gcc.h **** 
 400:Drivers/CMSIS/Include/cmsis_gcc.h **** /**
 401:Drivers/CMSIS/Include/cmsis_gcc.h ****   \brief   Send Event
 402:Drivers/CMSIS/Include/cmsis_gcc.h ****   \details Send Event is a hint instruction. It causes an event to be signaled to the CPU.
 403:Drivers/CMSIS/Include/cmsis_gcc.h ****  */
 404:Drivers/CMSIS/Include/cmsis_gcc.h **** __attribute__((always_inline)) __STATIC_INLINE void __SEV(void)
 405:Drivers/CMSIS/Include/cmsis_gcc.h **** {
 406:Drivers/CMSIS/Include/cmsis_gcc.h ****   __ASM volatile ("sev");
 407:Drivers/CMSIS/Include/cmsis_gcc.h **** }
 408:Drivers/CMSIS/Include/cmsis_gcc.h **** 
 409:Drivers/CMSIS/Include/cmsis_gcc.h **** 
 410:Drivers/CMSIS/Include/cmsis_gcc.h **** /**
 411:Drivers/CMSIS/Include/cmsis_gcc.h ****   \brief   Instruction Synchronization Barrier
 412:Drivers/CMSIS/Include/cmsis_gcc.h ****   \details Instruction Synchronization Barrier flushes the pipeline in the processor,
 413:Drivers/CMSIS/Include/cmsis_gcc.h ****            so that all instructions following the ISB are fetched from cache or memory,
 414:Drivers/CMSIS/Include/cmsis_gcc.h ****            after the instruction has been completed.
 415:Drivers/CMSIS/Include/cmsis_gcc.h ****  */
 416:Drivers/CMSIS/Include/cmsis_gcc.h **** __attribute__((always_inline)) __STATIC_INLINE void __ISB(void)
 417:Drivers/CMSIS/Include/cmsis_gcc.h **** {
 418:Drivers/CMSIS/Include/cmsis_gcc.h ****   __ASM volatile ("isb 0xF":::"memory");
 419:Drivers/CMSIS/Include/cmsis_gcc.h **** }
 420:Drivers/CMSIS/Include/cmsis_gcc.h **** 
 421:Drivers/CMSIS/Include/cmsis_gcc.h **** 
 422:Drivers/CMSIS/Include/cmsis_gcc.h **** /**
 423:Drivers/CMSIS/Include/cmsis_gcc.h ****   \brief   Data Synchronization Barrier
 424:Drivers/CMSIS/Include/cmsis_gcc.h ****   \details Acts as a special kind of Data Memory Barrier.
 425:Drivers/CMSIS/Include/cmsis_gcc.h ****            It completes when all explicit memory accesses before this instruction complete.
 426:Drivers/CMSIS/Include/cmsis_gcc.h ****  */
 427:Drivers/CMSIS/Include/cmsis_gcc.h **** __attribute__((always_inline)) __STATIC_INLINE void __DSB(void)
 428:Drivers/CMSIS/Include/cmsis_gcc.h **** {
 429:Drivers/CMSIS/Include/cmsis_gcc.h ****   __ASM volatile ("dsb 0xF":::"memory");
 430:Drivers/CMSIS/Include/cmsis_gcc.h **** }
 431:Drivers/CMSIS/Include/cmsis_gcc.h **** 
 432:Drivers/CMSIS/Include/cmsis_gcc.h **** 
 433:Drivers/CMSIS/Include/cmsis_gcc.h **** /**
 434:Drivers/CMSIS/Include/cmsis_gcc.h ****   \brief   Data Memory Barrier
 435:Drivers/CMSIS/Include/cmsis_gcc.h ****   \details Ensures the apparent order of the explicit memory operations before
 436:Drivers/CMSIS/Include/cmsis_gcc.h ****            and after the instruction, without ensuring their completion.
 437:Drivers/CMSIS/Include/cmsis_gcc.h ****  */
 438:Drivers/CMSIS/Include/cmsis_gcc.h **** __attribute__((always_inline)) __STATIC_INLINE void __DMB(void)
 439:Drivers/CMSIS/Include/cmsis_gcc.h **** {
 440:Drivers/CMSIS/Include/cmsis_gcc.h ****   __ASM volatile ("dmb 0xF":::"memory");
 441:Drivers/CMSIS/Include/cmsis_gcc.h **** }
ARM GAS  /var/folders/2w/5wbrmvx534s_vk8svtxz852c0000gn/T//ccwiuAqP.s 			page 21


 442:Drivers/CMSIS/Include/cmsis_gcc.h **** 
 443:Drivers/CMSIS/Include/cmsis_gcc.h **** 
 444:Drivers/CMSIS/Include/cmsis_gcc.h **** /**
 445:Drivers/CMSIS/Include/cmsis_gcc.h ****   \brief   Reverse byte order (32 bit)
 446:Drivers/CMSIS/Include/cmsis_gcc.h ****   \details Reverses the byte order in integer value.
 447:Drivers/CMSIS/Include/cmsis_gcc.h ****   \param [in]    value  Value to reverse
 448:Drivers/CMSIS/Include/cmsis_gcc.h ****   \return               Reversed value
 449:Drivers/CMSIS/Include/cmsis_gcc.h ****  */
 450:Drivers/CMSIS/Include/cmsis_gcc.h **** __attribute__((always_inline)) __STATIC_INLINE uint32_t __REV(uint32_t value)
 451:Drivers/CMSIS/Include/cmsis_gcc.h **** {
 452:Drivers/CMSIS/Include/cmsis_gcc.h **** #if (__GNUC__ > 4) || (__GNUC__ == 4 && __GNUC_MINOR__ >= 5)
 453:Drivers/CMSIS/Include/cmsis_gcc.h ****   return __builtin_bswap32(value);
 454:Drivers/CMSIS/Include/cmsis_gcc.h **** #else
 455:Drivers/CMSIS/Include/cmsis_gcc.h ****   uint32_t result;
 456:Drivers/CMSIS/Include/cmsis_gcc.h **** 
 457:Drivers/CMSIS/Include/cmsis_gcc.h ****   __ASM volatile ("rev %0, %1" : __CMSIS_GCC_OUT_REG (result) : __CMSIS_GCC_USE_REG (value) );
 458:Drivers/CMSIS/Include/cmsis_gcc.h ****   return(result);
 459:Drivers/CMSIS/Include/cmsis_gcc.h **** #endif
 460:Drivers/CMSIS/Include/cmsis_gcc.h **** }
 461:Drivers/CMSIS/Include/cmsis_gcc.h **** 
 462:Drivers/CMSIS/Include/cmsis_gcc.h **** 
 463:Drivers/CMSIS/Include/cmsis_gcc.h **** /**
 464:Drivers/CMSIS/Include/cmsis_gcc.h ****   \brief   Reverse byte order (16 bit)
 465:Drivers/CMSIS/Include/cmsis_gcc.h ****   \details Reverses the byte order in two unsigned short values.
 466:Drivers/CMSIS/Include/cmsis_gcc.h ****   \param [in]    value  Value to reverse
 467:Drivers/CMSIS/Include/cmsis_gcc.h ****   \return               Reversed value
 468:Drivers/CMSIS/Include/cmsis_gcc.h ****  */
 469:Drivers/CMSIS/Include/cmsis_gcc.h **** __attribute__((always_inline)) __STATIC_INLINE uint32_t __REV16(uint32_t value)
 470:Drivers/CMSIS/Include/cmsis_gcc.h **** {
 471:Drivers/CMSIS/Include/cmsis_gcc.h ****   uint32_t result;
 472:Drivers/CMSIS/Include/cmsis_gcc.h **** 
 473:Drivers/CMSIS/Include/cmsis_gcc.h ****   __ASM volatile ("rev16 %0, %1" : __CMSIS_GCC_OUT_REG (result) : __CMSIS_GCC_USE_REG (value) );
 474:Drivers/CMSIS/Include/cmsis_gcc.h ****   return(result);
 475:Drivers/CMSIS/Include/cmsis_gcc.h **** }
 476:Drivers/CMSIS/Include/cmsis_gcc.h **** 
 477:Drivers/CMSIS/Include/cmsis_gcc.h **** 
 478:Drivers/CMSIS/Include/cmsis_gcc.h **** /**
 479:Drivers/CMSIS/Include/cmsis_gcc.h ****   \brief   Reverse byte order in signed short value
 480:Drivers/CMSIS/Include/cmsis_gcc.h ****   \details Reverses the byte order in a signed short value with sign extension to integer.
 481:Drivers/CMSIS/Include/cmsis_gcc.h ****   \param [in]    value  Value to reverse
 482:Drivers/CMSIS/Include/cmsis_gcc.h ****   \return               Reversed value
 483:Drivers/CMSIS/Include/cmsis_gcc.h ****  */
 484:Drivers/CMSIS/Include/cmsis_gcc.h **** __attribute__((always_inline)) __STATIC_INLINE int32_t __REVSH(int32_t value)
 485:Drivers/CMSIS/Include/cmsis_gcc.h **** {
 486:Drivers/CMSIS/Include/cmsis_gcc.h **** #if (__GNUC__ > 4) || (__GNUC__ == 4 && __GNUC_MINOR__ >= 8)
 487:Drivers/CMSIS/Include/cmsis_gcc.h ****   return (short)__builtin_bswap16(value);
 488:Drivers/CMSIS/Include/cmsis_gcc.h **** #else
 489:Drivers/CMSIS/Include/cmsis_gcc.h ****   int32_t result;
 490:Drivers/CMSIS/Include/cmsis_gcc.h **** 
 491:Drivers/CMSIS/Include/cmsis_gcc.h ****   __ASM volatile ("revsh %0, %1" : __CMSIS_GCC_OUT_REG (result) : __CMSIS_GCC_USE_REG (value) );
 492:Drivers/CMSIS/Include/cmsis_gcc.h ****   return(result);
 493:Drivers/CMSIS/Include/cmsis_gcc.h **** #endif
 494:Drivers/CMSIS/Include/cmsis_gcc.h **** }
 495:Drivers/CMSIS/Include/cmsis_gcc.h **** 
 496:Drivers/CMSIS/Include/cmsis_gcc.h **** 
 497:Drivers/CMSIS/Include/cmsis_gcc.h **** /**
 498:Drivers/CMSIS/Include/cmsis_gcc.h ****   \brief   Rotate Right in unsigned value (32 bit)
ARM GAS  /var/folders/2w/5wbrmvx534s_vk8svtxz852c0000gn/T//ccwiuAqP.s 			page 22


 499:Drivers/CMSIS/Include/cmsis_gcc.h ****   \details Rotate Right (immediate) provides the value of the contents of a register rotated by a v
 500:Drivers/CMSIS/Include/cmsis_gcc.h ****   \param [in]    value  Value to rotate
 501:Drivers/CMSIS/Include/cmsis_gcc.h ****   \param [in]    value  Number of Bits to rotate
 502:Drivers/CMSIS/Include/cmsis_gcc.h ****   \return               Rotated value
 503:Drivers/CMSIS/Include/cmsis_gcc.h ****  */
 504:Drivers/CMSIS/Include/cmsis_gcc.h **** __attribute__((always_inline)) __STATIC_INLINE uint32_t __ROR(uint32_t op1, uint32_t op2)
 505:Drivers/CMSIS/Include/cmsis_gcc.h **** {
 506:Drivers/CMSIS/Include/cmsis_gcc.h ****   return (op1 >> op2) | (op1 << (32U - op2));
 507:Drivers/CMSIS/Include/cmsis_gcc.h **** }
 508:Drivers/CMSIS/Include/cmsis_gcc.h **** 
 509:Drivers/CMSIS/Include/cmsis_gcc.h **** 
 510:Drivers/CMSIS/Include/cmsis_gcc.h **** /**
 511:Drivers/CMSIS/Include/cmsis_gcc.h ****   \brief   Breakpoint
 512:Drivers/CMSIS/Include/cmsis_gcc.h ****   \details Causes the processor to enter Debug state.
 513:Drivers/CMSIS/Include/cmsis_gcc.h ****            Debug tools can use this to investigate system state when the instruction at a particula
 514:Drivers/CMSIS/Include/cmsis_gcc.h ****   \param [in]    value  is ignored by the processor.
 515:Drivers/CMSIS/Include/cmsis_gcc.h ****                  If required, a debugger can use it to store additional information about the break
 516:Drivers/CMSIS/Include/cmsis_gcc.h ****  */
 517:Drivers/CMSIS/Include/cmsis_gcc.h **** #define __BKPT(value)                       __ASM volatile ("bkpt "#value)
 518:Drivers/CMSIS/Include/cmsis_gcc.h **** 
 519:Drivers/CMSIS/Include/cmsis_gcc.h **** 
 520:Drivers/CMSIS/Include/cmsis_gcc.h **** /**
 521:Drivers/CMSIS/Include/cmsis_gcc.h ****   \brief   Reverse bit order of value
 522:Drivers/CMSIS/Include/cmsis_gcc.h ****   \details Reverses the bit order of the given value.
 523:Drivers/CMSIS/Include/cmsis_gcc.h ****   \param [in]    value  Value to reverse
 524:Drivers/CMSIS/Include/cmsis_gcc.h ****   \return               Reversed value
 525:Drivers/CMSIS/Include/cmsis_gcc.h ****  */
 526:Drivers/CMSIS/Include/cmsis_gcc.h **** __attribute__((always_inline)) __STATIC_INLINE uint32_t __RBIT(uint32_t value)
 310              		.loc 2 526 57 view .LVU52
 311              	.LBB21:
 527:Drivers/CMSIS/Include/cmsis_gcc.h **** {
 528:Drivers/CMSIS/Include/cmsis_gcc.h ****   uint32_t result;
 312              		.loc 2 528 3 view .LVU53
 529:Drivers/CMSIS/Include/cmsis_gcc.h **** 
 530:Drivers/CMSIS/Include/cmsis_gcc.h **** #if       (__CORTEX_M >= 0x03U) || (__CORTEX_SC >= 300U)
 531:Drivers/CMSIS/Include/cmsis_gcc.h ****    __ASM volatile ("rbit %0, %1" : "=r" (result) : "r" (value) );
 313              		.loc 2 531 4 view .LVU54
 314              		.syntax unified
 315              	@ 531 "Drivers/CMSIS/Include/cmsis_gcc.h" 1
 316 0000 90FAA0F0 		rbit r0, r0
 317              	@ 0 "" 2
 318              	.LVL2:
 532:Drivers/CMSIS/Include/cmsis_gcc.h **** #else
 533:Drivers/CMSIS/Include/cmsis_gcc.h ****   int32_t s = 4 /*sizeof(v)*/ * 8 - 1; /* extra shift needed at end */
 534:Drivers/CMSIS/Include/cmsis_gcc.h **** 
 535:Drivers/CMSIS/Include/cmsis_gcc.h ****   result = value;                      /* r will be reversed bits of v; first get LSB of v */
 536:Drivers/CMSIS/Include/cmsis_gcc.h ****   for (value >>= 1U; value; value >>= 1U)
 537:Drivers/CMSIS/Include/cmsis_gcc.h ****   {
 538:Drivers/CMSIS/Include/cmsis_gcc.h ****     result <<= 1U;
 539:Drivers/CMSIS/Include/cmsis_gcc.h ****     result |= value & 1U;
 540:Drivers/CMSIS/Include/cmsis_gcc.h ****     s--;
 541:Drivers/CMSIS/Include/cmsis_gcc.h ****   }
 542:Drivers/CMSIS/Include/cmsis_gcc.h ****   result <<= s;                        /* shift when v's highest bits are zero */
 543:Drivers/CMSIS/Include/cmsis_gcc.h **** #endif
 544:Drivers/CMSIS/Include/cmsis_gcc.h ****   return(result);
 319              		.loc 2 544 3 view .LVU55
 320              		.loc 2 544 3 is_stmt 0 view .LVU56
ARM GAS  /var/folders/2w/5wbrmvx534s_vk8svtxz852c0000gn/T//ccwiuAqP.s 			page 23


 321              		.thumb
 322              		.syntax unified
 323              	.LBE21:
 324              	.LBE20:
 325              		.loc 1 405 22 view .LVU57
 326 0004 B0FA80F0 		clz	r0, r0
 327 0008 024B     		ldr	r3, .L25
 328 000a 0344     		add	r3, r3, r0
 329 000c 9B00     		lsls	r3, r3, #2
 330              		.loc 1 405 46 view .LVU58
 331 000e 0122     		movs	r2, #1
 332 0010 1A60     		str	r2, [r3]
 406:Drivers/STM32F1xx_HAL_Driver/Src/stm32f1xx_hal_pwr.c **** }
 333              		.loc 1 406 1 view .LVU59
 334 0012 7047     		bx	lr
 335              	.L26:
 336              		.align	2
 337              	.L25:
 338 0014 20808310 		.word	277053472
 339              		.cfi_endproc
 340              	.LFE73:
 342              		.section	.text.HAL_PWR_DisableWakeUpPin,"ax",%progbits
 343              		.align	1
 344              		.global	HAL_PWR_DisableWakeUpPin
 345              		.syntax unified
 346              		.thumb
 347              		.thumb_func
 349              	HAL_PWR_DisableWakeUpPin:
 350              	.LVL3:
 351              	.LFB74:
 407:Drivers/STM32F1xx_HAL_Driver/Src/stm32f1xx_hal_pwr.c **** 
 408:Drivers/STM32F1xx_HAL_Driver/Src/stm32f1xx_hal_pwr.c **** /**
 409:Drivers/STM32F1xx_HAL_Driver/Src/stm32f1xx_hal_pwr.c ****   * @brief Disables the WakeUp PINx functionality.
 410:Drivers/STM32F1xx_HAL_Driver/Src/stm32f1xx_hal_pwr.c ****   * @param WakeUpPinx: Specifies the Power Wake-Up pin to disable.
 411:Drivers/STM32F1xx_HAL_Driver/Src/stm32f1xx_hal_pwr.c ****   *        This parameter can be one of the following values:
 412:Drivers/STM32F1xx_HAL_Driver/Src/stm32f1xx_hal_pwr.c ****   *           @arg PWR_WAKEUP_PIN1
 413:Drivers/STM32F1xx_HAL_Driver/Src/stm32f1xx_hal_pwr.c ****   * @retval None
 414:Drivers/STM32F1xx_HAL_Driver/Src/stm32f1xx_hal_pwr.c ****   */
 415:Drivers/STM32F1xx_HAL_Driver/Src/stm32f1xx_hal_pwr.c **** void HAL_PWR_DisableWakeUpPin(uint32_t WakeUpPinx)
 416:Drivers/STM32F1xx_HAL_Driver/Src/stm32f1xx_hal_pwr.c **** {
 352              		.loc 1 416 1 is_stmt 1 view -0
 353              		.cfi_startproc
 354              		@ args = 0, pretend = 0, frame = 0
 355              		@ frame_needed = 0, uses_anonymous_args = 0
 356              		@ link register save eliminated.
 417:Drivers/STM32F1xx_HAL_Driver/Src/stm32f1xx_hal_pwr.c ****   /* Check the parameter */
 418:Drivers/STM32F1xx_HAL_Driver/Src/stm32f1xx_hal_pwr.c ****   assert_param(IS_PWR_WAKEUP_PIN(WakeUpPinx));
 357              		.loc 1 418 3 view .LVU61
 419:Drivers/STM32F1xx_HAL_Driver/Src/stm32f1xx_hal_pwr.c ****   /* Disable the EWUPx pin */
 420:Drivers/STM32F1xx_HAL_Driver/Src/stm32f1xx_hal_pwr.c ****   *(__IO uint32_t *) CSR_EWUP_BB(WakeUpPinx) = (uint32_t)DISABLE;
 358              		.loc 1 420 3 view .LVU62
 359              	.LBB22:
 360              	.LBI22:
 526:Drivers/CMSIS/Include/cmsis_gcc.h **** {
 361              		.loc 2 526 57 view .LVU63
 362              	.LBB23:
 528:Drivers/CMSIS/Include/cmsis_gcc.h **** 
ARM GAS  /var/folders/2w/5wbrmvx534s_vk8svtxz852c0000gn/T//ccwiuAqP.s 			page 24


 363              		.loc 2 528 3 view .LVU64
 531:Drivers/CMSIS/Include/cmsis_gcc.h **** #else
 364              		.loc 2 531 4 view .LVU65
 365              		.syntax unified
 366              	@ 531 "Drivers/CMSIS/Include/cmsis_gcc.h" 1
 367 0000 90FAA0F0 		rbit r0, r0
 368              	@ 0 "" 2
 369              	.LVL4:
 370              		.loc 2 544 3 view .LVU66
 371              		.loc 2 544 3 is_stmt 0 view .LVU67
 372              		.thumb
 373              		.syntax unified
 374              	.LBE23:
 375              	.LBE22:
 376              		.loc 1 420 22 view .LVU68
 377 0004 B0FA80F0 		clz	r0, r0
 378 0008 024B     		ldr	r3, .L28
 379 000a 0344     		add	r3, r3, r0
 380 000c 9B00     		lsls	r3, r3, #2
 381              		.loc 1 420 46 view .LVU69
 382 000e 0022     		movs	r2, #0
 383 0010 1A60     		str	r2, [r3]
 421:Drivers/STM32F1xx_HAL_Driver/Src/stm32f1xx_hal_pwr.c **** }
 384              		.loc 1 421 1 view .LVU70
 385 0012 7047     		bx	lr
 386              	.L29:
 387              		.align	2
 388              	.L28:
 389 0014 20808310 		.word	277053472
 390              		.cfi_endproc
 391              	.LFE74:
 393              		.section	.text.HAL_PWR_EnterSLEEPMode,"ax",%progbits
 394              		.align	1
 395              		.global	HAL_PWR_EnterSLEEPMode
 396              		.syntax unified
 397              		.thumb
 398              		.thumb_func
 400              	HAL_PWR_EnterSLEEPMode:
 401              	.LVL5:
 402              	.LFB75:
 422:Drivers/STM32F1xx_HAL_Driver/Src/stm32f1xx_hal_pwr.c **** 
 423:Drivers/STM32F1xx_HAL_Driver/Src/stm32f1xx_hal_pwr.c **** /**
 424:Drivers/STM32F1xx_HAL_Driver/Src/stm32f1xx_hal_pwr.c ****   * @brief Enters Sleep mode.
 425:Drivers/STM32F1xx_HAL_Driver/Src/stm32f1xx_hal_pwr.c ****   * @note  In Sleep mode, all I/O pins keep the same state as in Run mode.
 426:Drivers/STM32F1xx_HAL_Driver/Src/stm32f1xx_hal_pwr.c ****   * @param Regulator: Regulator state as no effect in SLEEP mode -  allows to support portability f
 427:Drivers/STM32F1xx_HAL_Driver/Src/stm32f1xx_hal_pwr.c ****   * @param SLEEPEntry: Specifies if SLEEP mode is entered with WFI or WFE instruction.
 428:Drivers/STM32F1xx_HAL_Driver/Src/stm32f1xx_hal_pwr.c ****   *           When WFI entry is used, tick interrupt have to be disabled if not desired as 
 429:Drivers/STM32F1xx_HAL_Driver/Src/stm32f1xx_hal_pwr.c ****   *           the interrupt wake up source.
 430:Drivers/STM32F1xx_HAL_Driver/Src/stm32f1xx_hal_pwr.c ****   *           This parameter can be one of the following values:
 431:Drivers/STM32F1xx_HAL_Driver/Src/stm32f1xx_hal_pwr.c ****   *            @arg PWR_SLEEPENTRY_WFI: enter SLEEP mode with WFI instruction
 432:Drivers/STM32F1xx_HAL_Driver/Src/stm32f1xx_hal_pwr.c ****   *            @arg PWR_SLEEPENTRY_WFE: enter SLEEP mode with WFE instruction
 433:Drivers/STM32F1xx_HAL_Driver/Src/stm32f1xx_hal_pwr.c ****   * @retval None
 434:Drivers/STM32F1xx_HAL_Driver/Src/stm32f1xx_hal_pwr.c ****   */
 435:Drivers/STM32F1xx_HAL_Driver/Src/stm32f1xx_hal_pwr.c **** void HAL_PWR_EnterSLEEPMode(uint32_t Regulator, uint8_t SLEEPEntry)
 436:Drivers/STM32F1xx_HAL_Driver/Src/stm32f1xx_hal_pwr.c **** {
 403              		.loc 1 436 1 is_stmt 1 view -0
 404              		.cfi_startproc
ARM GAS  /var/folders/2w/5wbrmvx534s_vk8svtxz852c0000gn/T//ccwiuAqP.s 			page 25


 405              		@ args = 0, pretend = 0, frame = 0
 406              		@ frame_needed = 0, uses_anonymous_args = 0
 407              		@ link register save eliminated.
 437:Drivers/STM32F1xx_HAL_Driver/Src/stm32f1xx_hal_pwr.c ****   /* Check the parameters */
 438:Drivers/STM32F1xx_HAL_Driver/Src/stm32f1xx_hal_pwr.c ****   /* No check on Regulator because parameter not used in SLEEP mode */
 439:Drivers/STM32F1xx_HAL_Driver/Src/stm32f1xx_hal_pwr.c ****   /* Prevent unused argument(s) compilation warning */
 440:Drivers/STM32F1xx_HAL_Driver/Src/stm32f1xx_hal_pwr.c ****   UNUSED(Regulator);
 408              		.loc 1 440 3 view .LVU72
 441:Drivers/STM32F1xx_HAL_Driver/Src/stm32f1xx_hal_pwr.c **** 
 442:Drivers/STM32F1xx_HAL_Driver/Src/stm32f1xx_hal_pwr.c ****   assert_param(IS_PWR_SLEEP_ENTRY(SLEEPEntry));
 409              		.loc 1 442 3 view .LVU73
 443:Drivers/STM32F1xx_HAL_Driver/Src/stm32f1xx_hal_pwr.c **** 
 444:Drivers/STM32F1xx_HAL_Driver/Src/stm32f1xx_hal_pwr.c ****   /* Clear SLEEPDEEP bit of Cortex System Control Register */
 445:Drivers/STM32F1xx_HAL_Driver/Src/stm32f1xx_hal_pwr.c ****   CLEAR_BIT(SCB->SCR, ((uint32_t)SCB_SCR_SLEEPDEEP_Msk));
 410              		.loc 1 445 3 view .LVU74
 411 0000 064A     		ldr	r2, .L34
 412 0002 1369     		ldr	r3, [r2, #16]
 413 0004 23F00403 		bic	r3, r3, #4
 414 0008 1361     		str	r3, [r2, #16]
 446:Drivers/STM32F1xx_HAL_Driver/Src/stm32f1xx_hal_pwr.c **** 
 447:Drivers/STM32F1xx_HAL_Driver/Src/stm32f1xx_hal_pwr.c ****   /* Select SLEEP mode entry -------------------------------------------------*/
 448:Drivers/STM32F1xx_HAL_Driver/Src/stm32f1xx_hal_pwr.c ****   if(SLEEPEntry == PWR_SLEEPENTRY_WFI)
 415              		.loc 1 448 3 view .LVU75
 416              		.loc 1 448 5 is_stmt 0 view .LVU76
 417 000a 0129     		cmp	r1, #1
 418 000c 03D0     		beq	.L33
 449:Drivers/STM32F1xx_HAL_Driver/Src/stm32f1xx_hal_pwr.c ****   {
 450:Drivers/STM32F1xx_HAL_Driver/Src/stm32f1xx_hal_pwr.c ****     /* Request Wait For Interrupt */
 451:Drivers/STM32F1xx_HAL_Driver/Src/stm32f1xx_hal_pwr.c ****     __WFI();
 452:Drivers/STM32F1xx_HAL_Driver/Src/stm32f1xx_hal_pwr.c ****   }
 453:Drivers/STM32F1xx_HAL_Driver/Src/stm32f1xx_hal_pwr.c ****   else
 454:Drivers/STM32F1xx_HAL_Driver/Src/stm32f1xx_hal_pwr.c ****   {
 455:Drivers/STM32F1xx_HAL_Driver/Src/stm32f1xx_hal_pwr.c ****     /* Request Wait For Event */
 456:Drivers/STM32F1xx_HAL_Driver/Src/stm32f1xx_hal_pwr.c ****     __SEV();
 419              		.loc 1 456 5 is_stmt 1 view .LVU77
 420              	.LBB24:
 421              	.LBI24:
 404:Drivers/CMSIS/Include/cmsis_gcc.h **** {
 422              		.loc 2 404 53 view .LVU78
 423              	.LBB25:
 406:Drivers/CMSIS/Include/cmsis_gcc.h **** }
 424              		.loc 2 406 3 view .LVU79
 425              		.syntax unified
 426              	@ 406 "Drivers/CMSIS/Include/cmsis_gcc.h" 1
 427 000e 40BF     		sev
 428              	@ 0 "" 2
 429              		.thumb
 430              		.syntax unified
 431              	.LBE25:
 432              	.LBE24:
 457:Drivers/STM32F1xx_HAL_Driver/Src/stm32f1xx_hal_pwr.c ****     __WFE();
 433              		.loc 1 457 5 view .LVU80
 434              	.LBB26:
 435              	.LBI26:
 394:Drivers/CMSIS/Include/cmsis_gcc.h **** {
 436              		.loc 2 394 53 view .LVU81
 437              	.LBB27:
ARM GAS  /var/folders/2w/5wbrmvx534s_vk8svtxz852c0000gn/T//ccwiuAqP.s 			page 26


 396:Drivers/CMSIS/Include/cmsis_gcc.h **** }
 438              		.loc 2 396 3 view .LVU82
 439              		.syntax unified
 440              	@ 396 "Drivers/CMSIS/Include/cmsis_gcc.h" 1
 441 0010 20BF     		wfe
 442              	@ 0 "" 2
 443              		.thumb
 444              		.syntax unified
 445              	.LBE27:
 446              	.LBE26:
 458:Drivers/STM32F1xx_HAL_Driver/Src/stm32f1xx_hal_pwr.c ****     __WFE();
 447              		.loc 1 458 5 view .LVU83
 448              	.LBB28:
 449              	.LBI28:
 394:Drivers/CMSIS/Include/cmsis_gcc.h **** {
 450              		.loc 2 394 53 view .LVU84
 451              	.LBB29:
 396:Drivers/CMSIS/Include/cmsis_gcc.h **** }
 452              		.loc 2 396 3 view .LVU85
 453              		.syntax unified
 454              	@ 396 "Drivers/CMSIS/Include/cmsis_gcc.h" 1
 455 0012 20BF     		wfe
 456              	@ 0 "" 2
 457              		.thumb
 458              		.syntax unified
 459              	.LBE29:
 460              	.LBE28:
 459:Drivers/STM32F1xx_HAL_Driver/Src/stm32f1xx_hal_pwr.c ****   }
 460:Drivers/STM32F1xx_HAL_Driver/Src/stm32f1xx_hal_pwr.c **** }
 461              		.loc 1 460 1 is_stmt 0 view .LVU86
 462 0014 7047     		bx	lr
 463              	.L33:
 451:Drivers/STM32F1xx_HAL_Driver/Src/stm32f1xx_hal_pwr.c ****   }
 464              		.loc 1 451 5 is_stmt 1 view .LVU87
 465              	.LBB30:
 466              	.LBI30:
 383:Drivers/CMSIS/Include/cmsis_gcc.h **** {
 467              		.loc 2 383 53 view .LVU88
 468              	.LBB31:
 385:Drivers/CMSIS/Include/cmsis_gcc.h **** }
 469              		.loc 2 385 3 view .LVU89
 470              		.syntax unified
 471              	@ 385 "Drivers/CMSIS/Include/cmsis_gcc.h" 1
 472 0016 30BF     		wfi
 473              	@ 0 "" 2
 386:Drivers/CMSIS/Include/cmsis_gcc.h **** 
 474              		.loc 2 386 1 is_stmt 0 view .LVU90
 475              		.thumb
 476              		.syntax unified
 477 0018 7047     		bx	lr
 478              	.L35:
 479 001a 00BF     		.align	2
 480              	.L34:
 481 001c 00ED00E0 		.word	-536810240
 482              	.LBE31:
 483              	.LBE30:
 484              		.cfi_endproc
ARM GAS  /var/folders/2w/5wbrmvx534s_vk8svtxz852c0000gn/T//ccwiuAqP.s 			page 27


 485              	.LFE75:
 487              		.section	.text.HAL_PWR_EnterSTOPMode,"ax",%progbits
 488              		.align	1
 489              		.global	HAL_PWR_EnterSTOPMode
 490              		.syntax unified
 491              		.thumb
 492              		.thumb_func
 494              	HAL_PWR_EnterSTOPMode:
 495              	.LVL6:
 496              	.LFB76:
 461:Drivers/STM32F1xx_HAL_Driver/Src/stm32f1xx_hal_pwr.c **** 
 462:Drivers/STM32F1xx_HAL_Driver/Src/stm32f1xx_hal_pwr.c **** /**
 463:Drivers/STM32F1xx_HAL_Driver/Src/stm32f1xx_hal_pwr.c ****   * @brief Enters Stop mode. 
 464:Drivers/STM32F1xx_HAL_Driver/Src/stm32f1xx_hal_pwr.c ****   * @note  In Stop mode, all I/O pins keep the same state as in Run mode.
 465:Drivers/STM32F1xx_HAL_Driver/Src/stm32f1xx_hal_pwr.c ****   * @note  When exiting Stop mode by using an interrupt or a wakeup event,
 466:Drivers/STM32F1xx_HAL_Driver/Src/stm32f1xx_hal_pwr.c ****   *        HSI RC oscillator is selected as system clock.
 467:Drivers/STM32F1xx_HAL_Driver/Src/stm32f1xx_hal_pwr.c ****   * @note  When the voltage regulator operates in low power mode, an additional
 468:Drivers/STM32F1xx_HAL_Driver/Src/stm32f1xx_hal_pwr.c ****   *         startup delay is incurred when waking up from Stop mode. 
 469:Drivers/STM32F1xx_HAL_Driver/Src/stm32f1xx_hal_pwr.c ****   *         By keeping the internal regulator ON during Stop mode, the consumption
 470:Drivers/STM32F1xx_HAL_Driver/Src/stm32f1xx_hal_pwr.c ****   *         is higher although the startup time is reduced.    
 471:Drivers/STM32F1xx_HAL_Driver/Src/stm32f1xx_hal_pwr.c ****   * @param Regulator: Specifies the regulator state in Stop mode.
 472:Drivers/STM32F1xx_HAL_Driver/Src/stm32f1xx_hal_pwr.c ****   *          This parameter can be one of the following values:
 473:Drivers/STM32F1xx_HAL_Driver/Src/stm32f1xx_hal_pwr.c ****   *            @arg PWR_MAINREGULATOR_ON: Stop mode with regulator ON
 474:Drivers/STM32F1xx_HAL_Driver/Src/stm32f1xx_hal_pwr.c ****   *            @arg PWR_LOWPOWERREGULATOR_ON: Stop mode with low power regulator ON
 475:Drivers/STM32F1xx_HAL_Driver/Src/stm32f1xx_hal_pwr.c ****   * @param STOPEntry: Specifies if Stop mode in entered with WFI or WFE instruction.
 476:Drivers/STM32F1xx_HAL_Driver/Src/stm32f1xx_hal_pwr.c ****   *          This parameter can be one of the following values:
 477:Drivers/STM32F1xx_HAL_Driver/Src/stm32f1xx_hal_pwr.c ****   *            @arg PWR_STOPENTRY_WFI: Enter Stop mode with WFI instruction
 478:Drivers/STM32F1xx_HAL_Driver/Src/stm32f1xx_hal_pwr.c ****   *            @arg PWR_STOPENTRY_WFE: Enter Stop mode with WFE instruction   
 479:Drivers/STM32F1xx_HAL_Driver/Src/stm32f1xx_hal_pwr.c ****   * @retval None
 480:Drivers/STM32F1xx_HAL_Driver/Src/stm32f1xx_hal_pwr.c ****   */
 481:Drivers/STM32F1xx_HAL_Driver/Src/stm32f1xx_hal_pwr.c **** void HAL_PWR_EnterSTOPMode(uint32_t Regulator, uint8_t STOPEntry)
 482:Drivers/STM32F1xx_HAL_Driver/Src/stm32f1xx_hal_pwr.c **** {
 497              		.loc 1 482 1 is_stmt 1 view -0
 498              		.cfi_startproc
 499              		@ args = 0, pretend = 0, frame = 0
 500              		@ frame_needed = 0, uses_anonymous_args = 0
 501              		.loc 1 482 1 is_stmt 0 view .LVU92
 502 0000 10B5     		push	{r4, lr}
 503              	.LCFI0:
 504              		.cfi_def_cfa_offset 8
 505              		.cfi_offset 4, -8
 506              		.cfi_offset 14, -4
 483:Drivers/STM32F1xx_HAL_Driver/Src/stm32f1xx_hal_pwr.c ****   /* Check the parameters */
 484:Drivers/STM32F1xx_HAL_Driver/Src/stm32f1xx_hal_pwr.c ****   assert_param(IS_PWR_REGULATOR(Regulator));
 507              		.loc 1 484 3 is_stmt 1 view .LVU93
 485:Drivers/STM32F1xx_HAL_Driver/Src/stm32f1xx_hal_pwr.c ****   assert_param(IS_PWR_STOP_ENTRY(STOPEntry));
 508              		.loc 1 485 3 view .LVU94
 486:Drivers/STM32F1xx_HAL_Driver/Src/stm32f1xx_hal_pwr.c **** 
 487:Drivers/STM32F1xx_HAL_Driver/Src/stm32f1xx_hal_pwr.c ****   /* Clear PDDS bit in PWR register to specify entering in STOP mode when CPU enter in Deepsleep */
 488:Drivers/STM32F1xx_HAL_Driver/Src/stm32f1xx_hal_pwr.c ****   CLEAR_BIT(PWR->CR,  PWR_CR_PDDS);
 509              		.loc 1 488 3 view .LVU95
 510 0002 0F4A     		ldr	r2, .L40
 511 0004 1468     		ldr	r4, [r2]
 512 0006 24F00204 		bic	r4, r4, #2
 513 000a 1460     		str	r4, [r2]
 489:Drivers/STM32F1xx_HAL_Driver/Src/stm32f1xx_hal_pwr.c **** 
 490:Drivers/STM32F1xx_HAL_Driver/Src/stm32f1xx_hal_pwr.c ****   /* Select the voltage regulator mode by setting LPDS bit in PWR register according to Regulator p
ARM GAS  /var/folders/2w/5wbrmvx534s_vk8svtxz852c0000gn/T//ccwiuAqP.s 			page 28


 491:Drivers/STM32F1xx_HAL_Driver/Src/stm32f1xx_hal_pwr.c ****   MODIFY_REG(PWR->CR, PWR_CR_LPDS, Regulator);
 514              		.loc 1 491 3 view .LVU96
 515 000c 1368     		ldr	r3, [r2]
 516 000e 23F00103 		bic	r3, r3, #1
 517 0012 0343     		orrs	r3, r3, r0
 518 0014 1360     		str	r3, [r2]
 492:Drivers/STM32F1xx_HAL_Driver/Src/stm32f1xx_hal_pwr.c **** 
 493:Drivers/STM32F1xx_HAL_Driver/Src/stm32f1xx_hal_pwr.c ****   /* Set SLEEPDEEP bit of Cortex System Control Register */
 494:Drivers/STM32F1xx_HAL_Driver/Src/stm32f1xx_hal_pwr.c ****   SET_BIT(SCB->SCR, ((uint32_t)SCB_SCR_SLEEPDEEP_Msk));
 519              		.loc 1 494 3 view .LVU97
 520 0016 0B4A     		ldr	r2, .L40+4
 521 0018 1369     		ldr	r3, [r2, #16]
 522 001a 43F00403 		orr	r3, r3, #4
 523 001e 1361     		str	r3, [r2, #16]
 495:Drivers/STM32F1xx_HAL_Driver/Src/stm32f1xx_hal_pwr.c **** 
 496:Drivers/STM32F1xx_HAL_Driver/Src/stm32f1xx_hal_pwr.c ****   /* Select Stop mode entry --------------------------------------------------*/
 497:Drivers/STM32F1xx_HAL_Driver/Src/stm32f1xx_hal_pwr.c ****   if(STOPEntry == PWR_STOPENTRY_WFI)
 524              		.loc 1 497 3 view .LVU98
 525              		.loc 1 497 5 is_stmt 0 view .LVU99
 526 0020 0129     		cmp	r1, #1
 527 0022 06D1     		bne	.L37
 498:Drivers/STM32F1xx_HAL_Driver/Src/stm32f1xx_hal_pwr.c ****   {
 499:Drivers/STM32F1xx_HAL_Driver/Src/stm32f1xx_hal_pwr.c ****     /* Request Wait For Interrupt */
 500:Drivers/STM32F1xx_HAL_Driver/Src/stm32f1xx_hal_pwr.c ****     __WFI();
 528              		.loc 1 500 5 is_stmt 1 view .LVU100
 529              	.LBB32:
 530              	.LBI32:
 383:Drivers/CMSIS/Include/cmsis_gcc.h **** {
 531              		.loc 2 383 53 view .LVU101
 532              	.LBB33:
 385:Drivers/CMSIS/Include/cmsis_gcc.h **** }
 533              		.loc 2 385 3 view .LVU102
 534              		.syntax unified
 535              	@ 385 "Drivers/CMSIS/Include/cmsis_gcc.h" 1
 536 0024 30BF     		wfi
 537              	@ 0 "" 2
 538              	.LVL7:
 539              		.thumb
 540              		.syntax unified
 541              	.L38:
 385:Drivers/CMSIS/Include/cmsis_gcc.h **** }
 542              		.loc 2 385 3 is_stmt 0 view .LVU103
 543              	.LBE33:
 544              	.LBE32:
 501:Drivers/STM32F1xx_HAL_Driver/Src/stm32f1xx_hal_pwr.c ****   }
 502:Drivers/STM32F1xx_HAL_Driver/Src/stm32f1xx_hal_pwr.c ****   else
 503:Drivers/STM32F1xx_HAL_Driver/Src/stm32f1xx_hal_pwr.c ****   {
 504:Drivers/STM32F1xx_HAL_Driver/Src/stm32f1xx_hal_pwr.c ****     /* Request Wait For Event */
 505:Drivers/STM32F1xx_HAL_Driver/Src/stm32f1xx_hal_pwr.c ****     __SEV();
 506:Drivers/STM32F1xx_HAL_Driver/Src/stm32f1xx_hal_pwr.c ****     PWR_OverloadWfe(); /* WFE redefine locally */
 507:Drivers/STM32F1xx_HAL_Driver/Src/stm32f1xx_hal_pwr.c ****     PWR_OverloadWfe(); /* WFE redefine locally */
 508:Drivers/STM32F1xx_HAL_Driver/Src/stm32f1xx_hal_pwr.c ****   }
 509:Drivers/STM32F1xx_HAL_Driver/Src/stm32f1xx_hal_pwr.c ****   /* Reset SLEEPDEEP bit of Cortex System Control Register */
 510:Drivers/STM32F1xx_HAL_Driver/Src/stm32f1xx_hal_pwr.c ****   CLEAR_BIT(SCB->SCR, ((uint32_t)SCB_SCR_SLEEPDEEP_Msk));
 545              		.loc 1 510 3 is_stmt 1 view .LVU104
 546 0026 074A     		ldr	r2, .L40+4
 547 0028 1369     		ldr	r3, [r2, #16]
ARM GAS  /var/folders/2w/5wbrmvx534s_vk8svtxz852c0000gn/T//ccwiuAqP.s 			page 29


 548 002a 23F00403 		bic	r3, r3, #4
 549 002e 1361     		str	r3, [r2, #16]
 511:Drivers/STM32F1xx_HAL_Driver/Src/stm32f1xx_hal_pwr.c **** }
 550              		.loc 1 511 1 is_stmt 0 view .LVU105
 551 0030 10BD     		pop	{r4, pc}
 552              	.LVL8:
 553              	.L37:
 505:Drivers/STM32F1xx_HAL_Driver/Src/stm32f1xx_hal_pwr.c ****     PWR_OverloadWfe(); /* WFE redefine locally */
 554              		.loc 1 505 5 is_stmt 1 view .LVU106
 555              	.LBB34:
 556              	.LBI34:
 404:Drivers/CMSIS/Include/cmsis_gcc.h **** {
 557              		.loc 2 404 53 view .LVU107
 558              	.LBB35:
 406:Drivers/CMSIS/Include/cmsis_gcc.h **** }
 559              		.loc 2 406 3 view .LVU108
 560              		.syntax unified
 561              	@ 406 "Drivers/CMSIS/Include/cmsis_gcc.h" 1
 562 0032 40BF     		sev
 563              	@ 0 "" 2
 564              		.thumb
 565              		.syntax unified
 566              	.LBE35:
 567              	.LBE34:
 506:Drivers/STM32F1xx_HAL_Driver/Src/stm32f1xx_hal_pwr.c ****     PWR_OverloadWfe(); /* WFE redefine locally */
 568              		.loc 1 506 5 view .LVU109
 569 0034 FFF7FEFF 		bl	PWR_OverloadWfe
 570              	.LVL9:
 507:Drivers/STM32F1xx_HAL_Driver/Src/stm32f1xx_hal_pwr.c ****   }
 571              		.loc 1 507 5 view .LVU110
 572 0038 FFF7FEFF 		bl	PWR_OverloadWfe
 573              	.LVL10:
 574 003c F3E7     		b	.L38
 575              	.L41:
 576 003e 00BF     		.align	2
 577              	.L40:
 578 0040 00700040 		.word	1073770496
 579 0044 00ED00E0 		.word	-536810240
 580              		.cfi_endproc
 581              	.LFE76:
 583              		.section	.text.HAL_PWR_EnterSTANDBYMode,"ax",%progbits
 584              		.align	1
 585              		.global	HAL_PWR_EnterSTANDBYMode
 586              		.syntax unified
 587              		.thumb
 588              		.thumb_func
 590              	HAL_PWR_EnterSTANDBYMode:
 591              	.LFB77:
 512:Drivers/STM32F1xx_HAL_Driver/Src/stm32f1xx_hal_pwr.c **** 
 513:Drivers/STM32F1xx_HAL_Driver/Src/stm32f1xx_hal_pwr.c **** /**
 514:Drivers/STM32F1xx_HAL_Driver/Src/stm32f1xx_hal_pwr.c ****   * @brief Enters Standby mode.
 515:Drivers/STM32F1xx_HAL_Driver/Src/stm32f1xx_hal_pwr.c ****   * @note  In Standby mode, all I/O pins are high impedance except for:
 516:Drivers/STM32F1xx_HAL_Driver/Src/stm32f1xx_hal_pwr.c ****   *          - Reset pad (still available) 
 517:Drivers/STM32F1xx_HAL_Driver/Src/stm32f1xx_hal_pwr.c ****   *          - TAMPER pin if configured for tamper or calibration out.
 518:Drivers/STM32F1xx_HAL_Driver/Src/stm32f1xx_hal_pwr.c ****   *          - WKUP pin (PA0) if enabled.
 519:Drivers/STM32F1xx_HAL_Driver/Src/stm32f1xx_hal_pwr.c ****   * @retval None
 520:Drivers/STM32F1xx_HAL_Driver/Src/stm32f1xx_hal_pwr.c ****   */
ARM GAS  /var/folders/2w/5wbrmvx534s_vk8svtxz852c0000gn/T//ccwiuAqP.s 			page 30


 521:Drivers/STM32F1xx_HAL_Driver/Src/stm32f1xx_hal_pwr.c **** void HAL_PWR_EnterSTANDBYMode(void)
 522:Drivers/STM32F1xx_HAL_Driver/Src/stm32f1xx_hal_pwr.c **** {
 592              		.loc 1 522 1 view -0
 593              		.cfi_startproc
 594              		@ args = 0, pretend = 0, frame = 0
 595              		@ frame_needed = 0, uses_anonymous_args = 0
 596              		@ link register save eliminated.
 523:Drivers/STM32F1xx_HAL_Driver/Src/stm32f1xx_hal_pwr.c ****   /* Select Standby mode */
 524:Drivers/STM32F1xx_HAL_Driver/Src/stm32f1xx_hal_pwr.c ****   SET_BIT(PWR->CR, PWR_CR_PDDS);
 597              		.loc 1 524 3 view .LVU112
 598 0000 054A     		ldr	r2, .L43
 599 0002 1368     		ldr	r3, [r2]
 600 0004 43F00203 		orr	r3, r3, #2
 601 0008 1360     		str	r3, [r2]
 525:Drivers/STM32F1xx_HAL_Driver/Src/stm32f1xx_hal_pwr.c **** 
 526:Drivers/STM32F1xx_HAL_Driver/Src/stm32f1xx_hal_pwr.c ****   /* Set SLEEPDEEP bit of Cortex System Control Register */
 527:Drivers/STM32F1xx_HAL_Driver/Src/stm32f1xx_hal_pwr.c ****   SET_BIT(SCB->SCR, ((uint32_t)SCB_SCR_SLEEPDEEP_Msk));
 602              		.loc 1 527 3 view .LVU113
 603 000a 044A     		ldr	r2, .L43+4
 604 000c 1369     		ldr	r3, [r2, #16]
 605 000e 43F00403 		orr	r3, r3, #4
 606 0012 1361     		str	r3, [r2, #16]
 528:Drivers/STM32F1xx_HAL_Driver/Src/stm32f1xx_hal_pwr.c **** 
 529:Drivers/STM32F1xx_HAL_Driver/Src/stm32f1xx_hal_pwr.c ****   /* This option is used to ensure that store operations are completed */
 530:Drivers/STM32F1xx_HAL_Driver/Src/stm32f1xx_hal_pwr.c **** #if defined ( __CC_ARM)
 531:Drivers/STM32F1xx_HAL_Driver/Src/stm32f1xx_hal_pwr.c ****   __force_stores();
 532:Drivers/STM32F1xx_HAL_Driver/Src/stm32f1xx_hal_pwr.c **** #endif
 533:Drivers/STM32F1xx_HAL_Driver/Src/stm32f1xx_hal_pwr.c ****   /* Request Wait For Interrupt */
 534:Drivers/STM32F1xx_HAL_Driver/Src/stm32f1xx_hal_pwr.c ****   __WFI();
 607              		.loc 1 534 3 view .LVU114
 608              	.LBB36:
 609              	.LBI36:
 383:Drivers/CMSIS/Include/cmsis_gcc.h **** {
 610              		.loc 2 383 53 view .LVU115
 611              	.LBB37:
 385:Drivers/CMSIS/Include/cmsis_gcc.h **** }
 612              		.loc 2 385 3 view .LVU116
 613              		.syntax unified
 614              	@ 385 "Drivers/CMSIS/Include/cmsis_gcc.h" 1
 615 0014 30BF     		wfi
 616              	@ 0 "" 2
 617              		.thumb
 618              		.syntax unified
 619              	.LBE37:
 620              	.LBE36:
 535:Drivers/STM32F1xx_HAL_Driver/Src/stm32f1xx_hal_pwr.c **** }
 621              		.loc 1 535 1 is_stmt 0 view .LVU117
 622 0016 7047     		bx	lr
 623              	.L44:
 624              		.align	2
 625              	.L43:
 626 0018 00700040 		.word	1073770496
 627 001c 00ED00E0 		.word	-536810240
 628              		.cfi_endproc
 629              	.LFE77:
 631              		.section	.text.HAL_PWR_EnableSleepOnExit,"ax",%progbits
 632              		.align	1
ARM GAS  /var/folders/2w/5wbrmvx534s_vk8svtxz852c0000gn/T//ccwiuAqP.s 			page 31


 633              		.global	HAL_PWR_EnableSleepOnExit
 634              		.syntax unified
 635              		.thumb
 636              		.thumb_func
 638              	HAL_PWR_EnableSleepOnExit:
 639              	.LFB78:
 536:Drivers/STM32F1xx_HAL_Driver/Src/stm32f1xx_hal_pwr.c **** 
 537:Drivers/STM32F1xx_HAL_Driver/Src/stm32f1xx_hal_pwr.c **** 
 538:Drivers/STM32F1xx_HAL_Driver/Src/stm32f1xx_hal_pwr.c **** /**
 539:Drivers/STM32F1xx_HAL_Driver/Src/stm32f1xx_hal_pwr.c ****   * @brief Indicates Sleep-On-Exit when returning from Handler mode to Thread mode. 
 540:Drivers/STM32F1xx_HAL_Driver/Src/stm32f1xx_hal_pwr.c ****   * @note Set SLEEPONEXIT bit of SCR register. When this bit is set, the processor 
 541:Drivers/STM32F1xx_HAL_Driver/Src/stm32f1xx_hal_pwr.c ****   *       re-enters SLEEP mode when an interruption handling is over.
 542:Drivers/STM32F1xx_HAL_Driver/Src/stm32f1xx_hal_pwr.c ****   *       Setting this bit is useful when the processor is expected to run only on
 543:Drivers/STM32F1xx_HAL_Driver/Src/stm32f1xx_hal_pwr.c ****   *       interruptions handling.         
 544:Drivers/STM32F1xx_HAL_Driver/Src/stm32f1xx_hal_pwr.c ****   * @retval None
 545:Drivers/STM32F1xx_HAL_Driver/Src/stm32f1xx_hal_pwr.c ****   */
 546:Drivers/STM32F1xx_HAL_Driver/Src/stm32f1xx_hal_pwr.c **** void HAL_PWR_EnableSleepOnExit(void)
 547:Drivers/STM32F1xx_HAL_Driver/Src/stm32f1xx_hal_pwr.c **** {
 640              		.loc 1 547 1 is_stmt 1 view -0
 641              		.cfi_startproc
 642              		@ args = 0, pretend = 0, frame = 0
 643              		@ frame_needed = 0, uses_anonymous_args = 0
 644              		@ link register save eliminated.
 548:Drivers/STM32F1xx_HAL_Driver/Src/stm32f1xx_hal_pwr.c ****   /* Set SLEEPONEXIT bit of Cortex System Control Register */
 549:Drivers/STM32F1xx_HAL_Driver/Src/stm32f1xx_hal_pwr.c ****   SET_BIT(SCB->SCR, ((uint32_t)SCB_SCR_SLEEPONEXIT_Msk));
 645              		.loc 1 549 3 view .LVU119
 646 0000 024A     		ldr	r2, .L46
 647 0002 1369     		ldr	r3, [r2, #16]
 648 0004 43F00203 		orr	r3, r3, #2
 649 0008 1361     		str	r3, [r2, #16]
 550:Drivers/STM32F1xx_HAL_Driver/Src/stm32f1xx_hal_pwr.c **** }
 650              		.loc 1 550 1 is_stmt 0 view .LVU120
 651 000a 7047     		bx	lr
 652              	.L47:
 653              		.align	2
 654              	.L46:
 655 000c 00ED00E0 		.word	-536810240
 656              		.cfi_endproc
 657              	.LFE78:
 659              		.section	.text.HAL_PWR_DisableSleepOnExit,"ax",%progbits
 660              		.align	1
 661              		.global	HAL_PWR_DisableSleepOnExit
 662              		.syntax unified
 663              		.thumb
 664              		.thumb_func
 666              	HAL_PWR_DisableSleepOnExit:
 667              	.LFB79:
 551:Drivers/STM32F1xx_HAL_Driver/Src/stm32f1xx_hal_pwr.c **** 
 552:Drivers/STM32F1xx_HAL_Driver/Src/stm32f1xx_hal_pwr.c **** 
 553:Drivers/STM32F1xx_HAL_Driver/Src/stm32f1xx_hal_pwr.c **** /**
 554:Drivers/STM32F1xx_HAL_Driver/Src/stm32f1xx_hal_pwr.c ****   * @brief Disables Sleep-On-Exit feature when returning from Handler mode to Thread mode. 
 555:Drivers/STM32F1xx_HAL_Driver/Src/stm32f1xx_hal_pwr.c ****   * @note Clears SLEEPONEXIT bit of SCR register. When this bit is set, the processor 
 556:Drivers/STM32F1xx_HAL_Driver/Src/stm32f1xx_hal_pwr.c ****   *       re-enters SLEEP mode when an interruption handling is over.          
 557:Drivers/STM32F1xx_HAL_Driver/Src/stm32f1xx_hal_pwr.c ****   * @retval None
 558:Drivers/STM32F1xx_HAL_Driver/Src/stm32f1xx_hal_pwr.c ****   */
 559:Drivers/STM32F1xx_HAL_Driver/Src/stm32f1xx_hal_pwr.c **** void HAL_PWR_DisableSleepOnExit(void)
 560:Drivers/STM32F1xx_HAL_Driver/Src/stm32f1xx_hal_pwr.c **** {
ARM GAS  /var/folders/2w/5wbrmvx534s_vk8svtxz852c0000gn/T//ccwiuAqP.s 			page 32


 668              		.loc 1 560 1 is_stmt 1 view -0
 669              		.cfi_startproc
 670              		@ args = 0, pretend = 0, frame = 0
 671              		@ frame_needed = 0, uses_anonymous_args = 0
 672              		@ link register save eliminated.
 561:Drivers/STM32F1xx_HAL_Driver/Src/stm32f1xx_hal_pwr.c ****   /* Clear SLEEPONEXIT bit of Cortex System Control Register */
 562:Drivers/STM32F1xx_HAL_Driver/Src/stm32f1xx_hal_pwr.c ****   CLEAR_BIT(SCB->SCR, ((uint32_t)SCB_SCR_SLEEPONEXIT_Msk));
 673              		.loc 1 562 3 view .LVU122
 674 0000 024A     		ldr	r2, .L49
 675 0002 1369     		ldr	r3, [r2, #16]
 676 0004 23F00203 		bic	r3, r3, #2
 677 0008 1361     		str	r3, [r2, #16]
 563:Drivers/STM32F1xx_HAL_Driver/Src/stm32f1xx_hal_pwr.c **** }
 678              		.loc 1 563 1 is_stmt 0 view .LVU123
 679 000a 7047     		bx	lr
 680              	.L50:
 681              		.align	2
 682              	.L49:
 683 000c 00ED00E0 		.word	-536810240
 684              		.cfi_endproc
 685              	.LFE79:
 687              		.section	.text.HAL_PWR_EnableSEVOnPend,"ax",%progbits
 688              		.align	1
 689              		.global	HAL_PWR_EnableSEVOnPend
 690              		.syntax unified
 691              		.thumb
 692              		.thumb_func
 694              	HAL_PWR_EnableSEVOnPend:
 695              	.LFB80:
 564:Drivers/STM32F1xx_HAL_Driver/Src/stm32f1xx_hal_pwr.c **** 
 565:Drivers/STM32F1xx_HAL_Driver/Src/stm32f1xx_hal_pwr.c **** 
 566:Drivers/STM32F1xx_HAL_Driver/Src/stm32f1xx_hal_pwr.c **** /**
 567:Drivers/STM32F1xx_HAL_Driver/Src/stm32f1xx_hal_pwr.c ****   * @brief Enables CORTEX M3 SEVONPEND bit. 
 568:Drivers/STM32F1xx_HAL_Driver/Src/stm32f1xx_hal_pwr.c ****   * @note Sets SEVONPEND bit of SCR register. When this bit is set, this causes 
 569:Drivers/STM32F1xx_HAL_Driver/Src/stm32f1xx_hal_pwr.c ****   *       WFE to wake up when an interrupt moves from inactive to pended.
 570:Drivers/STM32F1xx_HAL_Driver/Src/stm32f1xx_hal_pwr.c ****   * @retval None
 571:Drivers/STM32F1xx_HAL_Driver/Src/stm32f1xx_hal_pwr.c ****   */
 572:Drivers/STM32F1xx_HAL_Driver/Src/stm32f1xx_hal_pwr.c **** void HAL_PWR_EnableSEVOnPend(void)
 573:Drivers/STM32F1xx_HAL_Driver/Src/stm32f1xx_hal_pwr.c **** {
 696              		.loc 1 573 1 is_stmt 1 view -0
 697              		.cfi_startproc
 698              		@ args = 0, pretend = 0, frame = 0
 699              		@ frame_needed = 0, uses_anonymous_args = 0
 700              		@ link register save eliminated.
 574:Drivers/STM32F1xx_HAL_Driver/Src/stm32f1xx_hal_pwr.c ****   /* Set SEVONPEND bit of Cortex System Control Register */
 575:Drivers/STM32F1xx_HAL_Driver/Src/stm32f1xx_hal_pwr.c ****   SET_BIT(SCB->SCR, ((uint32_t)SCB_SCR_SEVONPEND_Msk));
 701              		.loc 1 575 3 view .LVU125
 702 0000 024A     		ldr	r2, .L52
 703 0002 1369     		ldr	r3, [r2, #16]
 704 0004 43F01003 		orr	r3, r3, #16
 705 0008 1361     		str	r3, [r2, #16]
 576:Drivers/STM32F1xx_HAL_Driver/Src/stm32f1xx_hal_pwr.c **** }
 706              		.loc 1 576 1 is_stmt 0 view .LVU126
 707 000a 7047     		bx	lr
 708              	.L53:
 709              		.align	2
 710              	.L52:
ARM GAS  /var/folders/2w/5wbrmvx534s_vk8svtxz852c0000gn/T//ccwiuAqP.s 			page 33


 711 000c 00ED00E0 		.word	-536810240
 712              		.cfi_endproc
 713              	.LFE80:
 715              		.section	.text.HAL_PWR_DisableSEVOnPend,"ax",%progbits
 716              		.align	1
 717              		.global	HAL_PWR_DisableSEVOnPend
 718              		.syntax unified
 719              		.thumb
 720              		.thumb_func
 722              	HAL_PWR_DisableSEVOnPend:
 723              	.LFB81:
 577:Drivers/STM32F1xx_HAL_Driver/Src/stm32f1xx_hal_pwr.c **** 
 578:Drivers/STM32F1xx_HAL_Driver/Src/stm32f1xx_hal_pwr.c **** 
 579:Drivers/STM32F1xx_HAL_Driver/Src/stm32f1xx_hal_pwr.c **** /**
 580:Drivers/STM32F1xx_HAL_Driver/Src/stm32f1xx_hal_pwr.c ****   * @brief Disables CORTEX M3 SEVONPEND bit. 
 581:Drivers/STM32F1xx_HAL_Driver/Src/stm32f1xx_hal_pwr.c ****   * @note Clears SEVONPEND bit of SCR register. When this bit is set, this causes 
 582:Drivers/STM32F1xx_HAL_Driver/Src/stm32f1xx_hal_pwr.c ****   *       WFE to wake up when an interrupt moves from inactive to pended.         
 583:Drivers/STM32F1xx_HAL_Driver/Src/stm32f1xx_hal_pwr.c ****   * @retval None
 584:Drivers/STM32F1xx_HAL_Driver/Src/stm32f1xx_hal_pwr.c ****   */
 585:Drivers/STM32F1xx_HAL_Driver/Src/stm32f1xx_hal_pwr.c **** void HAL_PWR_DisableSEVOnPend(void)
 586:Drivers/STM32F1xx_HAL_Driver/Src/stm32f1xx_hal_pwr.c **** {
 724              		.loc 1 586 1 is_stmt 1 view -0
 725              		.cfi_startproc
 726              		@ args = 0, pretend = 0, frame = 0
 727              		@ frame_needed = 0, uses_anonymous_args = 0
 728              		@ link register save eliminated.
 587:Drivers/STM32F1xx_HAL_Driver/Src/stm32f1xx_hal_pwr.c ****   /* Clear SEVONPEND bit of Cortex System Control Register */
 588:Drivers/STM32F1xx_HAL_Driver/Src/stm32f1xx_hal_pwr.c ****   CLEAR_BIT(SCB->SCR, ((uint32_t)SCB_SCR_SEVONPEND_Msk));
 729              		.loc 1 588 3 view .LVU128
 730 0000 024A     		ldr	r2, .L55
 731 0002 1369     		ldr	r3, [r2, #16]
 732 0004 23F01003 		bic	r3, r3, #16
 733 0008 1361     		str	r3, [r2, #16]
 589:Drivers/STM32F1xx_HAL_Driver/Src/stm32f1xx_hal_pwr.c **** }
 734              		.loc 1 589 1 is_stmt 0 view .LVU129
 735 000a 7047     		bx	lr
 736              	.L56:
 737              		.align	2
 738              	.L55:
 739 000c 00ED00E0 		.word	-536810240
 740              		.cfi_endproc
 741              	.LFE81:
 743              		.section	.text.HAL_PWR_PVDCallback,"ax",%progbits
 744              		.align	1
 745              		.weak	HAL_PWR_PVDCallback
 746              		.syntax unified
 747              		.thumb
 748              		.thumb_func
 750              	HAL_PWR_PVDCallback:
 751              	.LFB83:
 590:Drivers/STM32F1xx_HAL_Driver/Src/stm32f1xx_hal_pwr.c **** 
 591:Drivers/STM32F1xx_HAL_Driver/Src/stm32f1xx_hal_pwr.c **** 
 592:Drivers/STM32F1xx_HAL_Driver/Src/stm32f1xx_hal_pwr.c **** 
 593:Drivers/STM32F1xx_HAL_Driver/Src/stm32f1xx_hal_pwr.c **** /**
 594:Drivers/STM32F1xx_HAL_Driver/Src/stm32f1xx_hal_pwr.c ****   * @brief  This function handles the PWR PVD interrupt request.
 595:Drivers/STM32F1xx_HAL_Driver/Src/stm32f1xx_hal_pwr.c ****   * @note   This API should be called under the PVD_IRQHandler().
 596:Drivers/STM32F1xx_HAL_Driver/Src/stm32f1xx_hal_pwr.c ****   * @retval None
ARM GAS  /var/folders/2w/5wbrmvx534s_vk8svtxz852c0000gn/T//ccwiuAqP.s 			page 34


 597:Drivers/STM32F1xx_HAL_Driver/Src/stm32f1xx_hal_pwr.c ****   */
 598:Drivers/STM32F1xx_HAL_Driver/Src/stm32f1xx_hal_pwr.c **** void HAL_PWR_PVD_IRQHandler(void)
 599:Drivers/STM32F1xx_HAL_Driver/Src/stm32f1xx_hal_pwr.c **** {
 600:Drivers/STM32F1xx_HAL_Driver/Src/stm32f1xx_hal_pwr.c ****   /* Check PWR exti flag */
 601:Drivers/STM32F1xx_HAL_Driver/Src/stm32f1xx_hal_pwr.c ****   if(__HAL_PWR_PVD_EXTI_GET_FLAG() != RESET)
 602:Drivers/STM32F1xx_HAL_Driver/Src/stm32f1xx_hal_pwr.c ****   {
 603:Drivers/STM32F1xx_HAL_Driver/Src/stm32f1xx_hal_pwr.c ****     /* PWR PVD interrupt user callback */
 604:Drivers/STM32F1xx_HAL_Driver/Src/stm32f1xx_hal_pwr.c ****     HAL_PWR_PVDCallback();
 605:Drivers/STM32F1xx_HAL_Driver/Src/stm32f1xx_hal_pwr.c **** 
 606:Drivers/STM32F1xx_HAL_Driver/Src/stm32f1xx_hal_pwr.c ****     /* Clear PWR Exti pending bit */
 607:Drivers/STM32F1xx_HAL_Driver/Src/stm32f1xx_hal_pwr.c ****     __HAL_PWR_PVD_EXTI_CLEAR_FLAG();
 608:Drivers/STM32F1xx_HAL_Driver/Src/stm32f1xx_hal_pwr.c ****   }
 609:Drivers/STM32F1xx_HAL_Driver/Src/stm32f1xx_hal_pwr.c **** }
 610:Drivers/STM32F1xx_HAL_Driver/Src/stm32f1xx_hal_pwr.c **** 
 611:Drivers/STM32F1xx_HAL_Driver/Src/stm32f1xx_hal_pwr.c **** /**
 612:Drivers/STM32F1xx_HAL_Driver/Src/stm32f1xx_hal_pwr.c ****   * @brief  PWR PVD interrupt callback
 613:Drivers/STM32F1xx_HAL_Driver/Src/stm32f1xx_hal_pwr.c ****   * @retval None
 614:Drivers/STM32F1xx_HAL_Driver/Src/stm32f1xx_hal_pwr.c ****   */
 615:Drivers/STM32F1xx_HAL_Driver/Src/stm32f1xx_hal_pwr.c **** __weak void HAL_PWR_PVDCallback(void)
 616:Drivers/STM32F1xx_HAL_Driver/Src/stm32f1xx_hal_pwr.c **** {
 752              		.loc 1 616 1 is_stmt 1 view -0
 753              		.cfi_startproc
 754              		@ args = 0, pretend = 0, frame = 0
 755              		@ frame_needed = 0, uses_anonymous_args = 0
 756              		@ link register save eliminated.
 617:Drivers/STM32F1xx_HAL_Driver/Src/stm32f1xx_hal_pwr.c ****   /* NOTE : This function Should not be modified, when the callback is needed,
 618:Drivers/STM32F1xx_HAL_Driver/Src/stm32f1xx_hal_pwr.c ****             the HAL_PWR_PVDCallback could be implemented in the user file
 619:Drivers/STM32F1xx_HAL_Driver/Src/stm32f1xx_hal_pwr.c ****    */ 
 620:Drivers/STM32F1xx_HAL_Driver/Src/stm32f1xx_hal_pwr.c **** }
 757              		.loc 1 620 1 view .LVU131
 758 0000 7047     		bx	lr
 759              		.cfi_endproc
 760              	.LFE83:
 762              		.section	.text.HAL_PWR_PVD_IRQHandler,"ax",%progbits
 763              		.align	1
 764              		.global	HAL_PWR_PVD_IRQHandler
 765              		.syntax unified
 766              		.thumb
 767              		.thumb_func
 769              	HAL_PWR_PVD_IRQHandler:
 770              	.LFB82:
 599:Drivers/STM32F1xx_HAL_Driver/Src/stm32f1xx_hal_pwr.c ****   /* Check PWR exti flag */
 771              		.loc 1 599 1 view -0
 772              		.cfi_startproc
 773              		@ args = 0, pretend = 0, frame = 0
 774              		@ frame_needed = 0, uses_anonymous_args = 0
 775 0000 08B5     		push	{r3, lr}
 776              	.LCFI1:
 777              		.cfi_def_cfa_offset 8
 778              		.cfi_offset 3, -8
 779              		.cfi_offset 14, -4
 601:Drivers/STM32F1xx_HAL_Driver/Src/stm32f1xx_hal_pwr.c ****   {
 780              		.loc 1 601 3 view .LVU133
 601:Drivers/STM32F1xx_HAL_Driver/Src/stm32f1xx_hal_pwr.c ****   {
 781              		.loc 1 601 6 is_stmt 0 view .LVU134
 782 0002 064B     		ldr	r3, .L62
 783 0004 5B69     		ldr	r3, [r3, #20]
ARM GAS  /var/folders/2w/5wbrmvx534s_vk8svtxz852c0000gn/T//ccwiuAqP.s 			page 35


 601:Drivers/STM32F1xx_HAL_Driver/Src/stm32f1xx_hal_pwr.c ****   {
 784              		.loc 1 601 5 view .LVU135
 785 0006 13F4803F 		tst	r3, #65536
 786 000a 00D1     		bne	.L61
 787              	.L58:
 609:Drivers/STM32F1xx_HAL_Driver/Src/stm32f1xx_hal_pwr.c **** 
 788              		.loc 1 609 1 view .LVU136
 789 000c 08BD     		pop	{r3, pc}
 790              	.L61:
 604:Drivers/STM32F1xx_HAL_Driver/Src/stm32f1xx_hal_pwr.c **** 
 791              		.loc 1 604 5 is_stmt 1 view .LVU137
 792 000e FFF7FEFF 		bl	HAL_PWR_PVDCallback
 793              	.LVL11:
 607:Drivers/STM32F1xx_HAL_Driver/Src/stm32f1xx_hal_pwr.c ****   }
 794              		.loc 1 607 5 view .LVU138
 795 0012 024B     		ldr	r3, .L62
 796 0014 4FF48032 		mov	r2, #65536
 797 0018 5A61     		str	r2, [r3, #20]
 609:Drivers/STM32F1xx_HAL_Driver/Src/stm32f1xx_hal_pwr.c **** 
 798              		.loc 1 609 1 is_stmt 0 view .LVU139
 799 001a F7E7     		b	.L58
 800              	.L63:
 801              		.align	2
 802              	.L62:
 803 001c 00040140 		.word	1073808384
 804              		.cfi_endproc
 805              	.LFE82:
 807              		.text
 808              	.Letext0:
 809              		.file 3 "/opt/homebrew/Cellar/arm-none-eabi-gcc/10.3-2021.10/gcc/arm-none-eabi/include/machine/_de
 810              		.file 4 "/opt/homebrew/Cellar/arm-none-eabi-gcc/10.3-2021.10/gcc/arm-none-eabi/include/sys/_stdint
 811              		.file 5 "Drivers/CMSIS/Include/core_cm3.h"
 812              		.file 6 "Drivers/CMSIS/Device/ST/STM32F1xx/Include/stm32f103xe.h"
 813              		.file 7 "Drivers/CMSIS/Device/ST/STM32F1xx/Include/stm32f1xx.h"
 814              		.file 8 "Drivers/STM32F1xx_HAL_Driver/Inc/stm32f1xx_hal_pwr.h"
ARM GAS  /var/folders/2w/5wbrmvx534s_vk8svtxz852c0000gn/T//ccwiuAqP.s 			page 36

