ARM GAS  /var/folders/2w/5wbrmvx534s_vk8svtxz852c0000gn/T//cccJC0NJ.s 			page 1


   1              		.cpu cortex-m3
   2              		.arch armv7-m
   3              		.fpu softvfp
   4              		.eabi_attribute 20, 1
   5              		.eabi_attribute 21, 1
   6              		.eabi_attribute 23, 3
   7              		.eabi_attribute 24, 1
   8              		.eabi_attribute 25, 1
   9              		.eabi_attribute 26, 1
  10              		.eabi_attribute 30, 1
  11              		.eabi_attribute 34, 1
  12              		.eabi_attribute 18, 4
  13              		.file	"stm32f1xx_hal_dma.c"
  14              		.text
  15              	.Ltext0:
  16              		.cfi_sections	.debug_frame
  17              		.section	.text.DMA_SetConfig,"ax",%progbits
  18              		.align	1
  19              		.syntax unified
  20              		.thumb
  21              		.thumb_func
  23              	DMA_SetConfig:
  24              	.LVL0:
  25              	.LFB78:
  26              		.file 1 "Drivers/STM32F1xx_HAL_Driver/Src/stm32f1xx_hal_dma.c"
   1:Drivers/STM32F1xx_HAL_Driver/Src/stm32f1xx_hal_dma.c **** /**
   2:Drivers/STM32F1xx_HAL_Driver/Src/stm32f1xx_hal_dma.c ****   ******************************************************************************
   3:Drivers/STM32F1xx_HAL_Driver/Src/stm32f1xx_hal_dma.c ****   * @file    stm32f1xx_hal_dma.c
   4:Drivers/STM32F1xx_HAL_Driver/Src/stm32f1xx_hal_dma.c ****   * @author  MCD Application Team
   5:Drivers/STM32F1xx_HAL_Driver/Src/stm32f1xx_hal_dma.c ****   * @version V1.1.1
   6:Drivers/STM32F1xx_HAL_Driver/Src/stm32f1xx_hal_dma.c ****   * @date    12-May-2017
   7:Drivers/STM32F1xx_HAL_Driver/Src/stm32f1xx_hal_dma.c ****   * @brief   DMA HAL module driver.
   8:Drivers/STM32F1xx_HAL_Driver/Src/stm32f1xx_hal_dma.c ****   *         This file provides firmware functions to manage the following
   9:Drivers/STM32F1xx_HAL_Driver/Src/stm32f1xx_hal_dma.c ****   *         functionalities of the Direct Memory Access (DMA) peripheral:
  10:Drivers/STM32F1xx_HAL_Driver/Src/stm32f1xx_hal_dma.c ****   *           + Initialization and de-initialization functions
  11:Drivers/STM32F1xx_HAL_Driver/Src/stm32f1xx_hal_dma.c ****   *           + IO operation functions
  12:Drivers/STM32F1xx_HAL_Driver/Src/stm32f1xx_hal_dma.c ****   *           + Peripheral State and errors functions
  13:Drivers/STM32F1xx_HAL_Driver/Src/stm32f1xx_hal_dma.c ****   @verbatim
  14:Drivers/STM32F1xx_HAL_Driver/Src/stm32f1xx_hal_dma.c ****   ==============================================================================
  15:Drivers/STM32F1xx_HAL_Driver/Src/stm32f1xx_hal_dma.c ****                         ##### How to use this driver #####
  16:Drivers/STM32F1xx_HAL_Driver/Src/stm32f1xx_hal_dma.c ****   ==============================================================================
  17:Drivers/STM32F1xx_HAL_Driver/Src/stm32f1xx_hal_dma.c ****   [..]
  18:Drivers/STM32F1xx_HAL_Driver/Src/stm32f1xx_hal_dma.c ****    (#) Enable and configure the peripheral to be connected to the DMA Channel
  19:Drivers/STM32F1xx_HAL_Driver/Src/stm32f1xx_hal_dma.c ****        (except for internal SRAM / FLASH memories: no initialization is 
  20:Drivers/STM32F1xx_HAL_Driver/Src/stm32f1xx_hal_dma.c ****        necessary). Please refer to the Reference manual for connection between peripherals
  21:Drivers/STM32F1xx_HAL_Driver/Src/stm32f1xx_hal_dma.c ****        and DMA requests.
  22:Drivers/STM32F1xx_HAL_Driver/Src/stm32f1xx_hal_dma.c **** 
  23:Drivers/STM32F1xx_HAL_Driver/Src/stm32f1xx_hal_dma.c ****    (#) For a given Channel, program the required configuration through the following parameters:
  24:Drivers/STM32F1xx_HAL_Driver/Src/stm32f1xx_hal_dma.c ****        Channel request, Transfer Direction, Source and Destination data formats,
  25:Drivers/STM32F1xx_HAL_Driver/Src/stm32f1xx_hal_dma.c ****        Circular or Normal mode, Channel Priority level, Source and Destination Increment mode
  26:Drivers/STM32F1xx_HAL_Driver/Src/stm32f1xx_hal_dma.c ****        using HAL_DMA_Init() function.
  27:Drivers/STM32F1xx_HAL_Driver/Src/stm32f1xx_hal_dma.c **** 
  28:Drivers/STM32F1xx_HAL_Driver/Src/stm32f1xx_hal_dma.c ****    (#) Use HAL_DMA_GetState() function to return the DMA state and HAL_DMA_GetError() in case of er
  29:Drivers/STM32F1xx_HAL_Driver/Src/stm32f1xx_hal_dma.c ****        detection.
  30:Drivers/STM32F1xx_HAL_Driver/Src/stm32f1xx_hal_dma.c ****                     
  31:Drivers/STM32F1xx_HAL_Driver/Src/stm32f1xx_hal_dma.c ****    (#) Use HAL_DMA_Abort() function to abort the current transfer
  32:Drivers/STM32F1xx_HAL_Driver/Src/stm32f1xx_hal_dma.c ****                    
ARM GAS  /var/folders/2w/5wbrmvx534s_vk8svtxz852c0000gn/T//cccJC0NJ.s 			page 2


  33:Drivers/STM32F1xx_HAL_Driver/Src/stm32f1xx_hal_dma.c ****      -@-   In Memory-to-Memory transfer mode, Circular mode is not allowed.
  34:Drivers/STM32F1xx_HAL_Driver/Src/stm32f1xx_hal_dma.c ****      *** Polling mode IO operation ***
  35:Drivers/STM32F1xx_HAL_Driver/Src/stm32f1xx_hal_dma.c ****      =================================
  36:Drivers/STM32F1xx_HAL_Driver/Src/stm32f1xx_hal_dma.c ****     [..]
  37:Drivers/STM32F1xx_HAL_Driver/Src/stm32f1xx_hal_dma.c ****           (+) Use HAL_DMA_Start() to start DMA transfer after the configuration of Source
  38:Drivers/STM32F1xx_HAL_Driver/Src/stm32f1xx_hal_dma.c ****               address and destination address and the Length of data to be transferred
  39:Drivers/STM32F1xx_HAL_Driver/Src/stm32f1xx_hal_dma.c ****           (+) Use HAL_DMA_PollForTransfer() to poll for the end of current transfer, in this
  40:Drivers/STM32F1xx_HAL_Driver/Src/stm32f1xx_hal_dma.c ****               case a fixed Timeout can be configured by User depending from his application.
  41:Drivers/STM32F1xx_HAL_Driver/Src/stm32f1xx_hal_dma.c **** 
  42:Drivers/STM32F1xx_HAL_Driver/Src/stm32f1xx_hal_dma.c ****      *** Interrupt mode IO operation ***
  43:Drivers/STM32F1xx_HAL_Driver/Src/stm32f1xx_hal_dma.c ****      ===================================
  44:Drivers/STM32F1xx_HAL_Driver/Src/stm32f1xx_hal_dma.c ****     [..]
  45:Drivers/STM32F1xx_HAL_Driver/Src/stm32f1xx_hal_dma.c ****           (+) Configure the DMA interrupt priority using HAL_NVIC_SetPriority()
  46:Drivers/STM32F1xx_HAL_Driver/Src/stm32f1xx_hal_dma.c ****           (+) Enable the DMA IRQ handler using HAL_NVIC_EnableIRQ()
  47:Drivers/STM32F1xx_HAL_Driver/Src/stm32f1xx_hal_dma.c ****           (+) Use HAL_DMA_Start_IT() to start DMA transfer after the configuration of
  48:Drivers/STM32F1xx_HAL_Driver/Src/stm32f1xx_hal_dma.c ****               Source address and destination address and the Length of data to be transferred.
  49:Drivers/STM32F1xx_HAL_Driver/Src/stm32f1xx_hal_dma.c ****               In this case the DMA interrupt is configured
  50:Drivers/STM32F1xx_HAL_Driver/Src/stm32f1xx_hal_dma.c ****           (+) Use HAL_DMA_IRQHandler() called under DMA_IRQHandler() Interrupt subroutine
  51:Drivers/STM32F1xx_HAL_Driver/Src/stm32f1xx_hal_dma.c ****           (+) At the end of data transfer HAL_DMA_IRQHandler() function is executed and user can
  52:Drivers/STM32F1xx_HAL_Driver/Src/stm32f1xx_hal_dma.c ****               add his own function by customization of function pointer XferCpltCallback and
  53:Drivers/STM32F1xx_HAL_Driver/Src/stm32f1xx_hal_dma.c ****               XferErrorCallback (i.e. a member of DMA handle structure).
  54:Drivers/STM32F1xx_HAL_Driver/Src/stm32f1xx_hal_dma.c **** 
  55:Drivers/STM32F1xx_HAL_Driver/Src/stm32f1xx_hal_dma.c ****      *** DMA HAL driver macros list ***
  56:Drivers/STM32F1xx_HAL_Driver/Src/stm32f1xx_hal_dma.c ****      ============================================= 
  57:Drivers/STM32F1xx_HAL_Driver/Src/stm32f1xx_hal_dma.c ****       [..]
  58:Drivers/STM32F1xx_HAL_Driver/Src/stm32f1xx_hal_dma.c ****        Below the list of most used macros in DMA HAL driver.
  59:Drivers/STM32F1xx_HAL_Driver/Src/stm32f1xx_hal_dma.c **** 
  60:Drivers/STM32F1xx_HAL_Driver/Src/stm32f1xx_hal_dma.c ****        (+) __HAL_DMA_ENABLE: Enable the specified DMA Channel.
  61:Drivers/STM32F1xx_HAL_Driver/Src/stm32f1xx_hal_dma.c ****        (+) __HAL_DMA_DISABLE: Disable the specified DMA Channel.
  62:Drivers/STM32F1xx_HAL_Driver/Src/stm32f1xx_hal_dma.c ****        (+) __HAL_DMA_GET_FLAG: Get the DMA Channel pending flags.
  63:Drivers/STM32F1xx_HAL_Driver/Src/stm32f1xx_hal_dma.c ****        (+) __HAL_DMA_CLEAR_FLAG: Clear the DMA Channel pending flags.
  64:Drivers/STM32F1xx_HAL_Driver/Src/stm32f1xx_hal_dma.c ****        (+) __HAL_DMA_ENABLE_IT: Enable the specified DMA Channel interrupts.
  65:Drivers/STM32F1xx_HAL_Driver/Src/stm32f1xx_hal_dma.c ****        (+) __HAL_DMA_DISABLE_IT: Disable the specified DMA Channel interrupts.
  66:Drivers/STM32F1xx_HAL_Driver/Src/stm32f1xx_hal_dma.c ****        (+) __HAL_DMA_GET_IT_SOURCE: Check whether the specified DMA Channel interrupt has occurred 
  67:Drivers/STM32F1xx_HAL_Driver/Src/stm32f1xx_hal_dma.c **** 
  68:Drivers/STM32F1xx_HAL_Driver/Src/stm32f1xx_hal_dma.c ****      [..] 
  69:Drivers/STM32F1xx_HAL_Driver/Src/stm32f1xx_hal_dma.c ****       (@) You can refer to the DMA HAL driver header file for more useful macros  
  70:Drivers/STM32F1xx_HAL_Driver/Src/stm32f1xx_hal_dma.c **** 
  71:Drivers/STM32F1xx_HAL_Driver/Src/stm32f1xx_hal_dma.c ****   @endverbatim
  72:Drivers/STM32F1xx_HAL_Driver/Src/stm32f1xx_hal_dma.c ****   ******************************************************************************
  73:Drivers/STM32F1xx_HAL_Driver/Src/stm32f1xx_hal_dma.c ****   * @attention
  74:Drivers/STM32F1xx_HAL_Driver/Src/stm32f1xx_hal_dma.c ****   *
  75:Drivers/STM32F1xx_HAL_Driver/Src/stm32f1xx_hal_dma.c ****   * <h2><center>&copy; COPYRIGHT(c) 2017 STMicroelectronics</center></h2>
  76:Drivers/STM32F1xx_HAL_Driver/Src/stm32f1xx_hal_dma.c ****   *
  77:Drivers/STM32F1xx_HAL_Driver/Src/stm32f1xx_hal_dma.c ****   * Redistribution and use in source and binary forms, with or without modification,
  78:Drivers/STM32F1xx_HAL_Driver/Src/stm32f1xx_hal_dma.c ****   * are permitted provided that the following conditions are met:
  79:Drivers/STM32F1xx_HAL_Driver/Src/stm32f1xx_hal_dma.c ****   *   1. Redistributions of source code must retain the above copyright notice,
  80:Drivers/STM32F1xx_HAL_Driver/Src/stm32f1xx_hal_dma.c ****   *      this list of conditions and the following disclaimer.
  81:Drivers/STM32F1xx_HAL_Driver/Src/stm32f1xx_hal_dma.c ****   *   2. Redistributions in binary form must reproduce the above copyright notice,
  82:Drivers/STM32F1xx_HAL_Driver/Src/stm32f1xx_hal_dma.c ****   *      this list of conditions and the following disclaimer in the documentation
  83:Drivers/STM32F1xx_HAL_Driver/Src/stm32f1xx_hal_dma.c ****   *      and/or other materials provided with the distribution.
  84:Drivers/STM32F1xx_HAL_Driver/Src/stm32f1xx_hal_dma.c ****   *   3. Neither the name of STMicroelectronics nor the names of its contributors
  85:Drivers/STM32F1xx_HAL_Driver/Src/stm32f1xx_hal_dma.c ****   *      may be used to endorse or promote products derived from this software
  86:Drivers/STM32F1xx_HAL_Driver/Src/stm32f1xx_hal_dma.c ****   *      without specific prior written permission.
  87:Drivers/STM32F1xx_HAL_Driver/Src/stm32f1xx_hal_dma.c ****   *
  88:Drivers/STM32F1xx_HAL_Driver/Src/stm32f1xx_hal_dma.c ****   * THIS SOFTWARE IS PROVIDED BY THE COPYRIGHT HOLDERS AND CONTRIBUTORS "AS IS"
  89:Drivers/STM32F1xx_HAL_Driver/Src/stm32f1xx_hal_dma.c ****   * AND ANY EXPRESS OR IMPLIED WARRANTIES, INCLUDING, BUT NOT LIMITED TO, THE
ARM GAS  /var/folders/2w/5wbrmvx534s_vk8svtxz852c0000gn/T//cccJC0NJ.s 			page 3


  90:Drivers/STM32F1xx_HAL_Driver/Src/stm32f1xx_hal_dma.c ****   * IMPLIED WARRANTIES OF MERCHANTABILITY AND FITNESS FOR A PARTICULAR PURPOSE ARE
  91:Drivers/STM32F1xx_HAL_Driver/Src/stm32f1xx_hal_dma.c ****   * DISCLAIMED. IN NO EVENT SHALL THE COPYRIGHT HOLDER OR CONTRIBUTORS BE LIABLE
  92:Drivers/STM32F1xx_HAL_Driver/Src/stm32f1xx_hal_dma.c ****   * FOR ANY DIRECT, INDIRECT, INCIDENTAL, SPECIAL, EXEMPLARY, OR CONSEQUENTIAL
  93:Drivers/STM32F1xx_HAL_Driver/Src/stm32f1xx_hal_dma.c ****   * DAMAGES (INCLUDING, BUT NOT LIMITED TO, PROCUREMENT OF SUBSTITUTE GOODS OR
  94:Drivers/STM32F1xx_HAL_Driver/Src/stm32f1xx_hal_dma.c ****   * SERVICES; LOSS OF USE, DATA, OR PROFITS; OR BUSINESS INTERRUPTION) HOWEVER
  95:Drivers/STM32F1xx_HAL_Driver/Src/stm32f1xx_hal_dma.c ****   * CAUSED AND ON ANY THEORY OF LIABILITY, WHETHER IN CONTRACT, STRICT LIABILITY,
  96:Drivers/STM32F1xx_HAL_Driver/Src/stm32f1xx_hal_dma.c ****   * OR TORT (INCLUDING NEGLIGENCE OR OTHERWISE) ARISING IN ANY WAY OUT OF THE USE
  97:Drivers/STM32F1xx_HAL_Driver/Src/stm32f1xx_hal_dma.c ****   * OF THIS SOFTWARE, EVEN IF ADVISED OF THE POSSIBILITY OF SUCH DAMAGE.
  98:Drivers/STM32F1xx_HAL_Driver/Src/stm32f1xx_hal_dma.c ****   *
  99:Drivers/STM32F1xx_HAL_Driver/Src/stm32f1xx_hal_dma.c ****   ******************************************************************************
 100:Drivers/STM32F1xx_HAL_Driver/Src/stm32f1xx_hal_dma.c ****   */
 101:Drivers/STM32F1xx_HAL_Driver/Src/stm32f1xx_hal_dma.c **** 
 102:Drivers/STM32F1xx_HAL_Driver/Src/stm32f1xx_hal_dma.c **** /* Includes ------------------------------------------------------------------*/
 103:Drivers/STM32F1xx_HAL_Driver/Src/stm32f1xx_hal_dma.c **** #include "stm32f1xx_hal.h"
 104:Drivers/STM32F1xx_HAL_Driver/Src/stm32f1xx_hal_dma.c **** 
 105:Drivers/STM32F1xx_HAL_Driver/Src/stm32f1xx_hal_dma.c **** /** @addtogroup STM32F1xx_HAL_Driver
 106:Drivers/STM32F1xx_HAL_Driver/Src/stm32f1xx_hal_dma.c ****   * @{
 107:Drivers/STM32F1xx_HAL_Driver/Src/stm32f1xx_hal_dma.c ****   */
 108:Drivers/STM32F1xx_HAL_Driver/Src/stm32f1xx_hal_dma.c **** 
 109:Drivers/STM32F1xx_HAL_Driver/Src/stm32f1xx_hal_dma.c **** /** @defgroup DMA DMA
 110:Drivers/STM32F1xx_HAL_Driver/Src/stm32f1xx_hal_dma.c ****   * @brief DMA HAL module driver
 111:Drivers/STM32F1xx_HAL_Driver/Src/stm32f1xx_hal_dma.c ****   * @{
 112:Drivers/STM32F1xx_HAL_Driver/Src/stm32f1xx_hal_dma.c ****   */
 113:Drivers/STM32F1xx_HAL_Driver/Src/stm32f1xx_hal_dma.c **** 
 114:Drivers/STM32F1xx_HAL_Driver/Src/stm32f1xx_hal_dma.c **** #ifdef HAL_DMA_MODULE_ENABLED
 115:Drivers/STM32F1xx_HAL_Driver/Src/stm32f1xx_hal_dma.c **** 
 116:Drivers/STM32F1xx_HAL_Driver/Src/stm32f1xx_hal_dma.c **** /* Private typedef -----------------------------------------------------------*/
 117:Drivers/STM32F1xx_HAL_Driver/Src/stm32f1xx_hal_dma.c **** /* Private define ------------------------------------------------------------*/
 118:Drivers/STM32F1xx_HAL_Driver/Src/stm32f1xx_hal_dma.c **** /* Private macro -------------------------------------------------------------*/
 119:Drivers/STM32F1xx_HAL_Driver/Src/stm32f1xx_hal_dma.c **** /* Private variables ---------------------------------------------------------*/
 120:Drivers/STM32F1xx_HAL_Driver/Src/stm32f1xx_hal_dma.c **** /* Private function prototypes -----------------------------------------------*/
 121:Drivers/STM32F1xx_HAL_Driver/Src/stm32f1xx_hal_dma.c **** /** @defgroup DMA_Private_Functions DMA Private Functions
 122:Drivers/STM32F1xx_HAL_Driver/Src/stm32f1xx_hal_dma.c ****   * @{
 123:Drivers/STM32F1xx_HAL_Driver/Src/stm32f1xx_hal_dma.c ****   */
 124:Drivers/STM32F1xx_HAL_Driver/Src/stm32f1xx_hal_dma.c **** static void DMA_SetConfig(DMA_HandleTypeDef *hdma, uint32_t SrcAddress, uint32_t DstAddress, uint32
 125:Drivers/STM32F1xx_HAL_Driver/Src/stm32f1xx_hal_dma.c **** /**
 126:Drivers/STM32F1xx_HAL_Driver/Src/stm32f1xx_hal_dma.c ****   * @}
 127:Drivers/STM32F1xx_HAL_Driver/Src/stm32f1xx_hal_dma.c ****   */
 128:Drivers/STM32F1xx_HAL_Driver/Src/stm32f1xx_hal_dma.c **** 
 129:Drivers/STM32F1xx_HAL_Driver/Src/stm32f1xx_hal_dma.c **** /* Exported functions ---------------------------------------------------------*/
 130:Drivers/STM32F1xx_HAL_Driver/Src/stm32f1xx_hal_dma.c **** 
 131:Drivers/STM32F1xx_HAL_Driver/Src/stm32f1xx_hal_dma.c **** /** @defgroup DMA_Exported_Functions DMA Exported Functions
 132:Drivers/STM32F1xx_HAL_Driver/Src/stm32f1xx_hal_dma.c ****   * @{
 133:Drivers/STM32F1xx_HAL_Driver/Src/stm32f1xx_hal_dma.c ****   */
 134:Drivers/STM32F1xx_HAL_Driver/Src/stm32f1xx_hal_dma.c **** 
 135:Drivers/STM32F1xx_HAL_Driver/Src/stm32f1xx_hal_dma.c **** /** @defgroup DMA_Exported_Functions_Group1 Initialization and de-initialization functions
 136:Drivers/STM32F1xx_HAL_Driver/Src/stm32f1xx_hal_dma.c ****   *  @brief   Initialization and de-initialization functions 
 137:Drivers/STM32F1xx_HAL_Driver/Src/stm32f1xx_hal_dma.c ****   *
 138:Drivers/STM32F1xx_HAL_Driver/Src/stm32f1xx_hal_dma.c **** @verbatim
 139:Drivers/STM32F1xx_HAL_Driver/Src/stm32f1xx_hal_dma.c ****  ===============================================================================
 140:Drivers/STM32F1xx_HAL_Driver/Src/stm32f1xx_hal_dma.c ****              ##### Initialization and de-initialization functions  #####
 141:Drivers/STM32F1xx_HAL_Driver/Src/stm32f1xx_hal_dma.c ****  ===============================================================================
 142:Drivers/STM32F1xx_HAL_Driver/Src/stm32f1xx_hal_dma.c ****     [..]
 143:Drivers/STM32F1xx_HAL_Driver/Src/stm32f1xx_hal_dma.c ****     This section provides functions allowing to initialize the DMA Channel source
 144:Drivers/STM32F1xx_HAL_Driver/Src/stm32f1xx_hal_dma.c ****     and destination addresses, incrementation and data sizes, transfer direction, 
 145:Drivers/STM32F1xx_HAL_Driver/Src/stm32f1xx_hal_dma.c ****     circular/normal mode selection, memory-to-memory mode selection and Channel priority value.
 146:Drivers/STM32F1xx_HAL_Driver/Src/stm32f1xx_hal_dma.c ****     [..]
ARM GAS  /var/folders/2w/5wbrmvx534s_vk8svtxz852c0000gn/T//cccJC0NJ.s 			page 4


 147:Drivers/STM32F1xx_HAL_Driver/Src/stm32f1xx_hal_dma.c ****     The HAL_DMA_Init() function follows the DMA configuration procedures as described in
 148:Drivers/STM32F1xx_HAL_Driver/Src/stm32f1xx_hal_dma.c ****     reference manual.  
 149:Drivers/STM32F1xx_HAL_Driver/Src/stm32f1xx_hal_dma.c **** 
 150:Drivers/STM32F1xx_HAL_Driver/Src/stm32f1xx_hal_dma.c **** @endverbatim
 151:Drivers/STM32F1xx_HAL_Driver/Src/stm32f1xx_hal_dma.c ****   * @{
 152:Drivers/STM32F1xx_HAL_Driver/Src/stm32f1xx_hal_dma.c ****   */
 153:Drivers/STM32F1xx_HAL_Driver/Src/stm32f1xx_hal_dma.c **** 
 154:Drivers/STM32F1xx_HAL_Driver/Src/stm32f1xx_hal_dma.c **** /**
 155:Drivers/STM32F1xx_HAL_Driver/Src/stm32f1xx_hal_dma.c ****   * @brief  Initialize the DMA according to the specified
 156:Drivers/STM32F1xx_HAL_Driver/Src/stm32f1xx_hal_dma.c ****   *         parameters in the DMA_InitTypeDef and initialize the associated handle.
 157:Drivers/STM32F1xx_HAL_Driver/Src/stm32f1xx_hal_dma.c ****   * @param  hdma: Pointer to a DMA_HandleTypeDef structure that contains
 158:Drivers/STM32F1xx_HAL_Driver/Src/stm32f1xx_hal_dma.c ****   *               the configuration information for the specified DMA Channel.
 159:Drivers/STM32F1xx_HAL_Driver/Src/stm32f1xx_hal_dma.c ****   * @retval HAL status
 160:Drivers/STM32F1xx_HAL_Driver/Src/stm32f1xx_hal_dma.c ****   */
 161:Drivers/STM32F1xx_HAL_Driver/Src/stm32f1xx_hal_dma.c **** HAL_StatusTypeDef HAL_DMA_Init(DMA_HandleTypeDef *hdma)
 162:Drivers/STM32F1xx_HAL_Driver/Src/stm32f1xx_hal_dma.c **** {
 163:Drivers/STM32F1xx_HAL_Driver/Src/stm32f1xx_hal_dma.c ****   uint32_t tmp = 0U;
 164:Drivers/STM32F1xx_HAL_Driver/Src/stm32f1xx_hal_dma.c **** 
 165:Drivers/STM32F1xx_HAL_Driver/Src/stm32f1xx_hal_dma.c ****   /* Check the DMA handle allocation */
 166:Drivers/STM32F1xx_HAL_Driver/Src/stm32f1xx_hal_dma.c ****   if(hdma == NULL)
 167:Drivers/STM32F1xx_HAL_Driver/Src/stm32f1xx_hal_dma.c ****   {
 168:Drivers/STM32F1xx_HAL_Driver/Src/stm32f1xx_hal_dma.c ****     return HAL_ERROR;
 169:Drivers/STM32F1xx_HAL_Driver/Src/stm32f1xx_hal_dma.c ****   }
 170:Drivers/STM32F1xx_HAL_Driver/Src/stm32f1xx_hal_dma.c **** 
 171:Drivers/STM32F1xx_HAL_Driver/Src/stm32f1xx_hal_dma.c ****   /* Check the parameters */
 172:Drivers/STM32F1xx_HAL_Driver/Src/stm32f1xx_hal_dma.c ****   assert_param(IS_DMA_ALL_INSTANCE(hdma->Instance));
 173:Drivers/STM32F1xx_HAL_Driver/Src/stm32f1xx_hal_dma.c ****   assert_param(IS_DMA_DIRECTION(hdma->Init.Direction));
 174:Drivers/STM32F1xx_HAL_Driver/Src/stm32f1xx_hal_dma.c ****   assert_param(IS_DMA_PERIPHERAL_INC_STATE(hdma->Init.PeriphInc));
 175:Drivers/STM32F1xx_HAL_Driver/Src/stm32f1xx_hal_dma.c ****   assert_param(IS_DMA_MEMORY_INC_STATE(hdma->Init.MemInc));
 176:Drivers/STM32F1xx_HAL_Driver/Src/stm32f1xx_hal_dma.c ****   assert_param(IS_DMA_PERIPHERAL_DATA_SIZE(hdma->Init.PeriphDataAlignment));
 177:Drivers/STM32F1xx_HAL_Driver/Src/stm32f1xx_hal_dma.c ****   assert_param(IS_DMA_MEMORY_DATA_SIZE(hdma->Init.MemDataAlignment));
 178:Drivers/STM32F1xx_HAL_Driver/Src/stm32f1xx_hal_dma.c ****   assert_param(IS_DMA_MODE(hdma->Init.Mode));
 179:Drivers/STM32F1xx_HAL_Driver/Src/stm32f1xx_hal_dma.c ****   assert_param(IS_DMA_PRIORITY(hdma->Init.Priority));
 180:Drivers/STM32F1xx_HAL_Driver/Src/stm32f1xx_hal_dma.c **** 
 181:Drivers/STM32F1xx_HAL_Driver/Src/stm32f1xx_hal_dma.c **** #if defined (STM32F101xE) || defined (STM32F101xG) || defined (STM32F103xE) || defined (STM32F103xG
 182:Drivers/STM32F1xx_HAL_Driver/Src/stm32f1xx_hal_dma.c ****   /* calculation of the channel index */
 183:Drivers/STM32F1xx_HAL_Driver/Src/stm32f1xx_hal_dma.c ****   if ((uint32_t)(hdma->Instance) < (uint32_t)(DMA2_Channel1))
 184:Drivers/STM32F1xx_HAL_Driver/Src/stm32f1xx_hal_dma.c ****   {
 185:Drivers/STM32F1xx_HAL_Driver/Src/stm32f1xx_hal_dma.c ****     /* DMA1 */
 186:Drivers/STM32F1xx_HAL_Driver/Src/stm32f1xx_hal_dma.c ****     hdma->ChannelIndex = (((uint32_t)hdma->Instance - (uint32_t)DMA1_Channel1) / ((uint32_t)DMA1_Ch
 187:Drivers/STM32F1xx_HAL_Driver/Src/stm32f1xx_hal_dma.c ****     hdma->DmaBaseAddress = DMA1;
 188:Drivers/STM32F1xx_HAL_Driver/Src/stm32f1xx_hal_dma.c ****   }
 189:Drivers/STM32F1xx_HAL_Driver/Src/stm32f1xx_hal_dma.c ****   else 
 190:Drivers/STM32F1xx_HAL_Driver/Src/stm32f1xx_hal_dma.c ****   {
 191:Drivers/STM32F1xx_HAL_Driver/Src/stm32f1xx_hal_dma.c ****     /* DMA2 */
 192:Drivers/STM32F1xx_HAL_Driver/Src/stm32f1xx_hal_dma.c ****     hdma->ChannelIndex = (((uint32_t)hdma->Instance - (uint32_t)DMA2_Channel1) / ((uint32_t)DMA2_Ch
 193:Drivers/STM32F1xx_HAL_Driver/Src/stm32f1xx_hal_dma.c ****     hdma->DmaBaseAddress = DMA2;
 194:Drivers/STM32F1xx_HAL_Driver/Src/stm32f1xx_hal_dma.c ****   }
 195:Drivers/STM32F1xx_HAL_Driver/Src/stm32f1xx_hal_dma.c **** #else
 196:Drivers/STM32F1xx_HAL_Driver/Src/stm32f1xx_hal_dma.c ****   /* DMA1 */
 197:Drivers/STM32F1xx_HAL_Driver/Src/stm32f1xx_hal_dma.c ****   hdma->ChannelIndex = (((uint32_t)hdma->Instance - (uint32_t)DMA1_Channel1) / ((uint32_t)DMA1_Chan
 198:Drivers/STM32F1xx_HAL_Driver/Src/stm32f1xx_hal_dma.c ****   hdma->DmaBaseAddress = DMA1;
 199:Drivers/STM32F1xx_HAL_Driver/Src/stm32f1xx_hal_dma.c **** #endif /* STM32F101xE || STM32F101xG || STM32F103xE || STM32F103xG || STM32F100xE || STM32F105xC ||
 200:Drivers/STM32F1xx_HAL_Driver/Src/stm32f1xx_hal_dma.c **** 
 201:Drivers/STM32F1xx_HAL_Driver/Src/stm32f1xx_hal_dma.c ****   /* Change DMA peripheral state */
 202:Drivers/STM32F1xx_HAL_Driver/Src/stm32f1xx_hal_dma.c ****   hdma->State = HAL_DMA_STATE_BUSY;
 203:Drivers/STM32F1xx_HAL_Driver/Src/stm32f1xx_hal_dma.c **** 
ARM GAS  /var/folders/2w/5wbrmvx534s_vk8svtxz852c0000gn/T//cccJC0NJ.s 			page 5


 204:Drivers/STM32F1xx_HAL_Driver/Src/stm32f1xx_hal_dma.c ****   /* Get the CR register value */
 205:Drivers/STM32F1xx_HAL_Driver/Src/stm32f1xx_hal_dma.c ****   tmp = hdma->Instance->CCR;
 206:Drivers/STM32F1xx_HAL_Driver/Src/stm32f1xx_hal_dma.c **** 
 207:Drivers/STM32F1xx_HAL_Driver/Src/stm32f1xx_hal_dma.c ****   /* Clear PL, MSIZE, PSIZE, MINC, PINC, CIRC and DIR bits */
 208:Drivers/STM32F1xx_HAL_Driver/Src/stm32f1xx_hal_dma.c ****   tmp &= ((uint32_t)~(DMA_CCR_PL    | DMA_CCR_MSIZE  | DMA_CCR_PSIZE  | \
 209:Drivers/STM32F1xx_HAL_Driver/Src/stm32f1xx_hal_dma.c ****                       DMA_CCR_MINC  | DMA_CCR_PINC   | DMA_CCR_CIRC   | \
 210:Drivers/STM32F1xx_HAL_Driver/Src/stm32f1xx_hal_dma.c ****                       DMA_CCR_DIR));
 211:Drivers/STM32F1xx_HAL_Driver/Src/stm32f1xx_hal_dma.c **** 
 212:Drivers/STM32F1xx_HAL_Driver/Src/stm32f1xx_hal_dma.c ****   /* Prepare the DMA Channel configuration */
 213:Drivers/STM32F1xx_HAL_Driver/Src/stm32f1xx_hal_dma.c ****   tmp |=  hdma->Init.Direction        |
 214:Drivers/STM32F1xx_HAL_Driver/Src/stm32f1xx_hal_dma.c ****           hdma->Init.PeriphInc           | hdma->Init.MemInc           |
 215:Drivers/STM32F1xx_HAL_Driver/Src/stm32f1xx_hal_dma.c ****           hdma->Init.PeriphDataAlignment | hdma->Init.MemDataAlignment |
 216:Drivers/STM32F1xx_HAL_Driver/Src/stm32f1xx_hal_dma.c ****           hdma->Init.Mode                | hdma->Init.Priority;
 217:Drivers/STM32F1xx_HAL_Driver/Src/stm32f1xx_hal_dma.c **** 
 218:Drivers/STM32F1xx_HAL_Driver/Src/stm32f1xx_hal_dma.c ****   /* Write to DMA Channel CR register */
 219:Drivers/STM32F1xx_HAL_Driver/Src/stm32f1xx_hal_dma.c ****   hdma->Instance->CCR = tmp;
 220:Drivers/STM32F1xx_HAL_Driver/Src/stm32f1xx_hal_dma.c **** 
 221:Drivers/STM32F1xx_HAL_Driver/Src/stm32f1xx_hal_dma.c **** 
 222:Drivers/STM32F1xx_HAL_Driver/Src/stm32f1xx_hal_dma.c ****   /* Clean callbacks */
 223:Drivers/STM32F1xx_HAL_Driver/Src/stm32f1xx_hal_dma.c ****   hdma->XferCpltCallback = NULL;
 224:Drivers/STM32F1xx_HAL_Driver/Src/stm32f1xx_hal_dma.c ****   hdma->XferHalfCpltCallback = NULL;
 225:Drivers/STM32F1xx_HAL_Driver/Src/stm32f1xx_hal_dma.c ****   hdma->XferErrorCallback = NULL;
 226:Drivers/STM32F1xx_HAL_Driver/Src/stm32f1xx_hal_dma.c ****   hdma->XferAbortCallback = NULL;
 227:Drivers/STM32F1xx_HAL_Driver/Src/stm32f1xx_hal_dma.c **** 
 228:Drivers/STM32F1xx_HAL_Driver/Src/stm32f1xx_hal_dma.c ****   /* Initialise the error code */
 229:Drivers/STM32F1xx_HAL_Driver/Src/stm32f1xx_hal_dma.c ****   hdma->ErrorCode = HAL_DMA_ERROR_NONE;
 230:Drivers/STM32F1xx_HAL_Driver/Src/stm32f1xx_hal_dma.c **** 
 231:Drivers/STM32F1xx_HAL_Driver/Src/stm32f1xx_hal_dma.c ****   /* Initialize the DMA state*/
 232:Drivers/STM32F1xx_HAL_Driver/Src/stm32f1xx_hal_dma.c ****   hdma->State = HAL_DMA_STATE_READY;
 233:Drivers/STM32F1xx_HAL_Driver/Src/stm32f1xx_hal_dma.c ****   /* Allocate lock resource and initialize it */
 234:Drivers/STM32F1xx_HAL_Driver/Src/stm32f1xx_hal_dma.c ****   hdma->Lock = HAL_UNLOCKED;
 235:Drivers/STM32F1xx_HAL_Driver/Src/stm32f1xx_hal_dma.c ****   
 236:Drivers/STM32F1xx_HAL_Driver/Src/stm32f1xx_hal_dma.c ****   return HAL_OK;
 237:Drivers/STM32F1xx_HAL_Driver/Src/stm32f1xx_hal_dma.c **** }
 238:Drivers/STM32F1xx_HAL_Driver/Src/stm32f1xx_hal_dma.c **** 
 239:Drivers/STM32F1xx_HAL_Driver/Src/stm32f1xx_hal_dma.c **** /**
 240:Drivers/STM32F1xx_HAL_Driver/Src/stm32f1xx_hal_dma.c ****   * @brief  DeInitialize the DMA peripheral.
 241:Drivers/STM32F1xx_HAL_Driver/Src/stm32f1xx_hal_dma.c ****   * @param  hdma: pointer to a DMA_HandleTypeDef structure that contains
 242:Drivers/STM32F1xx_HAL_Driver/Src/stm32f1xx_hal_dma.c ****   *               the configuration information for the specified DMA Channel.
 243:Drivers/STM32F1xx_HAL_Driver/Src/stm32f1xx_hal_dma.c ****   * @retval HAL status
 244:Drivers/STM32F1xx_HAL_Driver/Src/stm32f1xx_hal_dma.c ****   */
 245:Drivers/STM32F1xx_HAL_Driver/Src/stm32f1xx_hal_dma.c **** HAL_StatusTypeDef HAL_DMA_DeInit(DMA_HandleTypeDef *hdma)
 246:Drivers/STM32F1xx_HAL_Driver/Src/stm32f1xx_hal_dma.c **** {
 247:Drivers/STM32F1xx_HAL_Driver/Src/stm32f1xx_hal_dma.c ****   /* Check the DMA handle allocation */
 248:Drivers/STM32F1xx_HAL_Driver/Src/stm32f1xx_hal_dma.c ****   if(hdma == NULL)
 249:Drivers/STM32F1xx_HAL_Driver/Src/stm32f1xx_hal_dma.c ****   {
 250:Drivers/STM32F1xx_HAL_Driver/Src/stm32f1xx_hal_dma.c ****     return HAL_ERROR;
 251:Drivers/STM32F1xx_HAL_Driver/Src/stm32f1xx_hal_dma.c ****   }
 252:Drivers/STM32F1xx_HAL_Driver/Src/stm32f1xx_hal_dma.c **** 
 253:Drivers/STM32F1xx_HAL_Driver/Src/stm32f1xx_hal_dma.c ****   /* Check the parameters */
 254:Drivers/STM32F1xx_HAL_Driver/Src/stm32f1xx_hal_dma.c ****   assert_param(IS_DMA_ALL_INSTANCE(hdma->Instance));
 255:Drivers/STM32F1xx_HAL_Driver/Src/stm32f1xx_hal_dma.c **** 
 256:Drivers/STM32F1xx_HAL_Driver/Src/stm32f1xx_hal_dma.c ****   /* Disable the selected DMA Channelx */
 257:Drivers/STM32F1xx_HAL_Driver/Src/stm32f1xx_hal_dma.c ****   __HAL_DMA_DISABLE(hdma);
 258:Drivers/STM32F1xx_HAL_Driver/Src/stm32f1xx_hal_dma.c **** 
 259:Drivers/STM32F1xx_HAL_Driver/Src/stm32f1xx_hal_dma.c ****   /* Reset DMA Channel control register */
 260:Drivers/STM32F1xx_HAL_Driver/Src/stm32f1xx_hal_dma.c ****   hdma->Instance->CCR  = 0U;
ARM GAS  /var/folders/2w/5wbrmvx534s_vk8svtxz852c0000gn/T//cccJC0NJ.s 			page 6


 261:Drivers/STM32F1xx_HAL_Driver/Src/stm32f1xx_hal_dma.c **** 
 262:Drivers/STM32F1xx_HAL_Driver/Src/stm32f1xx_hal_dma.c ****   /* Reset DMA Channel Number of Data to Transfer register */
 263:Drivers/STM32F1xx_HAL_Driver/Src/stm32f1xx_hal_dma.c ****   hdma->Instance->CNDTR = 0U;
 264:Drivers/STM32F1xx_HAL_Driver/Src/stm32f1xx_hal_dma.c **** 
 265:Drivers/STM32F1xx_HAL_Driver/Src/stm32f1xx_hal_dma.c ****   /* Reset DMA Channel peripheral address register */
 266:Drivers/STM32F1xx_HAL_Driver/Src/stm32f1xx_hal_dma.c ****   hdma->Instance->CPAR  = 0U;
 267:Drivers/STM32F1xx_HAL_Driver/Src/stm32f1xx_hal_dma.c **** 
 268:Drivers/STM32F1xx_HAL_Driver/Src/stm32f1xx_hal_dma.c ****   /* Reset DMA Channel memory address register */
 269:Drivers/STM32F1xx_HAL_Driver/Src/stm32f1xx_hal_dma.c ****   hdma->Instance->CMAR = 0U;
 270:Drivers/STM32F1xx_HAL_Driver/Src/stm32f1xx_hal_dma.c **** 
 271:Drivers/STM32F1xx_HAL_Driver/Src/stm32f1xx_hal_dma.c **** #if defined (STM32F101xE) || defined (STM32F101xG) || defined (STM32F103xE) || defined (STM32F103xG
 272:Drivers/STM32F1xx_HAL_Driver/Src/stm32f1xx_hal_dma.c ****   /* calculation of the channel index */
 273:Drivers/STM32F1xx_HAL_Driver/Src/stm32f1xx_hal_dma.c ****   if ((uint32_t)(hdma->Instance) < (uint32_t)(DMA2_Channel1))
 274:Drivers/STM32F1xx_HAL_Driver/Src/stm32f1xx_hal_dma.c ****   {
 275:Drivers/STM32F1xx_HAL_Driver/Src/stm32f1xx_hal_dma.c ****     /* DMA1 */
 276:Drivers/STM32F1xx_HAL_Driver/Src/stm32f1xx_hal_dma.c ****     hdma->ChannelIndex = (((uint32_t)hdma->Instance - (uint32_t)DMA1_Channel1) / ((uint32_t)DMA1_Ch
 277:Drivers/STM32F1xx_HAL_Driver/Src/stm32f1xx_hal_dma.c ****     hdma->DmaBaseAddress = DMA1;
 278:Drivers/STM32F1xx_HAL_Driver/Src/stm32f1xx_hal_dma.c ****   }
 279:Drivers/STM32F1xx_HAL_Driver/Src/stm32f1xx_hal_dma.c ****   else 
 280:Drivers/STM32F1xx_HAL_Driver/Src/stm32f1xx_hal_dma.c ****   {
 281:Drivers/STM32F1xx_HAL_Driver/Src/stm32f1xx_hal_dma.c ****     /* DMA2 */
 282:Drivers/STM32F1xx_HAL_Driver/Src/stm32f1xx_hal_dma.c ****     hdma->ChannelIndex = (((uint32_t)hdma->Instance - (uint32_t)DMA2_Channel1) / ((uint32_t)DMA2_Ch
 283:Drivers/STM32F1xx_HAL_Driver/Src/stm32f1xx_hal_dma.c ****     hdma->DmaBaseAddress = DMA2;
 284:Drivers/STM32F1xx_HAL_Driver/Src/stm32f1xx_hal_dma.c ****   }
 285:Drivers/STM32F1xx_HAL_Driver/Src/stm32f1xx_hal_dma.c **** #else
 286:Drivers/STM32F1xx_HAL_Driver/Src/stm32f1xx_hal_dma.c ****   /* DMA1 */
 287:Drivers/STM32F1xx_HAL_Driver/Src/stm32f1xx_hal_dma.c ****   hdma->ChannelIndex = (((uint32_t)hdma->Instance - (uint32_t)DMA1_Channel1) / ((uint32_t)DMA1_Chan
 288:Drivers/STM32F1xx_HAL_Driver/Src/stm32f1xx_hal_dma.c ****   hdma->DmaBaseAddress = DMA1;
 289:Drivers/STM32F1xx_HAL_Driver/Src/stm32f1xx_hal_dma.c **** #endif /* STM32F101xE || STM32F101xG || STM32F103xE || STM32F103xG || STM32F100xE || STM32F105xC ||
 290:Drivers/STM32F1xx_HAL_Driver/Src/stm32f1xx_hal_dma.c **** 
 291:Drivers/STM32F1xx_HAL_Driver/Src/stm32f1xx_hal_dma.c ****   /* Clear all flags */
 292:Drivers/STM32F1xx_HAL_Driver/Src/stm32f1xx_hal_dma.c ****   hdma->DmaBaseAddress->IFCR = (DMA_ISR_GIF1 << (hdma->ChannelIndex));
 293:Drivers/STM32F1xx_HAL_Driver/Src/stm32f1xx_hal_dma.c **** 
 294:Drivers/STM32F1xx_HAL_Driver/Src/stm32f1xx_hal_dma.c ****   /* Initialize the error code */
 295:Drivers/STM32F1xx_HAL_Driver/Src/stm32f1xx_hal_dma.c ****   hdma->ErrorCode = HAL_DMA_ERROR_NONE;
 296:Drivers/STM32F1xx_HAL_Driver/Src/stm32f1xx_hal_dma.c **** 
 297:Drivers/STM32F1xx_HAL_Driver/Src/stm32f1xx_hal_dma.c ****   /* Initialize the DMA state */
 298:Drivers/STM32F1xx_HAL_Driver/Src/stm32f1xx_hal_dma.c ****   hdma->State = HAL_DMA_STATE_RESET;
 299:Drivers/STM32F1xx_HAL_Driver/Src/stm32f1xx_hal_dma.c **** 
 300:Drivers/STM32F1xx_HAL_Driver/Src/stm32f1xx_hal_dma.c ****   /* Release Lock */
 301:Drivers/STM32F1xx_HAL_Driver/Src/stm32f1xx_hal_dma.c ****   __HAL_UNLOCK(hdma);
 302:Drivers/STM32F1xx_HAL_Driver/Src/stm32f1xx_hal_dma.c **** 
 303:Drivers/STM32F1xx_HAL_Driver/Src/stm32f1xx_hal_dma.c ****   return HAL_OK;
 304:Drivers/STM32F1xx_HAL_Driver/Src/stm32f1xx_hal_dma.c **** }
 305:Drivers/STM32F1xx_HAL_Driver/Src/stm32f1xx_hal_dma.c **** 
 306:Drivers/STM32F1xx_HAL_Driver/Src/stm32f1xx_hal_dma.c **** /**
 307:Drivers/STM32F1xx_HAL_Driver/Src/stm32f1xx_hal_dma.c ****   * @}
 308:Drivers/STM32F1xx_HAL_Driver/Src/stm32f1xx_hal_dma.c ****   */
 309:Drivers/STM32F1xx_HAL_Driver/Src/stm32f1xx_hal_dma.c **** 
 310:Drivers/STM32F1xx_HAL_Driver/Src/stm32f1xx_hal_dma.c **** /** @defgroup DMA_Exported_Functions_Group2 Input and Output operation functions
 311:Drivers/STM32F1xx_HAL_Driver/Src/stm32f1xx_hal_dma.c ****   *  @brief   Input and Output operation functions
 312:Drivers/STM32F1xx_HAL_Driver/Src/stm32f1xx_hal_dma.c ****   *
 313:Drivers/STM32F1xx_HAL_Driver/Src/stm32f1xx_hal_dma.c **** @verbatim
 314:Drivers/STM32F1xx_HAL_Driver/Src/stm32f1xx_hal_dma.c ****  ===============================================================================
 315:Drivers/STM32F1xx_HAL_Driver/Src/stm32f1xx_hal_dma.c ****                       #####  IO operation functions  #####
 316:Drivers/STM32F1xx_HAL_Driver/Src/stm32f1xx_hal_dma.c ****  ===============================================================================
 317:Drivers/STM32F1xx_HAL_Driver/Src/stm32f1xx_hal_dma.c ****     [..]  This section provides functions allowing to:
ARM GAS  /var/folders/2w/5wbrmvx534s_vk8svtxz852c0000gn/T//cccJC0NJ.s 			page 7


 318:Drivers/STM32F1xx_HAL_Driver/Src/stm32f1xx_hal_dma.c ****       (+) Configure the source, destination address and data length and Start DMA transfer
 319:Drivers/STM32F1xx_HAL_Driver/Src/stm32f1xx_hal_dma.c ****       (+) Configure the source, destination address and data length and
 320:Drivers/STM32F1xx_HAL_Driver/Src/stm32f1xx_hal_dma.c ****           Start DMA transfer with interrupt
 321:Drivers/STM32F1xx_HAL_Driver/Src/stm32f1xx_hal_dma.c ****       (+) Abort DMA transfer
 322:Drivers/STM32F1xx_HAL_Driver/Src/stm32f1xx_hal_dma.c ****       (+) Poll for transfer complete
 323:Drivers/STM32F1xx_HAL_Driver/Src/stm32f1xx_hal_dma.c ****       (+) Handle DMA interrupt request
 324:Drivers/STM32F1xx_HAL_Driver/Src/stm32f1xx_hal_dma.c **** 
 325:Drivers/STM32F1xx_HAL_Driver/Src/stm32f1xx_hal_dma.c **** @endverbatim
 326:Drivers/STM32F1xx_HAL_Driver/Src/stm32f1xx_hal_dma.c ****   * @{
 327:Drivers/STM32F1xx_HAL_Driver/Src/stm32f1xx_hal_dma.c ****   */
 328:Drivers/STM32F1xx_HAL_Driver/Src/stm32f1xx_hal_dma.c **** 
 329:Drivers/STM32F1xx_HAL_Driver/Src/stm32f1xx_hal_dma.c **** /**
 330:Drivers/STM32F1xx_HAL_Driver/Src/stm32f1xx_hal_dma.c ****   * @brief  Start the DMA Transfer.
 331:Drivers/STM32F1xx_HAL_Driver/Src/stm32f1xx_hal_dma.c ****   * @param  hdma: pointer to a DMA_HandleTypeDef structure that contains
 332:Drivers/STM32F1xx_HAL_Driver/Src/stm32f1xx_hal_dma.c ****   *               the configuration information for the specified DMA Channel.
 333:Drivers/STM32F1xx_HAL_Driver/Src/stm32f1xx_hal_dma.c ****   * @param  SrcAddress: The source memory Buffer address
 334:Drivers/STM32F1xx_HAL_Driver/Src/stm32f1xx_hal_dma.c ****   * @param  DstAddress: The destination memory Buffer address
 335:Drivers/STM32F1xx_HAL_Driver/Src/stm32f1xx_hal_dma.c ****   * @param  DataLength: The length of data to be transferred from source to destination
 336:Drivers/STM32F1xx_HAL_Driver/Src/stm32f1xx_hal_dma.c ****   * @retval HAL status
 337:Drivers/STM32F1xx_HAL_Driver/Src/stm32f1xx_hal_dma.c ****   */
 338:Drivers/STM32F1xx_HAL_Driver/Src/stm32f1xx_hal_dma.c **** HAL_StatusTypeDef HAL_DMA_Start(DMA_HandleTypeDef *hdma, uint32_t SrcAddress, uint32_t DstAddress, 
 339:Drivers/STM32F1xx_HAL_Driver/Src/stm32f1xx_hal_dma.c **** {
 340:Drivers/STM32F1xx_HAL_Driver/Src/stm32f1xx_hal_dma.c ****   HAL_StatusTypeDef status = HAL_OK;
 341:Drivers/STM32F1xx_HAL_Driver/Src/stm32f1xx_hal_dma.c **** 
 342:Drivers/STM32F1xx_HAL_Driver/Src/stm32f1xx_hal_dma.c ****   /* Check the parameters */
 343:Drivers/STM32F1xx_HAL_Driver/Src/stm32f1xx_hal_dma.c ****   assert_param(IS_DMA_BUFFER_SIZE(DataLength));
 344:Drivers/STM32F1xx_HAL_Driver/Src/stm32f1xx_hal_dma.c **** 
 345:Drivers/STM32F1xx_HAL_Driver/Src/stm32f1xx_hal_dma.c ****   /* Process locked */
 346:Drivers/STM32F1xx_HAL_Driver/Src/stm32f1xx_hal_dma.c ****   __HAL_LOCK(hdma);
 347:Drivers/STM32F1xx_HAL_Driver/Src/stm32f1xx_hal_dma.c **** 
 348:Drivers/STM32F1xx_HAL_Driver/Src/stm32f1xx_hal_dma.c ****   if(HAL_DMA_STATE_READY == hdma->State)
 349:Drivers/STM32F1xx_HAL_Driver/Src/stm32f1xx_hal_dma.c ****   {
 350:Drivers/STM32F1xx_HAL_Driver/Src/stm32f1xx_hal_dma.c ****     /* Change DMA peripheral state */
 351:Drivers/STM32F1xx_HAL_Driver/Src/stm32f1xx_hal_dma.c ****     hdma->State = HAL_DMA_STATE_BUSY;
 352:Drivers/STM32F1xx_HAL_Driver/Src/stm32f1xx_hal_dma.c ****     hdma->ErrorCode = HAL_DMA_ERROR_NONE;
 353:Drivers/STM32F1xx_HAL_Driver/Src/stm32f1xx_hal_dma.c ****             
 354:Drivers/STM32F1xx_HAL_Driver/Src/stm32f1xx_hal_dma.c ****     /* Disable the peripheral */
 355:Drivers/STM32F1xx_HAL_Driver/Src/stm32f1xx_hal_dma.c ****     __HAL_DMA_DISABLE(hdma);
 356:Drivers/STM32F1xx_HAL_Driver/Src/stm32f1xx_hal_dma.c ****     
 357:Drivers/STM32F1xx_HAL_Driver/Src/stm32f1xx_hal_dma.c ****     /* Configure the source, destination address and the data length & clear flags*/
 358:Drivers/STM32F1xx_HAL_Driver/Src/stm32f1xx_hal_dma.c ****     DMA_SetConfig(hdma, SrcAddress, DstAddress, DataLength);
 359:Drivers/STM32F1xx_HAL_Driver/Src/stm32f1xx_hal_dma.c ****     
 360:Drivers/STM32F1xx_HAL_Driver/Src/stm32f1xx_hal_dma.c ****     /* Enable the Peripheral */
 361:Drivers/STM32F1xx_HAL_Driver/Src/stm32f1xx_hal_dma.c ****     __HAL_DMA_ENABLE(hdma);
 362:Drivers/STM32F1xx_HAL_Driver/Src/stm32f1xx_hal_dma.c ****   }
 363:Drivers/STM32F1xx_HAL_Driver/Src/stm32f1xx_hal_dma.c ****   else
 364:Drivers/STM32F1xx_HAL_Driver/Src/stm32f1xx_hal_dma.c ****   {
 365:Drivers/STM32F1xx_HAL_Driver/Src/stm32f1xx_hal_dma.c ****    /* Process Unlocked */
 366:Drivers/STM32F1xx_HAL_Driver/Src/stm32f1xx_hal_dma.c ****    __HAL_UNLOCK(hdma);  
 367:Drivers/STM32F1xx_HAL_Driver/Src/stm32f1xx_hal_dma.c ****    status = HAL_BUSY;
 368:Drivers/STM32F1xx_HAL_Driver/Src/stm32f1xx_hal_dma.c ****   }  
 369:Drivers/STM32F1xx_HAL_Driver/Src/stm32f1xx_hal_dma.c ****   return status;
 370:Drivers/STM32F1xx_HAL_Driver/Src/stm32f1xx_hal_dma.c **** }
 371:Drivers/STM32F1xx_HAL_Driver/Src/stm32f1xx_hal_dma.c **** 
 372:Drivers/STM32F1xx_HAL_Driver/Src/stm32f1xx_hal_dma.c **** /**
 373:Drivers/STM32F1xx_HAL_Driver/Src/stm32f1xx_hal_dma.c ****   * @brief  Start the DMA Transfer with interrupt enabled.
 374:Drivers/STM32F1xx_HAL_Driver/Src/stm32f1xx_hal_dma.c ****   * @param  hdma: pointer to a DMA_HandleTypeDef structure that contains
ARM GAS  /var/folders/2w/5wbrmvx534s_vk8svtxz852c0000gn/T//cccJC0NJ.s 			page 8


 375:Drivers/STM32F1xx_HAL_Driver/Src/stm32f1xx_hal_dma.c ****   *               the configuration information for the specified DMA Channel.
 376:Drivers/STM32F1xx_HAL_Driver/Src/stm32f1xx_hal_dma.c ****   * @param  SrcAddress: The source memory Buffer address
 377:Drivers/STM32F1xx_HAL_Driver/Src/stm32f1xx_hal_dma.c ****   * @param  DstAddress: The destination memory Buffer address
 378:Drivers/STM32F1xx_HAL_Driver/Src/stm32f1xx_hal_dma.c ****   * @param  DataLength: The length of data to be transferred from source to destination
 379:Drivers/STM32F1xx_HAL_Driver/Src/stm32f1xx_hal_dma.c ****   * @retval HAL status
 380:Drivers/STM32F1xx_HAL_Driver/Src/stm32f1xx_hal_dma.c ****   */
 381:Drivers/STM32F1xx_HAL_Driver/Src/stm32f1xx_hal_dma.c **** HAL_StatusTypeDef HAL_DMA_Start_IT(DMA_HandleTypeDef *hdma, uint32_t SrcAddress, uint32_t DstAddres
 382:Drivers/STM32F1xx_HAL_Driver/Src/stm32f1xx_hal_dma.c **** {
 383:Drivers/STM32F1xx_HAL_Driver/Src/stm32f1xx_hal_dma.c ****   HAL_StatusTypeDef status = HAL_OK;
 384:Drivers/STM32F1xx_HAL_Driver/Src/stm32f1xx_hal_dma.c **** 
 385:Drivers/STM32F1xx_HAL_Driver/Src/stm32f1xx_hal_dma.c ****   /* Check the parameters */
 386:Drivers/STM32F1xx_HAL_Driver/Src/stm32f1xx_hal_dma.c ****   assert_param(IS_DMA_BUFFER_SIZE(DataLength));
 387:Drivers/STM32F1xx_HAL_Driver/Src/stm32f1xx_hal_dma.c **** 
 388:Drivers/STM32F1xx_HAL_Driver/Src/stm32f1xx_hal_dma.c ****   /* Process locked */
 389:Drivers/STM32F1xx_HAL_Driver/Src/stm32f1xx_hal_dma.c ****   __HAL_LOCK(hdma);
 390:Drivers/STM32F1xx_HAL_Driver/Src/stm32f1xx_hal_dma.c ****   
 391:Drivers/STM32F1xx_HAL_Driver/Src/stm32f1xx_hal_dma.c ****   if(HAL_DMA_STATE_READY == hdma->State)
 392:Drivers/STM32F1xx_HAL_Driver/Src/stm32f1xx_hal_dma.c ****   {
 393:Drivers/STM32F1xx_HAL_Driver/Src/stm32f1xx_hal_dma.c ****     /* Change DMA peripheral state */
 394:Drivers/STM32F1xx_HAL_Driver/Src/stm32f1xx_hal_dma.c ****     hdma->State = HAL_DMA_STATE_BUSY;
 395:Drivers/STM32F1xx_HAL_Driver/Src/stm32f1xx_hal_dma.c ****     hdma->ErrorCode = HAL_DMA_ERROR_NONE;
 396:Drivers/STM32F1xx_HAL_Driver/Src/stm32f1xx_hal_dma.c ****     
 397:Drivers/STM32F1xx_HAL_Driver/Src/stm32f1xx_hal_dma.c ****     /* Disable the peripheral */
 398:Drivers/STM32F1xx_HAL_Driver/Src/stm32f1xx_hal_dma.c ****     __HAL_DMA_DISABLE(hdma);
 399:Drivers/STM32F1xx_HAL_Driver/Src/stm32f1xx_hal_dma.c ****     
 400:Drivers/STM32F1xx_HAL_Driver/Src/stm32f1xx_hal_dma.c ****     /* Configure the source, destination address and the data length & clear flags*/
 401:Drivers/STM32F1xx_HAL_Driver/Src/stm32f1xx_hal_dma.c ****     DMA_SetConfig(hdma, SrcAddress, DstAddress, DataLength);
 402:Drivers/STM32F1xx_HAL_Driver/Src/stm32f1xx_hal_dma.c ****     
 403:Drivers/STM32F1xx_HAL_Driver/Src/stm32f1xx_hal_dma.c ****     /* Enable the transfer complete interrupt */
 404:Drivers/STM32F1xx_HAL_Driver/Src/stm32f1xx_hal_dma.c ****     /* Enable the transfer Error interrupt */
 405:Drivers/STM32F1xx_HAL_Driver/Src/stm32f1xx_hal_dma.c ****     if(NULL != hdma->XferHalfCpltCallback)
 406:Drivers/STM32F1xx_HAL_Driver/Src/stm32f1xx_hal_dma.c ****     {
 407:Drivers/STM32F1xx_HAL_Driver/Src/stm32f1xx_hal_dma.c ****       /* Enable the Half transfer complete interrupt as well */
 408:Drivers/STM32F1xx_HAL_Driver/Src/stm32f1xx_hal_dma.c ****       __HAL_DMA_ENABLE_IT(hdma, (DMA_IT_TC | DMA_IT_HT | DMA_IT_TE));
 409:Drivers/STM32F1xx_HAL_Driver/Src/stm32f1xx_hal_dma.c ****     }
 410:Drivers/STM32F1xx_HAL_Driver/Src/stm32f1xx_hal_dma.c ****     else
 411:Drivers/STM32F1xx_HAL_Driver/Src/stm32f1xx_hal_dma.c ****     {
 412:Drivers/STM32F1xx_HAL_Driver/Src/stm32f1xx_hal_dma.c ****       __HAL_DMA_DISABLE_IT(hdma, DMA_IT_HT);
 413:Drivers/STM32F1xx_HAL_Driver/Src/stm32f1xx_hal_dma.c ****       __HAL_DMA_ENABLE_IT(hdma, (DMA_IT_TC | DMA_IT_TE));
 414:Drivers/STM32F1xx_HAL_Driver/Src/stm32f1xx_hal_dma.c ****     }
 415:Drivers/STM32F1xx_HAL_Driver/Src/stm32f1xx_hal_dma.c ****     /* Enable the Peripheral */
 416:Drivers/STM32F1xx_HAL_Driver/Src/stm32f1xx_hal_dma.c ****     __HAL_DMA_ENABLE(hdma);
 417:Drivers/STM32F1xx_HAL_Driver/Src/stm32f1xx_hal_dma.c ****   }
 418:Drivers/STM32F1xx_HAL_Driver/Src/stm32f1xx_hal_dma.c ****   else
 419:Drivers/STM32F1xx_HAL_Driver/Src/stm32f1xx_hal_dma.c ****   {      
 420:Drivers/STM32F1xx_HAL_Driver/Src/stm32f1xx_hal_dma.c ****     /* Process Unlocked */
 421:Drivers/STM32F1xx_HAL_Driver/Src/stm32f1xx_hal_dma.c ****     __HAL_UNLOCK(hdma); 
 422:Drivers/STM32F1xx_HAL_Driver/Src/stm32f1xx_hal_dma.c **** 
 423:Drivers/STM32F1xx_HAL_Driver/Src/stm32f1xx_hal_dma.c ****     /* Remain BUSY */
 424:Drivers/STM32F1xx_HAL_Driver/Src/stm32f1xx_hal_dma.c ****     status = HAL_BUSY;
 425:Drivers/STM32F1xx_HAL_Driver/Src/stm32f1xx_hal_dma.c ****   }    
 426:Drivers/STM32F1xx_HAL_Driver/Src/stm32f1xx_hal_dma.c ****   return status;
 427:Drivers/STM32F1xx_HAL_Driver/Src/stm32f1xx_hal_dma.c **** }
 428:Drivers/STM32F1xx_HAL_Driver/Src/stm32f1xx_hal_dma.c **** 
 429:Drivers/STM32F1xx_HAL_Driver/Src/stm32f1xx_hal_dma.c **** /**
 430:Drivers/STM32F1xx_HAL_Driver/Src/stm32f1xx_hal_dma.c ****   * @brief  Abort the DMA Transfer.
 431:Drivers/STM32F1xx_HAL_Driver/Src/stm32f1xx_hal_dma.c ****   * @param  hdma: pointer to a DMA_HandleTypeDef structure that contains
ARM GAS  /var/folders/2w/5wbrmvx534s_vk8svtxz852c0000gn/T//cccJC0NJ.s 			page 9


 432:Drivers/STM32F1xx_HAL_Driver/Src/stm32f1xx_hal_dma.c ****   *               the configuration information for the specified DMA Channel.
 433:Drivers/STM32F1xx_HAL_Driver/Src/stm32f1xx_hal_dma.c ****   * @retval HAL status
 434:Drivers/STM32F1xx_HAL_Driver/Src/stm32f1xx_hal_dma.c ****   */
 435:Drivers/STM32F1xx_HAL_Driver/Src/stm32f1xx_hal_dma.c **** HAL_StatusTypeDef HAL_DMA_Abort(DMA_HandleTypeDef *hdma)
 436:Drivers/STM32F1xx_HAL_Driver/Src/stm32f1xx_hal_dma.c **** {
 437:Drivers/STM32F1xx_HAL_Driver/Src/stm32f1xx_hal_dma.c ****   HAL_StatusTypeDef status = HAL_OK;
 438:Drivers/STM32F1xx_HAL_Driver/Src/stm32f1xx_hal_dma.c **** 
 439:Drivers/STM32F1xx_HAL_Driver/Src/stm32f1xx_hal_dma.c ****   /* Disable DMA IT */
 440:Drivers/STM32F1xx_HAL_Driver/Src/stm32f1xx_hal_dma.c ****   __HAL_DMA_DISABLE_IT(hdma, (DMA_IT_TC | DMA_IT_HT | DMA_IT_TE));
 441:Drivers/STM32F1xx_HAL_Driver/Src/stm32f1xx_hal_dma.c ****     
 442:Drivers/STM32F1xx_HAL_Driver/Src/stm32f1xx_hal_dma.c ****   /* Disable the channel */
 443:Drivers/STM32F1xx_HAL_Driver/Src/stm32f1xx_hal_dma.c ****   __HAL_DMA_DISABLE(hdma);
 444:Drivers/STM32F1xx_HAL_Driver/Src/stm32f1xx_hal_dma.c ****     
 445:Drivers/STM32F1xx_HAL_Driver/Src/stm32f1xx_hal_dma.c ****   /* Clear all flags */
 446:Drivers/STM32F1xx_HAL_Driver/Src/stm32f1xx_hal_dma.c ****   hdma->DmaBaseAddress->IFCR = (DMA_ISR_GIF1 << hdma->ChannelIndex);
 447:Drivers/STM32F1xx_HAL_Driver/Src/stm32f1xx_hal_dma.c **** 
 448:Drivers/STM32F1xx_HAL_Driver/Src/stm32f1xx_hal_dma.c ****   /* Change the DMA state */
 449:Drivers/STM32F1xx_HAL_Driver/Src/stm32f1xx_hal_dma.c ****   hdma->State = HAL_DMA_STATE_READY;
 450:Drivers/STM32F1xx_HAL_Driver/Src/stm32f1xx_hal_dma.c **** 
 451:Drivers/STM32F1xx_HAL_Driver/Src/stm32f1xx_hal_dma.c ****   /* Process Unlocked */
 452:Drivers/STM32F1xx_HAL_Driver/Src/stm32f1xx_hal_dma.c ****   __HAL_UNLOCK(hdma);      
 453:Drivers/STM32F1xx_HAL_Driver/Src/stm32f1xx_hal_dma.c ****   
 454:Drivers/STM32F1xx_HAL_Driver/Src/stm32f1xx_hal_dma.c ****   return status; 
 455:Drivers/STM32F1xx_HAL_Driver/Src/stm32f1xx_hal_dma.c **** }
 456:Drivers/STM32F1xx_HAL_Driver/Src/stm32f1xx_hal_dma.c **** 
 457:Drivers/STM32F1xx_HAL_Driver/Src/stm32f1xx_hal_dma.c **** /**
 458:Drivers/STM32F1xx_HAL_Driver/Src/stm32f1xx_hal_dma.c ****   * @brief  Aborts the DMA Transfer in Interrupt mode.
 459:Drivers/STM32F1xx_HAL_Driver/Src/stm32f1xx_hal_dma.c ****   * @param  hdma  : pointer to a DMA_HandleTypeDef structure that contains
 460:Drivers/STM32F1xx_HAL_Driver/Src/stm32f1xx_hal_dma.c ****   *                 the configuration information for the specified DMA Channel.
 461:Drivers/STM32F1xx_HAL_Driver/Src/stm32f1xx_hal_dma.c ****   * @retval HAL status
 462:Drivers/STM32F1xx_HAL_Driver/Src/stm32f1xx_hal_dma.c ****   */
 463:Drivers/STM32F1xx_HAL_Driver/Src/stm32f1xx_hal_dma.c **** HAL_StatusTypeDef HAL_DMA_Abort_IT(DMA_HandleTypeDef *hdma)
 464:Drivers/STM32F1xx_HAL_Driver/Src/stm32f1xx_hal_dma.c **** {  
 465:Drivers/STM32F1xx_HAL_Driver/Src/stm32f1xx_hal_dma.c ****   HAL_StatusTypeDef status = HAL_OK;
 466:Drivers/STM32F1xx_HAL_Driver/Src/stm32f1xx_hal_dma.c ****   
 467:Drivers/STM32F1xx_HAL_Driver/Src/stm32f1xx_hal_dma.c ****   if(HAL_DMA_STATE_BUSY != hdma->State)
 468:Drivers/STM32F1xx_HAL_Driver/Src/stm32f1xx_hal_dma.c ****   {
 469:Drivers/STM32F1xx_HAL_Driver/Src/stm32f1xx_hal_dma.c ****     /* no transfer ongoing */
 470:Drivers/STM32F1xx_HAL_Driver/Src/stm32f1xx_hal_dma.c ****     hdma->ErrorCode = HAL_DMA_ERROR_NO_XFER;
 471:Drivers/STM32F1xx_HAL_Driver/Src/stm32f1xx_hal_dma.c ****         
 472:Drivers/STM32F1xx_HAL_Driver/Src/stm32f1xx_hal_dma.c ****     status = HAL_ERROR;
 473:Drivers/STM32F1xx_HAL_Driver/Src/stm32f1xx_hal_dma.c ****   }
 474:Drivers/STM32F1xx_HAL_Driver/Src/stm32f1xx_hal_dma.c ****   else
 475:Drivers/STM32F1xx_HAL_Driver/Src/stm32f1xx_hal_dma.c ****   { 
 476:Drivers/STM32F1xx_HAL_Driver/Src/stm32f1xx_hal_dma.c ****     /* Disable DMA IT */
 477:Drivers/STM32F1xx_HAL_Driver/Src/stm32f1xx_hal_dma.c ****     __HAL_DMA_DISABLE_IT(hdma, (DMA_IT_TC | DMA_IT_HT | DMA_IT_TE));
 478:Drivers/STM32F1xx_HAL_Driver/Src/stm32f1xx_hal_dma.c **** 
 479:Drivers/STM32F1xx_HAL_Driver/Src/stm32f1xx_hal_dma.c ****     /* Disable the channel */
 480:Drivers/STM32F1xx_HAL_Driver/Src/stm32f1xx_hal_dma.c ****     __HAL_DMA_DISABLE(hdma);
 481:Drivers/STM32F1xx_HAL_Driver/Src/stm32f1xx_hal_dma.c **** 
 482:Drivers/STM32F1xx_HAL_Driver/Src/stm32f1xx_hal_dma.c ****     /* Clear all flags */
 483:Drivers/STM32F1xx_HAL_Driver/Src/stm32f1xx_hal_dma.c ****     __HAL_DMA_CLEAR_FLAG(hdma, __HAL_DMA_GET_GI_FLAG_INDEX(hdma));
 484:Drivers/STM32F1xx_HAL_Driver/Src/stm32f1xx_hal_dma.c **** 
 485:Drivers/STM32F1xx_HAL_Driver/Src/stm32f1xx_hal_dma.c ****     /* Change the DMA state */
 486:Drivers/STM32F1xx_HAL_Driver/Src/stm32f1xx_hal_dma.c ****     hdma->State = HAL_DMA_STATE_READY;
 487:Drivers/STM32F1xx_HAL_Driver/Src/stm32f1xx_hal_dma.c **** 
 488:Drivers/STM32F1xx_HAL_Driver/Src/stm32f1xx_hal_dma.c ****     /* Process Unlocked */
ARM GAS  /var/folders/2w/5wbrmvx534s_vk8svtxz852c0000gn/T//cccJC0NJ.s 			page 10


 489:Drivers/STM32F1xx_HAL_Driver/Src/stm32f1xx_hal_dma.c ****     __HAL_UNLOCK(hdma);
 490:Drivers/STM32F1xx_HAL_Driver/Src/stm32f1xx_hal_dma.c **** 
 491:Drivers/STM32F1xx_HAL_Driver/Src/stm32f1xx_hal_dma.c ****     /* Call User Abort callback */
 492:Drivers/STM32F1xx_HAL_Driver/Src/stm32f1xx_hal_dma.c ****     if(hdma->XferAbortCallback != NULL)
 493:Drivers/STM32F1xx_HAL_Driver/Src/stm32f1xx_hal_dma.c ****     {
 494:Drivers/STM32F1xx_HAL_Driver/Src/stm32f1xx_hal_dma.c ****       hdma->XferAbortCallback(hdma);
 495:Drivers/STM32F1xx_HAL_Driver/Src/stm32f1xx_hal_dma.c ****     } 
 496:Drivers/STM32F1xx_HAL_Driver/Src/stm32f1xx_hal_dma.c ****   }
 497:Drivers/STM32F1xx_HAL_Driver/Src/stm32f1xx_hal_dma.c ****   return status;
 498:Drivers/STM32F1xx_HAL_Driver/Src/stm32f1xx_hal_dma.c **** }
 499:Drivers/STM32F1xx_HAL_Driver/Src/stm32f1xx_hal_dma.c **** 
 500:Drivers/STM32F1xx_HAL_Driver/Src/stm32f1xx_hal_dma.c **** /**
 501:Drivers/STM32F1xx_HAL_Driver/Src/stm32f1xx_hal_dma.c ****   * @brief  Polling for transfer complete.
 502:Drivers/STM32F1xx_HAL_Driver/Src/stm32f1xx_hal_dma.c ****   * @param  hdma:    pointer to a DMA_HandleTypeDef structure that contains
 503:Drivers/STM32F1xx_HAL_Driver/Src/stm32f1xx_hal_dma.c ****   *                  the configuration information for the specified DMA Channel.
 504:Drivers/STM32F1xx_HAL_Driver/Src/stm32f1xx_hal_dma.c ****   * @param  CompleteLevel: Specifies the DMA level complete.
 505:Drivers/STM32F1xx_HAL_Driver/Src/stm32f1xx_hal_dma.c ****   * @param  Timeout:       Timeout duration.
 506:Drivers/STM32F1xx_HAL_Driver/Src/stm32f1xx_hal_dma.c ****   * @retval HAL status
 507:Drivers/STM32F1xx_HAL_Driver/Src/stm32f1xx_hal_dma.c ****   */
 508:Drivers/STM32F1xx_HAL_Driver/Src/stm32f1xx_hal_dma.c **** HAL_StatusTypeDef HAL_DMA_PollForTransfer(DMA_HandleTypeDef *hdma, uint32_t CompleteLevel, uint32_t
 509:Drivers/STM32F1xx_HAL_Driver/Src/stm32f1xx_hal_dma.c **** {
 510:Drivers/STM32F1xx_HAL_Driver/Src/stm32f1xx_hal_dma.c ****   uint32_t temp;
 511:Drivers/STM32F1xx_HAL_Driver/Src/stm32f1xx_hal_dma.c ****   uint32_t tickstart = 0U;
 512:Drivers/STM32F1xx_HAL_Driver/Src/stm32f1xx_hal_dma.c **** 
 513:Drivers/STM32F1xx_HAL_Driver/Src/stm32f1xx_hal_dma.c ****   if(HAL_DMA_STATE_BUSY != hdma->State)
 514:Drivers/STM32F1xx_HAL_Driver/Src/stm32f1xx_hal_dma.c ****   {
 515:Drivers/STM32F1xx_HAL_Driver/Src/stm32f1xx_hal_dma.c ****     /* no transfer ongoing */
 516:Drivers/STM32F1xx_HAL_Driver/Src/stm32f1xx_hal_dma.c ****     hdma->ErrorCode = HAL_DMA_ERROR_NO_XFER;
 517:Drivers/STM32F1xx_HAL_Driver/Src/stm32f1xx_hal_dma.c ****     __HAL_UNLOCK(hdma);
 518:Drivers/STM32F1xx_HAL_Driver/Src/stm32f1xx_hal_dma.c ****     return HAL_ERROR;
 519:Drivers/STM32F1xx_HAL_Driver/Src/stm32f1xx_hal_dma.c ****   }
 520:Drivers/STM32F1xx_HAL_Driver/Src/stm32f1xx_hal_dma.c **** 
 521:Drivers/STM32F1xx_HAL_Driver/Src/stm32f1xx_hal_dma.c ****   /* Polling mode not supported in circular mode */
 522:Drivers/STM32F1xx_HAL_Driver/Src/stm32f1xx_hal_dma.c ****   if (RESET != (hdma->Instance->CCR & DMA_CCR_CIRC))
 523:Drivers/STM32F1xx_HAL_Driver/Src/stm32f1xx_hal_dma.c ****   {
 524:Drivers/STM32F1xx_HAL_Driver/Src/stm32f1xx_hal_dma.c ****     hdma->ErrorCode = HAL_DMA_ERROR_NOT_SUPPORTED;
 525:Drivers/STM32F1xx_HAL_Driver/Src/stm32f1xx_hal_dma.c ****     return HAL_ERROR;
 526:Drivers/STM32F1xx_HAL_Driver/Src/stm32f1xx_hal_dma.c ****   }
 527:Drivers/STM32F1xx_HAL_Driver/Src/stm32f1xx_hal_dma.c ****   
 528:Drivers/STM32F1xx_HAL_Driver/Src/stm32f1xx_hal_dma.c ****   /* Get the level transfer complete flag */
 529:Drivers/STM32F1xx_HAL_Driver/Src/stm32f1xx_hal_dma.c ****   if(CompleteLevel == HAL_DMA_FULL_TRANSFER)
 530:Drivers/STM32F1xx_HAL_Driver/Src/stm32f1xx_hal_dma.c ****   {
 531:Drivers/STM32F1xx_HAL_Driver/Src/stm32f1xx_hal_dma.c ****     /* Transfer Complete flag */
 532:Drivers/STM32F1xx_HAL_Driver/Src/stm32f1xx_hal_dma.c ****     temp = __HAL_DMA_GET_TC_FLAG_INDEX(hdma);
 533:Drivers/STM32F1xx_HAL_Driver/Src/stm32f1xx_hal_dma.c ****   }
 534:Drivers/STM32F1xx_HAL_Driver/Src/stm32f1xx_hal_dma.c ****   else
 535:Drivers/STM32F1xx_HAL_Driver/Src/stm32f1xx_hal_dma.c ****   {
 536:Drivers/STM32F1xx_HAL_Driver/Src/stm32f1xx_hal_dma.c ****     /* Half Transfer Complete flag */
 537:Drivers/STM32F1xx_HAL_Driver/Src/stm32f1xx_hal_dma.c ****     temp = __HAL_DMA_GET_HT_FLAG_INDEX(hdma);
 538:Drivers/STM32F1xx_HAL_Driver/Src/stm32f1xx_hal_dma.c ****   }
 539:Drivers/STM32F1xx_HAL_Driver/Src/stm32f1xx_hal_dma.c **** 
 540:Drivers/STM32F1xx_HAL_Driver/Src/stm32f1xx_hal_dma.c ****   /* Get tick */
 541:Drivers/STM32F1xx_HAL_Driver/Src/stm32f1xx_hal_dma.c ****   tickstart = HAL_GetTick();
 542:Drivers/STM32F1xx_HAL_Driver/Src/stm32f1xx_hal_dma.c **** 
 543:Drivers/STM32F1xx_HAL_Driver/Src/stm32f1xx_hal_dma.c ****   while(__HAL_DMA_GET_FLAG(hdma, temp) == RESET)
 544:Drivers/STM32F1xx_HAL_Driver/Src/stm32f1xx_hal_dma.c ****   {
 545:Drivers/STM32F1xx_HAL_Driver/Src/stm32f1xx_hal_dma.c ****     if((__HAL_DMA_GET_FLAG(hdma, __HAL_DMA_GET_TE_FLAG_INDEX(hdma)) != RESET))
ARM GAS  /var/folders/2w/5wbrmvx534s_vk8svtxz852c0000gn/T//cccJC0NJ.s 			page 11


 546:Drivers/STM32F1xx_HAL_Driver/Src/stm32f1xx_hal_dma.c ****     {
 547:Drivers/STM32F1xx_HAL_Driver/Src/stm32f1xx_hal_dma.c ****       /* When a DMA transfer error occurs */
 548:Drivers/STM32F1xx_HAL_Driver/Src/stm32f1xx_hal_dma.c ****       /* A hardware clear of its EN bits is performed */
 549:Drivers/STM32F1xx_HAL_Driver/Src/stm32f1xx_hal_dma.c ****       /* Clear all flags */
 550:Drivers/STM32F1xx_HAL_Driver/Src/stm32f1xx_hal_dma.c ****       hdma->DmaBaseAddress->IFCR = (DMA_ISR_GIF1 << hdma->ChannelIndex);
 551:Drivers/STM32F1xx_HAL_Driver/Src/stm32f1xx_hal_dma.c **** 
 552:Drivers/STM32F1xx_HAL_Driver/Src/stm32f1xx_hal_dma.c ****       /* Update error code */
 553:Drivers/STM32F1xx_HAL_Driver/Src/stm32f1xx_hal_dma.c ****       SET_BIT(hdma->ErrorCode, HAL_DMA_ERROR_TE);
 554:Drivers/STM32F1xx_HAL_Driver/Src/stm32f1xx_hal_dma.c **** 
 555:Drivers/STM32F1xx_HAL_Driver/Src/stm32f1xx_hal_dma.c ****       /* Change the DMA state */
 556:Drivers/STM32F1xx_HAL_Driver/Src/stm32f1xx_hal_dma.c ****       hdma->State= HAL_DMA_STATE_READY;
 557:Drivers/STM32F1xx_HAL_Driver/Src/stm32f1xx_hal_dma.c **** 
 558:Drivers/STM32F1xx_HAL_Driver/Src/stm32f1xx_hal_dma.c ****       /* Process Unlocked */
 559:Drivers/STM32F1xx_HAL_Driver/Src/stm32f1xx_hal_dma.c ****       __HAL_UNLOCK(hdma);
 560:Drivers/STM32F1xx_HAL_Driver/Src/stm32f1xx_hal_dma.c **** 
 561:Drivers/STM32F1xx_HAL_Driver/Src/stm32f1xx_hal_dma.c ****       return HAL_ERROR;
 562:Drivers/STM32F1xx_HAL_Driver/Src/stm32f1xx_hal_dma.c ****     }
 563:Drivers/STM32F1xx_HAL_Driver/Src/stm32f1xx_hal_dma.c ****     /* Check for the Timeout */
 564:Drivers/STM32F1xx_HAL_Driver/Src/stm32f1xx_hal_dma.c ****     if(Timeout != HAL_MAX_DELAY)
 565:Drivers/STM32F1xx_HAL_Driver/Src/stm32f1xx_hal_dma.c ****     {
 566:Drivers/STM32F1xx_HAL_Driver/Src/stm32f1xx_hal_dma.c ****       if((Timeout == 0U) || ((HAL_GetTick() - tickstart) > Timeout))
 567:Drivers/STM32F1xx_HAL_Driver/Src/stm32f1xx_hal_dma.c ****       {
 568:Drivers/STM32F1xx_HAL_Driver/Src/stm32f1xx_hal_dma.c ****         /* Update error code */
 569:Drivers/STM32F1xx_HAL_Driver/Src/stm32f1xx_hal_dma.c ****         SET_BIT(hdma->ErrorCode, HAL_DMA_ERROR_TIMEOUT);
 570:Drivers/STM32F1xx_HAL_Driver/Src/stm32f1xx_hal_dma.c **** 
 571:Drivers/STM32F1xx_HAL_Driver/Src/stm32f1xx_hal_dma.c ****         /* Change the DMA state */
 572:Drivers/STM32F1xx_HAL_Driver/Src/stm32f1xx_hal_dma.c ****         hdma->State = HAL_DMA_STATE_READY;
 573:Drivers/STM32F1xx_HAL_Driver/Src/stm32f1xx_hal_dma.c **** 
 574:Drivers/STM32F1xx_HAL_Driver/Src/stm32f1xx_hal_dma.c ****         /* Process Unlocked */
 575:Drivers/STM32F1xx_HAL_Driver/Src/stm32f1xx_hal_dma.c ****         __HAL_UNLOCK(hdma);
 576:Drivers/STM32F1xx_HAL_Driver/Src/stm32f1xx_hal_dma.c **** 
 577:Drivers/STM32F1xx_HAL_Driver/Src/stm32f1xx_hal_dma.c ****         return HAL_ERROR;
 578:Drivers/STM32F1xx_HAL_Driver/Src/stm32f1xx_hal_dma.c ****       }
 579:Drivers/STM32F1xx_HAL_Driver/Src/stm32f1xx_hal_dma.c ****     }
 580:Drivers/STM32F1xx_HAL_Driver/Src/stm32f1xx_hal_dma.c ****   }
 581:Drivers/STM32F1xx_HAL_Driver/Src/stm32f1xx_hal_dma.c **** 
 582:Drivers/STM32F1xx_HAL_Driver/Src/stm32f1xx_hal_dma.c ****   if(CompleteLevel == HAL_DMA_FULL_TRANSFER)
 583:Drivers/STM32F1xx_HAL_Driver/Src/stm32f1xx_hal_dma.c ****   {
 584:Drivers/STM32F1xx_HAL_Driver/Src/stm32f1xx_hal_dma.c ****     /* Clear the transfer complete flag */
 585:Drivers/STM32F1xx_HAL_Driver/Src/stm32f1xx_hal_dma.c ****     __HAL_DMA_CLEAR_FLAG(hdma, __HAL_DMA_GET_TC_FLAG_INDEX(hdma));
 586:Drivers/STM32F1xx_HAL_Driver/Src/stm32f1xx_hal_dma.c **** 
 587:Drivers/STM32F1xx_HAL_Driver/Src/stm32f1xx_hal_dma.c ****     /* The selected Channelx EN bit is cleared (DMA is disabled and
 588:Drivers/STM32F1xx_HAL_Driver/Src/stm32f1xx_hal_dma.c ****     all transfers are complete) */
 589:Drivers/STM32F1xx_HAL_Driver/Src/stm32f1xx_hal_dma.c ****     hdma->State = HAL_DMA_STATE_READY;
 590:Drivers/STM32F1xx_HAL_Driver/Src/stm32f1xx_hal_dma.c ****   }
 591:Drivers/STM32F1xx_HAL_Driver/Src/stm32f1xx_hal_dma.c ****   else
 592:Drivers/STM32F1xx_HAL_Driver/Src/stm32f1xx_hal_dma.c ****   {
 593:Drivers/STM32F1xx_HAL_Driver/Src/stm32f1xx_hal_dma.c ****     /* Clear the half transfer complete flag */
 594:Drivers/STM32F1xx_HAL_Driver/Src/stm32f1xx_hal_dma.c ****     __HAL_DMA_CLEAR_FLAG(hdma, __HAL_DMA_GET_HT_FLAG_INDEX(hdma));
 595:Drivers/STM32F1xx_HAL_Driver/Src/stm32f1xx_hal_dma.c ****   }
 596:Drivers/STM32F1xx_HAL_Driver/Src/stm32f1xx_hal_dma.c ****   
 597:Drivers/STM32F1xx_HAL_Driver/Src/stm32f1xx_hal_dma.c ****   /* Process unlocked */
 598:Drivers/STM32F1xx_HAL_Driver/Src/stm32f1xx_hal_dma.c ****   __HAL_UNLOCK(hdma);
 599:Drivers/STM32F1xx_HAL_Driver/Src/stm32f1xx_hal_dma.c **** 
 600:Drivers/STM32F1xx_HAL_Driver/Src/stm32f1xx_hal_dma.c ****   return HAL_OK;
 601:Drivers/STM32F1xx_HAL_Driver/Src/stm32f1xx_hal_dma.c **** }
 602:Drivers/STM32F1xx_HAL_Driver/Src/stm32f1xx_hal_dma.c **** 
ARM GAS  /var/folders/2w/5wbrmvx534s_vk8svtxz852c0000gn/T//cccJC0NJ.s 			page 12


 603:Drivers/STM32F1xx_HAL_Driver/Src/stm32f1xx_hal_dma.c **** /**
 604:Drivers/STM32F1xx_HAL_Driver/Src/stm32f1xx_hal_dma.c ****   * @brief  Handles DMA interrupt request.
 605:Drivers/STM32F1xx_HAL_Driver/Src/stm32f1xx_hal_dma.c ****   * @param  hdma: pointer to a DMA_HandleTypeDef structure that contains
 606:Drivers/STM32F1xx_HAL_Driver/Src/stm32f1xx_hal_dma.c ****   *               the configuration information for the specified DMA Channel.  
 607:Drivers/STM32F1xx_HAL_Driver/Src/stm32f1xx_hal_dma.c ****   * @retval None
 608:Drivers/STM32F1xx_HAL_Driver/Src/stm32f1xx_hal_dma.c ****   */
 609:Drivers/STM32F1xx_HAL_Driver/Src/stm32f1xx_hal_dma.c **** void HAL_DMA_IRQHandler(DMA_HandleTypeDef *hdma)
 610:Drivers/STM32F1xx_HAL_Driver/Src/stm32f1xx_hal_dma.c **** {
 611:Drivers/STM32F1xx_HAL_Driver/Src/stm32f1xx_hal_dma.c ****   uint32_t flag_it = hdma->DmaBaseAddress->ISR;
 612:Drivers/STM32F1xx_HAL_Driver/Src/stm32f1xx_hal_dma.c ****   uint32_t source_it = hdma->Instance->CCR;
 613:Drivers/STM32F1xx_HAL_Driver/Src/stm32f1xx_hal_dma.c ****   
 614:Drivers/STM32F1xx_HAL_Driver/Src/stm32f1xx_hal_dma.c ****   /* Half Transfer Complete Interrupt management ******************************/
 615:Drivers/STM32F1xx_HAL_Driver/Src/stm32f1xx_hal_dma.c ****   if (((flag_it & (DMA_FLAG_HT1 << hdma->ChannelIndex)) != RESET) && ((source_it & DMA_IT_HT) != RE
 616:Drivers/STM32F1xx_HAL_Driver/Src/stm32f1xx_hal_dma.c ****   {
 617:Drivers/STM32F1xx_HAL_Driver/Src/stm32f1xx_hal_dma.c ****     /* Disable the half transfer interrupt if the DMA mode is not CIRCULAR */
 618:Drivers/STM32F1xx_HAL_Driver/Src/stm32f1xx_hal_dma.c ****     if((hdma->Instance->CCR & DMA_CCR_CIRC) == 0U)
 619:Drivers/STM32F1xx_HAL_Driver/Src/stm32f1xx_hal_dma.c ****     {
 620:Drivers/STM32F1xx_HAL_Driver/Src/stm32f1xx_hal_dma.c ****       /* Disable the half transfer interrupt */
 621:Drivers/STM32F1xx_HAL_Driver/Src/stm32f1xx_hal_dma.c ****       __HAL_DMA_DISABLE_IT(hdma, DMA_IT_HT);
 622:Drivers/STM32F1xx_HAL_Driver/Src/stm32f1xx_hal_dma.c ****     }
 623:Drivers/STM32F1xx_HAL_Driver/Src/stm32f1xx_hal_dma.c ****     /* Clear the half transfer complete flag */
 624:Drivers/STM32F1xx_HAL_Driver/Src/stm32f1xx_hal_dma.c ****     __HAL_DMA_CLEAR_FLAG(hdma, __HAL_DMA_GET_HT_FLAG_INDEX(hdma));
 625:Drivers/STM32F1xx_HAL_Driver/Src/stm32f1xx_hal_dma.c **** 
 626:Drivers/STM32F1xx_HAL_Driver/Src/stm32f1xx_hal_dma.c ****     /* DMA peripheral state is not updated in Half Transfer */
 627:Drivers/STM32F1xx_HAL_Driver/Src/stm32f1xx_hal_dma.c ****     /* but in Transfer Complete case */
 628:Drivers/STM32F1xx_HAL_Driver/Src/stm32f1xx_hal_dma.c **** 
 629:Drivers/STM32F1xx_HAL_Driver/Src/stm32f1xx_hal_dma.c ****     if(hdma->XferHalfCpltCallback != NULL)
 630:Drivers/STM32F1xx_HAL_Driver/Src/stm32f1xx_hal_dma.c ****     {
 631:Drivers/STM32F1xx_HAL_Driver/Src/stm32f1xx_hal_dma.c ****       /* Half transfer callback */
 632:Drivers/STM32F1xx_HAL_Driver/Src/stm32f1xx_hal_dma.c ****       hdma->XferHalfCpltCallback(hdma);
 633:Drivers/STM32F1xx_HAL_Driver/Src/stm32f1xx_hal_dma.c ****     }
 634:Drivers/STM32F1xx_HAL_Driver/Src/stm32f1xx_hal_dma.c ****   }
 635:Drivers/STM32F1xx_HAL_Driver/Src/stm32f1xx_hal_dma.c **** 
 636:Drivers/STM32F1xx_HAL_Driver/Src/stm32f1xx_hal_dma.c ****   /* Transfer Complete Interrupt management ***********************************/
 637:Drivers/STM32F1xx_HAL_Driver/Src/stm32f1xx_hal_dma.c ****   else if (((flag_it & (DMA_FLAG_TC1 << hdma->ChannelIndex)) != RESET) && ((source_it & DMA_IT_TC) 
 638:Drivers/STM32F1xx_HAL_Driver/Src/stm32f1xx_hal_dma.c ****   {
 639:Drivers/STM32F1xx_HAL_Driver/Src/stm32f1xx_hal_dma.c ****     if((hdma->Instance->CCR & DMA_CCR_CIRC) == 0U)
 640:Drivers/STM32F1xx_HAL_Driver/Src/stm32f1xx_hal_dma.c ****     {
 641:Drivers/STM32F1xx_HAL_Driver/Src/stm32f1xx_hal_dma.c ****       /* Disable the transfer complete and error interrupt */
 642:Drivers/STM32F1xx_HAL_Driver/Src/stm32f1xx_hal_dma.c ****       __HAL_DMA_DISABLE_IT(hdma, DMA_IT_TE | DMA_IT_TC);  
 643:Drivers/STM32F1xx_HAL_Driver/Src/stm32f1xx_hal_dma.c **** 
 644:Drivers/STM32F1xx_HAL_Driver/Src/stm32f1xx_hal_dma.c ****       /* Change the DMA state */
 645:Drivers/STM32F1xx_HAL_Driver/Src/stm32f1xx_hal_dma.c ****       hdma->State = HAL_DMA_STATE_READY;
 646:Drivers/STM32F1xx_HAL_Driver/Src/stm32f1xx_hal_dma.c ****     }
 647:Drivers/STM32F1xx_HAL_Driver/Src/stm32f1xx_hal_dma.c ****     /* Clear the transfer complete flag */
 648:Drivers/STM32F1xx_HAL_Driver/Src/stm32f1xx_hal_dma.c ****       __HAL_DMA_CLEAR_FLAG(hdma, __HAL_DMA_GET_TC_FLAG_INDEX(hdma));
 649:Drivers/STM32F1xx_HAL_Driver/Src/stm32f1xx_hal_dma.c **** 
 650:Drivers/STM32F1xx_HAL_Driver/Src/stm32f1xx_hal_dma.c ****     /* Process Unlocked */
 651:Drivers/STM32F1xx_HAL_Driver/Src/stm32f1xx_hal_dma.c ****     __HAL_UNLOCK(hdma);
 652:Drivers/STM32F1xx_HAL_Driver/Src/stm32f1xx_hal_dma.c **** 
 653:Drivers/STM32F1xx_HAL_Driver/Src/stm32f1xx_hal_dma.c ****     if(hdma->XferCpltCallback != NULL)
 654:Drivers/STM32F1xx_HAL_Driver/Src/stm32f1xx_hal_dma.c ****     {
 655:Drivers/STM32F1xx_HAL_Driver/Src/stm32f1xx_hal_dma.c ****       /* Transfer complete callback */
 656:Drivers/STM32F1xx_HAL_Driver/Src/stm32f1xx_hal_dma.c ****       hdma->XferCpltCallback(hdma);
 657:Drivers/STM32F1xx_HAL_Driver/Src/stm32f1xx_hal_dma.c ****     }
 658:Drivers/STM32F1xx_HAL_Driver/Src/stm32f1xx_hal_dma.c ****   }
 659:Drivers/STM32F1xx_HAL_Driver/Src/stm32f1xx_hal_dma.c **** 
ARM GAS  /var/folders/2w/5wbrmvx534s_vk8svtxz852c0000gn/T//cccJC0NJ.s 			page 13


 660:Drivers/STM32F1xx_HAL_Driver/Src/stm32f1xx_hal_dma.c ****   /* Transfer Error Interrupt management **************************************/
 661:Drivers/STM32F1xx_HAL_Driver/Src/stm32f1xx_hal_dma.c ****   else if (( RESET != (flag_it & (DMA_FLAG_TE1 << hdma->ChannelIndex))) && (RESET != (source_it & D
 662:Drivers/STM32F1xx_HAL_Driver/Src/stm32f1xx_hal_dma.c ****   {
 663:Drivers/STM32F1xx_HAL_Driver/Src/stm32f1xx_hal_dma.c ****     /* When a DMA transfer error occurs */
 664:Drivers/STM32F1xx_HAL_Driver/Src/stm32f1xx_hal_dma.c ****     /* A hardware clear of its EN bits is performed */
 665:Drivers/STM32F1xx_HAL_Driver/Src/stm32f1xx_hal_dma.c ****     /* Disable ALL DMA IT */
 666:Drivers/STM32F1xx_HAL_Driver/Src/stm32f1xx_hal_dma.c ****     __HAL_DMA_DISABLE_IT(hdma, (DMA_IT_TC | DMA_IT_HT | DMA_IT_TE));
 667:Drivers/STM32F1xx_HAL_Driver/Src/stm32f1xx_hal_dma.c **** 
 668:Drivers/STM32F1xx_HAL_Driver/Src/stm32f1xx_hal_dma.c ****     /* Clear all flags */
 669:Drivers/STM32F1xx_HAL_Driver/Src/stm32f1xx_hal_dma.c ****     hdma->DmaBaseAddress->IFCR = (DMA_ISR_GIF1 << hdma->ChannelIndex);
 670:Drivers/STM32F1xx_HAL_Driver/Src/stm32f1xx_hal_dma.c **** 
 671:Drivers/STM32F1xx_HAL_Driver/Src/stm32f1xx_hal_dma.c ****     /* Update error code */
 672:Drivers/STM32F1xx_HAL_Driver/Src/stm32f1xx_hal_dma.c ****     hdma->ErrorCode = HAL_DMA_ERROR_TE;
 673:Drivers/STM32F1xx_HAL_Driver/Src/stm32f1xx_hal_dma.c **** 
 674:Drivers/STM32F1xx_HAL_Driver/Src/stm32f1xx_hal_dma.c ****     /* Change the DMA state */
 675:Drivers/STM32F1xx_HAL_Driver/Src/stm32f1xx_hal_dma.c ****     hdma->State = HAL_DMA_STATE_READY;
 676:Drivers/STM32F1xx_HAL_Driver/Src/stm32f1xx_hal_dma.c **** 
 677:Drivers/STM32F1xx_HAL_Driver/Src/stm32f1xx_hal_dma.c ****     /* Process Unlocked */
 678:Drivers/STM32F1xx_HAL_Driver/Src/stm32f1xx_hal_dma.c ****     __HAL_UNLOCK(hdma);
 679:Drivers/STM32F1xx_HAL_Driver/Src/stm32f1xx_hal_dma.c **** 
 680:Drivers/STM32F1xx_HAL_Driver/Src/stm32f1xx_hal_dma.c ****     if (hdma->XferErrorCallback != NULL)
 681:Drivers/STM32F1xx_HAL_Driver/Src/stm32f1xx_hal_dma.c ****     {
 682:Drivers/STM32F1xx_HAL_Driver/Src/stm32f1xx_hal_dma.c ****       /* Transfer error callback */
 683:Drivers/STM32F1xx_HAL_Driver/Src/stm32f1xx_hal_dma.c ****       hdma->XferErrorCallback(hdma);
 684:Drivers/STM32F1xx_HAL_Driver/Src/stm32f1xx_hal_dma.c ****     }
 685:Drivers/STM32F1xx_HAL_Driver/Src/stm32f1xx_hal_dma.c ****   }
 686:Drivers/STM32F1xx_HAL_Driver/Src/stm32f1xx_hal_dma.c ****   return;
 687:Drivers/STM32F1xx_HAL_Driver/Src/stm32f1xx_hal_dma.c **** }
 688:Drivers/STM32F1xx_HAL_Driver/Src/stm32f1xx_hal_dma.c **** 
 689:Drivers/STM32F1xx_HAL_Driver/Src/stm32f1xx_hal_dma.c **** /**
 690:Drivers/STM32F1xx_HAL_Driver/Src/stm32f1xx_hal_dma.c ****   * @brief Register callbacks
 691:Drivers/STM32F1xx_HAL_Driver/Src/stm32f1xx_hal_dma.c ****   * @param hdma: pointer to a DMA_HandleTypeDef structure that contains
 692:Drivers/STM32F1xx_HAL_Driver/Src/stm32f1xx_hal_dma.c ****   *              the configuration information for the specified DMA Channel.
 693:Drivers/STM32F1xx_HAL_Driver/Src/stm32f1xx_hal_dma.c ****   * @param CallbackID: User Callback identifer
 694:Drivers/STM32F1xx_HAL_Driver/Src/stm32f1xx_hal_dma.c ****   *                    a HAL_DMA_CallbackIDTypeDef ENUM as parameter.
 695:Drivers/STM32F1xx_HAL_Driver/Src/stm32f1xx_hal_dma.c ****   * @param pCallback: pointer to private callbacsk function which has pointer to 
 696:Drivers/STM32F1xx_HAL_Driver/Src/stm32f1xx_hal_dma.c ****   *                   a DMA_HandleTypeDef structure as parameter.
 697:Drivers/STM32F1xx_HAL_Driver/Src/stm32f1xx_hal_dma.c ****   * @retval HAL status
 698:Drivers/STM32F1xx_HAL_Driver/Src/stm32f1xx_hal_dma.c ****   */                          
 699:Drivers/STM32F1xx_HAL_Driver/Src/stm32f1xx_hal_dma.c **** HAL_StatusTypeDef HAL_DMA_RegisterCallback(DMA_HandleTypeDef *hdma, HAL_DMA_CallbackIDTypeDef Callb
 700:Drivers/STM32F1xx_HAL_Driver/Src/stm32f1xx_hal_dma.c **** {
 701:Drivers/STM32F1xx_HAL_Driver/Src/stm32f1xx_hal_dma.c ****   HAL_StatusTypeDef status = HAL_OK;
 702:Drivers/STM32F1xx_HAL_Driver/Src/stm32f1xx_hal_dma.c ****   
 703:Drivers/STM32F1xx_HAL_Driver/Src/stm32f1xx_hal_dma.c ****   /* Process locked */
 704:Drivers/STM32F1xx_HAL_Driver/Src/stm32f1xx_hal_dma.c ****   __HAL_LOCK(hdma);
 705:Drivers/STM32F1xx_HAL_Driver/Src/stm32f1xx_hal_dma.c ****   
 706:Drivers/STM32F1xx_HAL_Driver/Src/stm32f1xx_hal_dma.c ****   if(HAL_DMA_STATE_READY == hdma->State)
 707:Drivers/STM32F1xx_HAL_Driver/Src/stm32f1xx_hal_dma.c ****   {
 708:Drivers/STM32F1xx_HAL_Driver/Src/stm32f1xx_hal_dma.c ****     switch (CallbackID)
 709:Drivers/STM32F1xx_HAL_Driver/Src/stm32f1xx_hal_dma.c ****     {
 710:Drivers/STM32F1xx_HAL_Driver/Src/stm32f1xx_hal_dma.c ****     case  HAL_DMA_XFER_CPLT_CB_ID:
 711:Drivers/STM32F1xx_HAL_Driver/Src/stm32f1xx_hal_dma.c ****       hdma->XferCpltCallback = pCallback;
 712:Drivers/STM32F1xx_HAL_Driver/Src/stm32f1xx_hal_dma.c ****       break;
 713:Drivers/STM32F1xx_HAL_Driver/Src/stm32f1xx_hal_dma.c ****       
 714:Drivers/STM32F1xx_HAL_Driver/Src/stm32f1xx_hal_dma.c ****     case  HAL_DMA_XFER_HALFCPLT_CB_ID:
 715:Drivers/STM32F1xx_HAL_Driver/Src/stm32f1xx_hal_dma.c ****       hdma->XferHalfCpltCallback = pCallback;
 716:Drivers/STM32F1xx_HAL_Driver/Src/stm32f1xx_hal_dma.c ****       break;         
ARM GAS  /var/folders/2w/5wbrmvx534s_vk8svtxz852c0000gn/T//cccJC0NJ.s 			page 14


 717:Drivers/STM32F1xx_HAL_Driver/Src/stm32f1xx_hal_dma.c **** 
 718:Drivers/STM32F1xx_HAL_Driver/Src/stm32f1xx_hal_dma.c ****     case  HAL_DMA_XFER_ERROR_CB_ID:
 719:Drivers/STM32F1xx_HAL_Driver/Src/stm32f1xx_hal_dma.c ****       hdma->XferErrorCallback = pCallback;
 720:Drivers/STM32F1xx_HAL_Driver/Src/stm32f1xx_hal_dma.c ****       break;         
 721:Drivers/STM32F1xx_HAL_Driver/Src/stm32f1xx_hal_dma.c ****       
 722:Drivers/STM32F1xx_HAL_Driver/Src/stm32f1xx_hal_dma.c ****     case  HAL_DMA_XFER_ABORT_CB_ID:
 723:Drivers/STM32F1xx_HAL_Driver/Src/stm32f1xx_hal_dma.c ****       hdma->XferAbortCallback = pCallback;
 724:Drivers/STM32F1xx_HAL_Driver/Src/stm32f1xx_hal_dma.c ****       break; 
 725:Drivers/STM32F1xx_HAL_Driver/Src/stm32f1xx_hal_dma.c ****       
 726:Drivers/STM32F1xx_HAL_Driver/Src/stm32f1xx_hal_dma.c ****     default:
 727:Drivers/STM32F1xx_HAL_Driver/Src/stm32f1xx_hal_dma.c ****       status = HAL_ERROR;
 728:Drivers/STM32F1xx_HAL_Driver/Src/stm32f1xx_hal_dma.c ****       break;                                                            
 729:Drivers/STM32F1xx_HAL_Driver/Src/stm32f1xx_hal_dma.c ****     }
 730:Drivers/STM32F1xx_HAL_Driver/Src/stm32f1xx_hal_dma.c ****   }
 731:Drivers/STM32F1xx_HAL_Driver/Src/stm32f1xx_hal_dma.c ****   else
 732:Drivers/STM32F1xx_HAL_Driver/Src/stm32f1xx_hal_dma.c ****   {
 733:Drivers/STM32F1xx_HAL_Driver/Src/stm32f1xx_hal_dma.c ****     status = HAL_ERROR;
 734:Drivers/STM32F1xx_HAL_Driver/Src/stm32f1xx_hal_dma.c ****   } 
 735:Drivers/STM32F1xx_HAL_Driver/Src/stm32f1xx_hal_dma.c ****   
 736:Drivers/STM32F1xx_HAL_Driver/Src/stm32f1xx_hal_dma.c ****   /* Release Lock */
 737:Drivers/STM32F1xx_HAL_Driver/Src/stm32f1xx_hal_dma.c ****   __HAL_UNLOCK(hdma);
 738:Drivers/STM32F1xx_HAL_Driver/Src/stm32f1xx_hal_dma.c ****   
 739:Drivers/STM32F1xx_HAL_Driver/Src/stm32f1xx_hal_dma.c ****   return status;
 740:Drivers/STM32F1xx_HAL_Driver/Src/stm32f1xx_hal_dma.c **** }
 741:Drivers/STM32F1xx_HAL_Driver/Src/stm32f1xx_hal_dma.c **** 
 742:Drivers/STM32F1xx_HAL_Driver/Src/stm32f1xx_hal_dma.c **** /**
 743:Drivers/STM32F1xx_HAL_Driver/Src/stm32f1xx_hal_dma.c ****   * @brief UnRegister callbacks
 744:Drivers/STM32F1xx_HAL_Driver/Src/stm32f1xx_hal_dma.c ****   * @param hdma: pointer to a DMA_HandleTypeDef structure that contains
 745:Drivers/STM32F1xx_HAL_Driver/Src/stm32f1xx_hal_dma.c ****   *              the configuration information for the specified DMA Channel.
 746:Drivers/STM32F1xx_HAL_Driver/Src/stm32f1xx_hal_dma.c ****   * @param CallbackID: User Callback identifer
 747:Drivers/STM32F1xx_HAL_Driver/Src/stm32f1xx_hal_dma.c ****   *                    a HAL_DMA_CallbackIDTypeDef ENUM as parameter.
 748:Drivers/STM32F1xx_HAL_Driver/Src/stm32f1xx_hal_dma.c ****   * @retval HAL status
 749:Drivers/STM32F1xx_HAL_Driver/Src/stm32f1xx_hal_dma.c ****   */              
 750:Drivers/STM32F1xx_HAL_Driver/Src/stm32f1xx_hal_dma.c **** HAL_StatusTypeDef HAL_DMA_UnRegisterCallback(DMA_HandleTypeDef *hdma, HAL_DMA_CallbackIDTypeDef Cal
 751:Drivers/STM32F1xx_HAL_Driver/Src/stm32f1xx_hal_dma.c **** {
 752:Drivers/STM32F1xx_HAL_Driver/Src/stm32f1xx_hal_dma.c ****   HAL_StatusTypeDef status = HAL_OK;
 753:Drivers/STM32F1xx_HAL_Driver/Src/stm32f1xx_hal_dma.c **** 
 754:Drivers/STM32F1xx_HAL_Driver/Src/stm32f1xx_hal_dma.c ****   /* Process locked */
 755:Drivers/STM32F1xx_HAL_Driver/Src/stm32f1xx_hal_dma.c ****   __HAL_LOCK(hdma);
 756:Drivers/STM32F1xx_HAL_Driver/Src/stm32f1xx_hal_dma.c ****   
 757:Drivers/STM32F1xx_HAL_Driver/Src/stm32f1xx_hal_dma.c ****   if(HAL_DMA_STATE_READY == hdma->State)
 758:Drivers/STM32F1xx_HAL_Driver/Src/stm32f1xx_hal_dma.c ****   {
 759:Drivers/STM32F1xx_HAL_Driver/Src/stm32f1xx_hal_dma.c ****     switch (CallbackID)
 760:Drivers/STM32F1xx_HAL_Driver/Src/stm32f1xx_hal_dma.c ****     {
 761:Drivers/STM32F1xx_HAL_Driver/Src/stm32f1xx_hal_dma.c ****     case  HAL_DMA_XFER_CPLT_CB_ID:
 762:Drivers/STM32F1xx_HAL_Driver/Src/stm32f1xx_hal_dma.c ****       hdma->XferCpltCallback = NULL;
 763:Drivers/STM32F1xx_HAL_Driver/Src/stm32f1xx_hal_dma.c ****       break;
 764:Drivers/STM32F1xx_HAL_Driver/Src/stm32f1xx_hal_dma.c **** 
 765:Drivers/STM32F1xx_HAL_Driver/Src/stm32f1xx_hal_dma.c ****     case  HAL_DMA_XFER_HALFCPLT_CB_ID:
 766:Drivers/STM32F1xx_HAL_Driver/Src/stm32f1xx_hal_dma.c ****       hdma->XferHalfCpltCallback = NULL;
 767:Drivers/STM32F1xx_HAL_Driver/Src/stm32f1xx_hal_dma.c ****       break;         
 768:Drivers/STM32F1xx_HAL_Driver/Src/stm32f1xx_hal_dma.c **** 
 769:Drivers/STM32F1xx_HAL_Driver/Src/stm32f1xx_hal_dma.c ****     case  HAL_DMA_XFER_ERROR_CB_ID:
 770:Drivers/STM32F1xx_HAL_Driver/Src/stm32f1xx_hal_dma.c ****       hdma->XferErrorCallback = NULL;
 771:Drivers/STM32F1xx_HAL_Driver/Src/stm32f1xx_hal_dma.c ****       break;         
 772:Drivers/STM32F1xx_HAL_Driver/Src/stm32f1xx_hal_dma.c **** 
 773:Drivers/STM32F1xx_HAL_Driver/Src/stm32f1xx_hal_dma.c ****     case  HAL_DMA_XFER_ABORT_CB_ID:
ARM GAS  /var/folders/2w/5wbrmvx534s_vk8svtxz852c0000gn/T//cccJC0NJ.s 			page 15


 774:Drivers/STM32F1xx_HAL_Driver/Src/stm32f1xx_hal_dma.c ****       hdma->XferAbortCallback = NULL;
 775:Drivers/STM32F1xx_HAL_Driver/Src/stm32f1xx_hal_dma.c ****       break; 
 776:Drivers/STM32F1xx_HAL_Driver/Src/stm32f1xx_hal_dma.c **** 
 777:Drivers/STM32F1xx_HAL_Driver/Src/stm32f1xx_hal_dma.c ****     case   HAL_DMA_XFER_ALL_CB_ID:
 778:Drivers/STM32F1xx_HAL_Driver/Src/stm32f1xx_hal_dma.c ****       hdma->XferCpltCallback = NULL;
 779:Drivers/STM32F1xx_HAL_Driver/Src/stm32f1xx_hal_dma.c ****       hdma->XferHalfCpltCallback = NULL;
 780:Drivers/STM32F1xx_HAL_Driver/Src/stm32f1xx_hal_dma.c ****       hdma->XferErrorCallback = NULL;
 781:Drivers/STM32F1xx_HAL_Driver/Src/stm32f1xx_hal_dma.c ****       hdma->XferAbortCallback = NULL;
 782:Drivers/STM32F1xx_HAL_Driver/Src/stm32f1xx_hal_dma.c ****       break; 
 783:Drivers/STM32F1xx_HAL_Driver/Src/stm32f1xx_hal_dma.c **** 
 784:Drivers/STM32F1xx_HAL_Driver/Src/stm32f1xx_hal_dma.c ****     default:
 785:Drivers/STM32F1xx_HAL_Driver/Src/stm32f1xx_hal_dma.c ****       status = HAL_ERROR;
 786:Drivers/STM32F1xx_HAL_Driver/Src/stm32f1xx_hal_dma.c ****       break;
 787:Drivers/STM32F1xx_HAL_Driver/Src/stm32f1xx_hal_dma.c ****     }
 788:Drivers/STM32F1xx_HAL_Driver/Src/stm32f1xx_hal_dma.c ****   }
 789:Drivers/STM32F1xx_HAL_Driver/Src/stm32f1xx_hal_dma.c ****   else
 790:Drivers/STM32F1xx_HAL_Driver/Src/stm32f1xx_hal_dma.c ****   {
 791:Drivers/STM32F1xx_HAL_Driver/Src/stm32f1xx_hal_dma.c ****     status = HAL_ERROR;
 792:Drivers/STM32F1xx_HAL_Driver/Src/stm32f1xx_hal_dma.c ****   } 
 793:Drivers/STM32F1xx_HAL_Driver/Src/stm32f1xx_hal_dma.c ****   
 794:Drivers/STM32F1xx_HAL_Driver/Src/stm32f1xx_hal_dma.c ****   /* Release Lock */
 795:Drivers/STM32F1xx_HAL_Driver/Src/stm32f1xx_hal_dma.c ****   __HAL_UNLOCK(hdma);
 796:Drivers/STM32F1xx_HAL_Driver/Src/stm32f1xx_hal_dma.c ****   
 797:Drivers/STM32F1xx_HAL_Driver/Src/stm32f1xx_hal_dma.c ****   return status;
 798:Drivers/STM32F1xx_HAL_Driver/Src/stm32f1xx_hal_dma.c **** }
 799:Drivers/STM32F1xx_HAL_Driver/Src/stm32f1xx_hal_dma.c ****   
 800:Drivers/STM32F1xx_HAL_Driver/Src/stm32f1xx_hal_dma.c **** /**
 801:Drivers/STM32F1xx_HAL_Driver/Src/stm32f1xx_hal_dma.c ****   * @}
 802:Drivers/STM32F1xx_HAL_Driver/Src/stm32f1xx_hal_dma.c ****   */
 803:Drivers/STM32F1xx_HAL_Driver/Src/stm32f1xx_hal_dma.c **** 
 804:Drivers/STM32F1xx_HAL_Driver/Src/stm32f1xx_hal_dma.c **** /** @defgroup DMA_Exported_Functions_Group3 Peripheral State and Errors functions
 805:Drivers/STM32F1xx_HAL_Driver/Src/stm32f1xx_hal_dma.c ****   *  @brief    Peripheral State and Errors functions
 806:Drivers/STM32F1xx_HAL_Driver/Src/stm32f1xx_hal_dma.c ****   *
 807:Drivers/STM32F1xx_HAL_Driver/Src/stm32f1xx_hal_dma.c **** @verbatim
 808:Drivers/STM32F1xx_HAL_Driver/Src/stm32f1xx_hal_dma.c ****  ===============================================================================
 809:Drivers/STM32F1xx_HAL_Driver/Src/stm32f1xx_hal_dma.c ****             ##### Peripheral State and Errors functions #####
 810:Drivers/STM32F1xx_HAL_Driver/Src/stm32f1xx_hal_dma.c ****  ===============================================================================  
 811:Drivers/STM32F1xx_HAL_Driver/Src/stm32f1xx_hal_dma.c ****     [..]
 812:Drivers/STM32F1xx_HAL_Driver/Src/stm32f1xx_hal_dma.c ****     This subsection provides functions allowing to
 813:Drivers/STM32F1xx_HAL_Driver/Src/stm32f1xx_hal_dma.c ****       (+) Check the DMA state
 814:Drivers/STM32F1xx_HAL_Driver/Src/stm32f1xx_hal_dma.c ****       (+) Get error code
 815:Drivers/STM32F1xx_HAL_Driver/Src/stm32f1xx_hal_dma.c **** 
 816:Drivers/STM32F1xx_HAL_Driver/Src/stm32f1xx_hal_dma.c **** @endverbatim
 817:Drivers/STM32F1xx_HAL_Driver/Src/stm32f1xx_hal_dma.c ****   * @{
 818:Drivers/STM32F1xx_HAL_Driver/Src/stm32f1xx_hal_dma.c ****   */
 819:Drivers/STM32F1xx_HAL_Driver/Src/stm32f1xx_hal_dma.c **** 
 820:Drivers/STM32F1xx_HAL_Driver/Src/stm32f1xx_hal_dma.c **** /**
 821:Drivers/STM32F1xx_HAL_Driver/Src/stm32f1xx_hal_dma.c ****   * @brief  Return the DMA hande state.
 822:Drivers/STM32F1xx_HAL_Driver/Src/stm32f1xx_hal_dma.c ****   * @param  hdma: pointer to a DMA_HandleTypeDef structure that contains
 823:Drivers/STM32F1xx_HAL_Driver/Src/stm32f1xx_hal_dma.c ****   *               the configuration information for the specified DMA Channel.
 824:Drivers/STM32F1xx_HAL_Driver/Src/stm32f1xx_hal_dma.c ****   * @retval HAL state
 825:Drivers/STM32F1xx_HAL_Driver/Src/stm32f1xx_hal_dma.c ****   */
 826:Drivers/STM32F1xx_HAL_Driver/Src/stm32f1xx_hal_dma.c **** HAL_DMA_StateTypeDef HAL_DMA_GetState(DMA_HandleTypeDef *hdma)
 827:Drivers/STM32F1xx_HAL_Driver/Src/stm32f1xx_hal_dma.c **** {
 828:Drivers/STM32F1xx_HAL_Driver/Src/stm32f1xx_hal_dma.c ****   /* Return DMA handle state */
 829:Drivers/STM32F1xx_HAL_Driver/Src/stm32f1xx_hal_dma.c ****   return hdma->State;
 830:Drivers/STM32F1xx_HAL_Driver/Src/stm32f1xx_hal_dma.c **** }
ARM GAS  /var/folders/2w/5wbrmvx534s_vk8svtxz852c0000gn/T//cccJC0NJ.s 			page 16


 831:Drivers/STM32F1xx_HAL_Driver/Src/stm32f1xx_hal_dma.c **** 
 832:Drivers/STM32F1xx_HAL_Driver/Src/stm32f1xx_hal_dma.c **** /**
 833:Drivers/STM32F1xx_HAL_Driver/Src/stm32f1xx_hal_dma.c ****   * @brief  Return the DMA error code.
 834:Drivers/STM32F1xx_HAL_Driver/Src/stm32f1xx_hal_dma.c ****   * @param  hdma : pointer to a DMA_HandleTypeDef structure that contains
 835:Drivers/STM32F1xx_HAL_Driver/Src/stm32f1xx_hal_dma.c ****   *              the configuration information for the specified DMA Channel.
 836:Drivers/STM32F1xx_HAL_Driver/Src/stm32f1xx_hal_dma.c ****   * @retval DMA Error Code
 837:Drivers/STM32F1xx_HAL_Driver/Src/stm32f1xx_hal_dma.c ****   */
 838:Drivers/STM32F1xx_HAL_Driver/Src/stm32f1xx_hal_dma.c **** uint32_t HAL_DMA_GetError(DMA_HandleTypeDef *hdma)
 839:Drivers/STM32F1xx_HAL_Driver/Src/stm32f1xx_hal_dma.c **** {
 840:Drivers/STM32F1xx_HAL_Driver/Src/stm32f1xx_hal_dma.c ****   return hdma->ErrorCode;
 841:Drivers/STM32F1xx_HAL_Driver/Src/stm32f1xx_hal_dma.c **** }
 842:Drivers/STM32F1xx_HAL_Driver/Src/stm32f1xx_hal_dma.c **** 
 843:Drivers/STM32F1xx_HAL_Driver/Src/stm32f1xx_hal_dma.c **** /**
 844:Drivers/STM32F1xx_HAL_Driver/Src/stm32f1xx_hal_dma.c ****   * @}
 845:Drivers/STM32F1xx_HAL_Driver/Src/stm32f1xx_hal_dma.c ****   */
 846:Drivers/STM32F1xx_HAL_Driver/Src/stm32f1xx_hal_dma.c **** 
 847:Drivers/STM32F1xx_HAL_Driver/Src/stm32f1xx_hal_dma.c **** /**
 848:Drivers/STM32F1xx_HAL_Driver/Src/stm32f1xx_hal_dma.c ****   * @}
 849:Drivers/STM32F1xx_HAL_Driver/Src/stm32f1xx_hal_dma.c ****   */
 850:Drivers/STM32F1xx_HAL_Driver/Src/stm32f1xx_hal_dma.c **** 
 851:Drivers/STM32F1xx_HAL_Driver/Src/stm32f1xx_hal_dma.c **** /** @addtogroup DMA_Private_Functions
 852:Drivers/STM32F1xx_HAL_Driver/Src/stm32f1xx_hal_dma.c ****   * @{
 853:Drivers/STM32F1xx_HAL_Driver/Src/stm32f1xx_hal_dma.c ****   */
 854:Drivers/STM32F1xx_HAL_Driver/Src/stm32f1xx_hal_dma.c **** 
 855:Drivers/STM32F1xx_HAL_Driver/Src/stm32f1xx_hal_dma.c **** /**
 856:Drivers/STM32F1xx_HAL_Driver/Src/stm32f1xx_hal_dma.c ****   * @brief  Sets the DMA Transfer parameter.
 857:Drivers/STM32F1xx_HAL_Driver/Src/stm32f1xx_hal_dma.c ****   * @param  hdma:       pointer to a DMA_HandleTypeDef structure that contains
 858:Drivers/STM32F1xx_HAL_Driver/Src/stm32f1xx_hal_dma.c ****   *                     the configuration information for the specified DMA Channel.
 859:Drivers/STM32F1xx_HAL_Driver/Src/stm32f1xx_hal_dma.c ****   * @param  SrcAddress: The source memory Buffer address
 860:Drivers/STM32F1xx_HAL_Driver/Src/stm32f1xx_hal_dma.c ****   * @param  DstAddress: The destination memory Buffer address
 861:Drivers/STM32F1xx_HAL_Driver/Src/stm32f1xx_hal_dma.c ****   * @param  DataLength: The length of data to be transferred from source to destination
 862:Drivers/STM32F1xx_HAL_Driver/Src/stm32f1xx_hal_dma.c ****   * @retval HAL status
 863:Drivers/STM32F1xx_HAL_Driver/Src/stm32f1xx_hal_dma.c ****   */
 864:Drivers/STM32F1xx_HAL_Driver/Src/stm32f1xx_hal_dma.c **** static void DMA_SetConfig(DMA_HandleTypeDef *hdma, uint32_t SrcAddress, uint32_t DstAddress, uint32
 865:Drivers/STM32F1xx_HAL_Driver/Src/stm32f1xx_hal_dma.c **** {
  27              		.loc 1 865 1 view -0
  28              		.cfi_startproc
  29              		@ args = 0, pretend = 0, frame = 0
  30              		@ frame_needed = 0, uses_anonymous_args = 0
  31              		@ link register save eliminated.
  32              		.loc 1 865 1 is_stmt 0 view .LVU1
  33 0000 30B4     		push	{r4, r5}
  34              	.LCFI0:
  35              		.cfi_def_cfa_offset 8
  36              		.cfi_offset 4, -8
  37              		.cfi_offset 5, -4
 866:Drivers/STM32F1xx_HAL_Driver/Src/stm32f1xx_hal_dma.c ****   /* Clear all flags */
 867:Drivers/STM32F1xx_HAL_Driver/Src/stm32f1xx_hal_dma.c ****   hdma->DmaBaseAddress->IFCR = (DMA_ISR_GIF1 << hdma->ChannelIndex);
  38              		.loc 1 867 3 is_stmt 1 view .LVU2
  39              		.loc 1 867 46 is_stmt 0 view .LVU3
  40 0002 0124     		movs	r4, #1
  41 0004 056C     		ldr	r5, [r0, #64]
  42 0006 AC40     		lsls	r4, r4, r5
  43              		.loc 1 867 30 view .LVU4
  44 0008 C56B     		ldr	r5, [r0, #60]
  45 000a 6C60     		str	r4, [r5, #4]
 868:Drivers/STM32F1xx_HAL_Driver/Src/stm32f1xx_hal_dma.c **** 
ARM GAS  /var/folders/2w/5wbrmvx534s_vk8svtxz852c0000gn/T//cccJC0NJ.s 			page 17


 869:Drivers/STM32F1xx_HAL_Driver/Src/stm32f1xx_hal_dma.c ****   /* Configure DMA Channel data length */
 870:Drivers/STM32F1xx_HAL_Driver/Src/stm32f1xx_hal_dma.c ****   hdma->Instance->CNDTR = DataLength;
  46              		.loc 1 870 3 is_stmt 1 view .LVU5
  47              		.loc 1 870 7 is_stmt 0 view .LVU6
  48 000c 0468     		ldr	r4, [r0]
  49              		.loc 1 870 25 view .LVU7
  50 000e 6360     		str	r3, [r4, #4]
 871:Drivers/STM32F1xx_HAL_Driver/Src/stm32f1xx_hal_dma.c **** 
 872:Drivers/STM32F1xx_HAL_Driver/Src/stm32f1xx_hal_dma.c ****   /* Memory to Peripheral */
 873:Drivers/STM32F1xx_HAL_Driver/Src/stm32f1xx_hal_dma.c ****   if((hdma->Init.Direction) == DMA_MEMORY_TO_PERIPH)
  51              		.loc 1 873 3 is_stmt 1 view .LVU8
  52              		.loc 1 873 17 is_stmt 0 view .LVU9
  53 0010 4368     		ldr	r3, [r0, #4]
  54              	.LVL1:
  55              		.loc 1 873 5 view .LVU10
  56 0012 102B     		cmp	r3, #16
  57 0014 05D0     		beq	.L5
 874:Drivers/STM32F1xx_HAL_Driver/Src/stm32f1xx_hal_dma.c ****   {
 875:Drivers/STM32F1xx_HAL_Driver/Src/stm32f1xx_hal_dma.c ****     /* Configure DMA Channel destination address */
 876:Drivers/STM32F1xx_HAL_Driver/Src/stm32f1xx_hal_dma.c ****     hdma->Instance->CPAR = DstAddress;
 877:Drivers/STM32F1xx_HAL_Driver/Src/stm32f1xx_hal_dma.c **** 
 878:Drivers/STM32F1xx_HAL_Driver/Src/stm32f1xx_hal_dma.c ****     /* Configure DMA Channel source address */
 879:Drivers/STM32F1xx_HAL_Driver/Src/stm32f1xx_hal_dma.c ****     hdma->Instance->CMAR = SrcAddress;
 880:Drivers/STM32F1xx_HAL_Driver/Src/stm32f1xx_hal_dma.c ****   }
 881:Drivers/STM32F1xx_HAL_Driver/Src/stm32f1xx_hal_dma.c ****   /* Peripheral to Memory */
 882:Drivers/STM32F1xx_HAL_Driver/Src/stm32f1xx_hal_dma.c ****   else
 883:Drivers/STM32F1xx_HAL_Driver/Src/stm32f1xx_hal_dma.c ****   {
 884:Drivers/STM32F1xx_HAL_Driver/Src/stm32f1xx_hal_dma.c ****     /* Configure DMA Channel source address */
 885:Drivers/STM32F1xx_HAL_Driver/Src/stm32f1xx_hal_dma.c ****     hdma->Instance->CPAR = SrcAddress;
  58              		.loc 1 885 5 is_stmt 1 view .LVU11
  59              		.loc 1 885 9 is_stmt 0 view .LVU12
  60 0016 0368     		ldr	r3, [r0]
  61              		.loc 1 885 26 view .LVU13
  62 0018 9960     		str	r1, [r3, #8]
  63              	.LVL2:
 886:Drivers/STM32F1xx_HAL_Driver/Src/stm32f1xx_hal_dma.c **** 
 887:Drivers/STM32F1xx_HAL_Driver/Src/stm32f1xx_hal_dma.c ****     /* Configure DMA Channel destination address */
 888:Drivers/STM32F1xx_HAL_Driver/Src/stm32f1xx_hal_dma.c ****     hdma->Instance->CMAR = DstAddress;
  64              		.loc 1 888 5 is_stmt 1 view .LVU14
  65              		.loc 1 888 9 is_stmt 0 view .LVU15
  66 001a 0368     		ldr	r3, [r0]
  67              		.loc 1 888 26 view .LVU16
  68 001c DA60     		str	r2, [r3, #12]
  69              	.L1:
 889:Drivers/STM32F1xx_HAL_Driver/Src/stm32f1xx_hal_dma.c ****   }
 890:Drivers/STM32F1xx_HAL_Driver/Src/stm32f1xx_hal_dma.c **** }
  70              		.loc 1 890 1 view .LVU17
  71 001e 30BC     		pop	{r4, r5}
  72              	.LCFI1:
  73              		.cfi_remember_state
  74              		.cfi_restore 5
  75              		.cfi_restore 4
  76              		.cfi_def_cfa_offset 0
  77 0020 7047     		bx	lr
  78              	.LVL3:
  79              	.L5:
  80              	.LCFI2:
ARM GAS  /var/folders/2w/5wbrmvx534s_vk8svtxz852c0000gn/T//cccJC0NJ.s 			page 18


  81              		.cfi_restore_state
 876:Drivers/STM32F1xx_HAL_Driver/Src/stm32f1xx_hal_dma.c **** 
  82              		.loc 1 876 5 is_stmt 1 view .LVU18
 876:Drivers/STM32F1xx_HAL_Driver/Src/stm32f1xx_hal_dma.c **** 
  83              		.loc 1 876 9 is_stmt 0 view .LVU19
  84 0022 0368     		ldr	r3, [r0]
 876:Drivers/STM32F1xx_HAL_Driver/Src/stm32f1xx_hal_dma.c **** 
  85              		.loc 1 876 26 view .LVU20
  86 0024 9A60     		str	r2, [r3, #8]
  87              	.LVL4:
 879:Drivers/STM32F1xx_HAL_Driver/Src/stm32f1xx_hal_dma.c ****   }
  88              		.loc 1 879 5 is_stmt 1 view .LVU21
 879:Drivers/STM32F1xx_HAL_Driver/Src/stm32f1xx_hal_dma.c ****   }
  89              		.loc 1 879 9 is_stmt 0 view .LVU22
  90 0026 0368     		ldr	r3, [r0]
 879:Drivers/STM32F1xx_HAL_Driver/Src/stm32f1xx_hal_dma.c ****   }
  91              		.loc 1 879 26 view .LVU23
  92 0028 D960     		str	r1, [r3, #12]
  93 002a F8E7     		b	.L1
  94              		.cfi_endproc
  95              	.LFE78:
  97              		.section	.text.HAL_DMA_Init,"ax",%progbits
  98              		.align	1
  99              		.global	HAL_DMA_Init
 100              		.syntax unified
 101              		.thumb
 102              		.thumb_func
 104              	HAL_DMA_Init:
 105              	.LVL5:
 106              	.LFB66:
 162:Drivers/STM32F1xx_HAL_Driver/Src/stm32f1xx_hal_dma.c ****   uint32_t tmp = 0U;
 107              		.loc 1 162 1 is_stmt 1 view -0
 108              		.cfi_startproc
 109              		@ args = 0, pretend = 0, frame = 0
 110              		@ frame_needed = 0, uses_anonymous_args = 0
 111              		@ link register save eliminated.
 163:Drivers/STM32F1xx_HAL_Driver/Src/stm32f1xx_hal_dma.c **** 
 112              		.loc 1 163 3 view .LVU25
 166:Drivers/STM32F1xx_HAL_Driver/Src/stm32f1xx_hal_dma.c ****   {
 113              		.loc 1 166 3 view .LVU26
 166:Drivers/STM32F1xx_HAL_Driver/Src/stm32f1xx_hal_dma.c ****   {
 114              		.loc 1 166 5 is_stmt 0 view .LVU27
 115 0000 0028     		cmp	r0, #0
 116 0002 3ED0     		beq	.L10
 162:Drivers/STM32F1xx_HAL_Driver/Src/stm32f1xx_hal_dma.c ****   uint32_t tmp = 0U;
 117              		.loc 1 162 1 view .LVU28
 118 0004 10B4     		push	{r4}
 119              	.LCFI3:
 120              		.cfi_def_cfa_offset 4
 121              		.cfi_offset 4, -4
 122 0006 0346     		mov	r3, r0
 172:Drivers/STM32F1xx_HAL_Driver/Src/stm32f1xx_hal_dma.c ****   assert_param(IS_DMA_DIRECTION(hdma->Init.Direction));
 123              		.loc 1 172 3 is_stmt 1 view .LVU29
 173:Drivers/STM32F1xx_HAL_Driver/Src/stm32f1xx_hal_dma.c ****   assert_param(IS_DMA_PERIPHERAL_INC_STATE(hdma->Init.PeriphInc));
 124              		.loc 1 173 3 view .LVU30
 174:Drivers/STM32F1xx_HAL_Driver/Src/stm32f1xx_hal_dma.c ****   assert_param(IS_DMA_MEMORY_INC_STATE(hdma->Init.MemInc));
 125              		.loc 1 174 3 view .LVU31
ARM GAS  /var/folders/2w/5wbrmvx534s_vk8svtxz852c0000gn/T//cccJC0NJ.s 			page 19


 175:Drivers/STM32F1xx_HAL_Driver/Src/stm32f1xx_hal_dma.c ****   assert_param(IS_DMA_PERIPHERAL_DATA_SIZE(hdma->Init.PeriphDataAlignment));
 126              		.loc 1 175 3 view .LVU32
 176:Drivers/STM32F1xx_HAL_Driver/Src/stm32f1xx_hal_dma.c ****   assert_param(IS_DMA_MEMORY_DATA_SIZE(hdma->Init.MemDataAlignment));
 127              		.loc 1 176 3 view .LVU33
 177:Drivers/STM32F1xx_HAL_Driver/Src/stm32f1xx_hal_dma.c ****   assert_param(IS_DMA_MODE(hdma->Init.Mode));
 128              		.loc 1 177 3 view .LVU34
 178:Drivers/STM32F1xx_HAL_Driver/Src/stm32f1xx_hal_dma.c ****   assert_param(IS_DMA_PRIORITY(hdma->Init.Priority));
 129              		.loc 1 178 3 view .LVU35
 179:Drivers/STM32F1xx_HAL_Driver/Src/stm32f1xx_hal_dma.c **** 
 130              		.loc 1 179 3 view .LVU36
 183:Drivers/STM32F1xx_HAL_Driver/Src/stm32f1xx_hal_dma.c ****   {
 131              		.loc 1 183 3 view .LVU37
 183:Drivers/STM32F1xx_HAL_Driver/Src/stm32f1xx_hal_dma.c ****   {
 132              		.loc 1 183 22 is_stmt 0 view .LVU38
 133 0008 0068     		ldr	r0, [r0]
 134              	.LVL6:
 183:Drivers/STM32F1xx_HAL_Driver/Src/stm32f1xx_hal_dma.c ****   {
 135              		.loc 1 183 6 view .LVU39
 136 000a 1F4A     		ldr	r2, .L15
 137 000c 9042     		cmp	r0, r2
 138 000e 2DD8     		bhi	.L8
 186:Drivers/STM32F1xx_HAL_Driver/Src/stm32f1xx_hal_dma.c ****     hdma->DmaBaseAddress = DMA1;
 139              		.loc 1 186 5 is_stmt 1 view .LVU40
 186:Drivers/STM32F1xx_HAL_Driver/Src/stm32f1xx_hal_dma.c ****     hdma->DmaBaseAddress = DMA1;
 140              		.loc 1 186 53 is_stmt 0 view .LVU41
 141 0010 1E4A     		ldr	r2, .L15+4
 142 0012 0244     		add	r2, r2, r0
 186:Drivers/STM32F1xx_HAL_Driver/Src/stm32f1xx_hal_dma.c ****     hdma->DmaBaseAddress = DMA1;
 143              		.loc 1 186 80 view .LVU42
 144 0014 1E49     		ldr	r1, .L15+8
 145 0016 A1FB0212 		umull	r1, r2, r1, r2
 146 001a 1209     		lsrs	r2, r2, #4
 186:Drivers/STM32F1xx_HAL_Driver/Src/stm32f1xx_hal_dma.c ****     hdma->DmaBaseAddress = DMA1;
 147              		.loc 1 186 135 view .LVU43
 148 001c 9200     		lsls	r2, r2, #2
 186:Drivers/STM32F1xx_HAL_Driver/Src/stm32f1xx_hal_dma.c ****     hdma->DmaBaseAddress = DMA1;
 149              		.loc 1 186 24 view .LVU44
 150 001e 1A64     		str	r2, [r3, #64]
 187:Drivers/STM32F1xx_HAL_Driver/Src/stm32f1xx_hal_dma.c ****   }
 151              		.loc 1 187 5 is_stmt 1 view .LVU45
 187:Drivers/STM32F1xx_HAL_Driver/Src/stm32f1xx_hal_dma.c ****   }
 152              		.loc 1 187 26 is_stmt 0 view .LVU46
 153 0020 1C4A     		ldr	r2, .L15+12
 154 0022 DA63     		str	r2, [r3, #60]
 155              	.L9:
 202:Drivers/STM32F1xx_HAL_Driver/Src/stm32f1xx_hal_dma.c **** 
 156              		.loc 1 202 3 is_stmt 1 view .LVU47
 202:Drivers/STM32F1xx_HAL_Driver/Src/stm32f1xx_hal_dma.c **** 
 157              		.loc 1 202 15 is_stmt 0 view .LVU48
 158 0024 0222     		movs	r2, #2
 159 0026 83F82120 		strb	r2, [r3, #33]
 205:Drivers/STM32F1xx_HAL_Driver/Src/stm32f1xx_hal_dma.c **** 
 160              		.loc 1 205 3 is_stmt 1 view .LVU49
 205:Drivers/STM32F1xx_HAL_Driver/Src/stm32f1xx_hal_dma.c **** 
 161              		.loc 1 205 7 is_stmt 0 view .LVU50
 162 002a 0168     		ldr	r1, [r0]
 163              	.LVL7:
ARM GAS  /var/folders/2w/5wbrmvx534s_vk8svtxz852c0000gn/T//cccJC0NJ.s 			page 20


 208:Drivers/STM32F1xx_HAL_Driver/Src/stm32f1xx_hal_dma.c ****                       DMA_CCR_MINC  | DMA_CCR_PINC   | DMA_CCR_CIRC   | \
 164              		.loc 1 208 3 is_stmt 1 view .LVU51
 208:Drivers/STM32F1xx_HAL_Driver/Src/stm32f1xx_hal_dma.c ****                       DMA_CCR_MINC  | DMA_CCR_PINC   | DMA_CCR_CIRC   | \
 165              		.loc 1 208 7 is_stmt 0 view .LVU52
 166 002c 21F47F51 		bic	r1, r1, #16320
 167              	.LVL8:
 208:Drivers/STM32F1xx_HAL_Driver/Src/stm32f1xx_hal_dma.c ****                       DMA_CCR_MINC  | DMA_CCR_PINC   | DMA_CCR_CIRC   | \
 168              		.loc 1 208 7 view .LVU53
 169 0030 21F03001 		bic	r1, r1, #48
 170              	.LVL9:
 213:Drivers/STM32F1xx_HAL_Driver/Src/stm32f1xx_hal_dma.c ****           hdma->Init.PeriphInc           | hdma->Init.MemInc           |
 171              		.loc 1 213 3 is_stmt 1 view .LVU54
 213:Drivers/STM32F1xx_HAL_Driver/Src/stm32f1xx_hal_dma.c ****           hdma->Init.PeriphInc           | hdma->Init.MemInc           |
 172              		.loc 1 213 21 is_stmt 0 view .LVU55
 173 0034 5A68     		ldr	r2, [r3, #4]
 213:Drivers/STM32F1xx_HAL_Driver/Src/stm32f1xx_hal_dma.c ****           hdma->Init.PeriphInc           | hdma->Init.MemInc           |
 174              		.loc 1 213 39 view .LVU56
 175 0036 9C68     		ldr	r4, [r3, #8]
 176 0038 2243     		orrs	r2, r2, r4
 214:Drivers/STM32F1xx_HAL_Driver/Src/stm32f1xx_hal_dma.c ****           hdma->Init.PeriphDataAlignment | hdma->Init.MemDataAlignment |
 177              		.loc 1 214 42 view .LVU57
 178 003a DC68     		ldr	r4, [r3, #12]
 179 003c 2243     		orrs	r2, r2, r4
 214:Drivers/STM32F1xx_HAL_Driver/Src/stm32f1xx_hal_dma.c ****           hdma->Init.PeriphDataAlignment | hdma->Init.MemDataAlignment |
 180              		.loc 1 214 72 view .LVU58
 181 003e 1C69     		ldr	r4, [r3, #16]
 182 0040 2243     		orrs	r2, r2, r4
 215:Drivers/STM32F1xx_HAL_Driver/Src/stm32f1xx_hal_dma.c ****           hdma->Init.Mode                | hdma->Init.Priority;
 183              		.loc 1 215 42 view .LVU59
 184 0042 5C69     		ldr	r4, [r3, #20]
 185 0044 2243     		orrs	r2, r2, r4
 215:Drivers/STM32F1xx_HAL_Driver/Src/stm32f1xx_hal_dma.c ****           hdma->Init.Mode                | hdma->Init.Priority;
 186              		.loc 1 215 72 view .LVU60
 187 0046 9C69     		ldr	r4, [r3, #24]
 188 0048 2243     		orrs	r2, r2, r4
 216:Drivers/STM32F1xx_HAL_Driver/Src/stm32f1xx_hal_dma.c **** 
 189              		.loc 1 216 42 view .LVU61
 190 004a DC69     		ldr	r4, [r3, #28]
 191 004c 2243     		orrs	r2, r2, r4
 213:Drivers/STM32F1xx_HAL_Driver/Src/stm32f1xx_hal_dma.c ****           hdma->Init.PeriphInc           | hdma->Init.MemInc           |
 192              		.loc 1 213 7 view .LVU62
 193 004e 0A43     		orrs	r2, r2, r1
 194              	.LVL10:
 219:Drivers/STM32F1xx_HAL_Driver/Src/stm32f1xx_hal_dma.c **** 
 195              		.loc 1 219 3 is_stmt 1 view .LVU63
 219:Drivers/STM32F1xx_HAL_Driver/Src/stm32f1xx_hal_dma.c **** 
 196              		.loc 1 219 23 is_stmt 0 view .LVU64
 197 0050 0260     		str	r2, [r0]
 223:Drivers/STM32F1xx_HAL_Driver/Src/stm32f1xx_hal_dma.c ****   hdma->XferHalfCpltCallback = NULL;
 198              		.loc 1 223 3 is_stmt 1 view .LVU65
 223:Drivers/STM32F1xx_HAL_Driver/Src/stm32f1xx_hal_dma.c ****   hdma->XferHalfCpltCallback = NULL;
 199              		.loc 1 223 26 is_stmt 0 view .LVU66
 200 0052 0020     		movs	r0, #0
 201 0054 9862     		str	r0, [r3, #40]
 224:Drivers/STM32F1xx_HAL_Driver/Src/stm32f1xx_hal_dma.c ****   hdma->XferErrorCallback = NULL;
 202              		.loc 1 224 3 is_stmt 1 view .LVU67
 224:Drivers/STM32F1xx_HAL_Driver/Src/stm32f1xx_hal_dma.c ****   hdma->XferErrorCallback = NULL;
ARM GAS  /var/folders/2w/5wbrmvx534s_vk8svtxz852c0000gn/T//cccJC0NJ.s 			page 21


 203              		.loc 1 224 30 is_stmt 0 view .LVU68
 204 0056 D862     		str	r0, [r3, #44]
 225:Drivers/STM32F1xx_HAL_Driver/Src/stm32f1xx_hal_dma.c ****   hdma->XferAbortCallback = NULL;
 205              		.loc 1 225 3 is_stmt 1 view .LVU69
 225:Drivers/STM32F1xx_HAL_Driver/Src/stm32f1xx_hal_dma.c ****   hdma->XferAbortCallback = NULL;
 206              		.loc 1 225 27 is_stmt 0 view .LVU70
 207 0058 1863     		str	r0, [r3, #48]
 226:Drivers/STM32F1xx_HAL_Driver/Src/stm32f1xx_hal_dma.c **** 
 208              		.loc 1 226 3 is_stmt 1 view .LVU71
 226:Drivers/STM32F1xx_HAL_Driver/Src/stm32f1xx_hal_dma.c **** 
 209              		.loc 1 226 27 is_stmt 0 view .LVU72
 210 005a 5863     		str	r0, [r3, #52]
 229:Drivers/STM32F1xx_HAL_Driver/Src/stm32f1xx_hal_dma.c **** 
 211              		.loc 1 229 3 is_stmt 1 view .LVU73
 229:Drivers/STM32F1xx_HAL_Driver/Src/stm32f1xx_hal_dma.c **** 
 212              		.loc 1 229 19 is_stmt 0 view .LVU74
 213 005c 9863     		str	r0, [r3, #56]
 232:Drivers/STM32F1xx_HAL_Driver/Src/stm32f1xx_hal_dma.c ****   /* Allocate lock resource and initialize it */
 214              		.loc 1 232 3 is_stmt 1 view .LVU75
 232:Drivers/STM32F1xx_HAL_Driver/Src/stm32f1xx_hal_dma.c ****   /* Allocate lock resource and initialize it */
 215              		.loc 1 232 15 is_stmt 0 view .LVU76
 216 005e 0122     		movs	r2, #1
 217              	.LVL11:
 232:Drivers/STM32F1xx_HAL_Driver/Src/stm32f1xx_hal_dma.c ****   /* Allocate lock resource and initialize it */
 218              		.loc 1 232 15 view .LVU77
 219 0060 83F82120 		strb	r2, [r3, #33]
 234:Drivers/STM32F1xx_HAL_Driver/Src/stm32f1xx_hal_dma.c ****   
 220              		.loc 1 234 3 is_stmt 1 view .LVU78
 234:Drivers/STM32F1xx_HAL_Driver/Src/stm32f1xx_hal_dma.c ****   
 221              		.loc 1 234 14 is_stmt 0 view .LVU79
 222 0064 83F82000 		strb	r0, [r3, #32]
 236:Drivers/STM32F1xx_HAL_Driver/Src/stm32f1xx_hal_dma.c **** }
 223              		.loc 1 236 3 is_stmt 1 view .LVU80
 237:Drivers/STM32F1xx_HAL_Driver/Src/stm32f1xx_hal_dma.c **** 
 224              		.loc 1 237 1 is_stmt 0 view .LVU81
 225 0068 10BC     		pop	{r4}
 226              	.LCFI4:
 227              		.cfi_remember_state
 228              		.cfi_restore 4
 229              		.cfi_def_cfa_offset 0
 230 006a 7047     		bx	lr
 231              	.LVL12:
 232              	.L8:
 233              	.LCFI5:
 234              		.cfi_restore_state
 192:Drivers/STM32F1xx_HAL_Driver/Src/stm32f1xx_hal_dma.c ****     hdma->DmaBaseAddress = DMA2;
 235              		.loc 1 192 5 is_stmt 1 view .LVU82
 192:Drivers/STM32F1xx_HAL_Driver/Src/stm32f1xx_hal_dma.c ****     hdma->DmaBaseAddress = DMA2;
 236              		.loc 1 192 53 is_stmt 0 view .LVU83
 237 006c 0A4A     		ldr	r2, .L15+16
 238 006e 0244     		add	r2, r2, r0
 192:Drivers/STM32F1xx_HAL_Driver/Src/stm32f1xx_hal_dma.c ****     hdma->DmaBaseAddress = DMA2;
 239              		.loc 1 192 80 view .LVU84
 240 0070 0749     		ldr	r1, .L15+8
 241 0072 A1FB0212 		umull	r1, r2, r1, r2
 242 0076 1209     		lsrs	r2, r2, #4
 192:Drivers/STM32F1xx_HAL_Driver/Src/stm32f1xx_hal_dma.c ****     hdma->DmaBaseAddress = DMA2;
ARM GAS  /var/folders/2w/5wbrmvx534s_vk8svtxz852c0000gn/T//cccJC0NJ.s 			page 22


 243              		.loc 1 192 135 view .LVU85
 244 0078 9200     		lsls	r2, r2, #2
 192:Drivers/STM32F1xx_HAL_Driver/Src/stm32f1xx_hal_dma.c ****     hdma->DmaBaseAddress = DMA2;
 245              		.loc 1 192 24 view .LVU86
 246 007a 1A64     		str	r2, [r3, #64]
 193:Drivers/STM32F1xx_HAL_Driver/Src/stm32f1xx_hal_dma.c ****   }
 247              		.loc 1 193 5 is_stmt 1 view .LVU87
 193:Drivers/STM32F1xx_HAL_Driver/Src/stm32f1xx_hal_dma.c ****   }
 248              		.loc 1 193 26 is_stmt 0 view .LVU88
 249 007c 074A     		ldr	r2, .L15+20
 250 007e DA63     		str	r2, [r3, #60]
 251 0080 D0E7     		b	.L9
 252              	.LVL13:
 253              	.L10:
 254              	.LCFI6:
 255              		.cfi_def_cfa_offset 0
 256              		.cfi_restore 4
 168:Drivers/STM32F1xx_HAL_Driver/Src/stm32f1xx_hal_dma.c ****   }
 257              		.loc 1 168 12 view .LVU89
 258 0082 0120     		movs	r0, #1
 259              	.LVL14:
 237:Drivers/STM32F1xx_HAL_Driver/Src/stm32f1xx_hal_dma.c **** 
 260              		.loc 1 237 1 view .LVU90
 261 0084 7047     		bx	lr
 262              	.L16:
 263 0086 00BF     		.align	2
 264              	.L15:
 265 0088 07040240 		.word	1073873927
 266 008c F8FFFDBF 		.word	-1073872904
 267 0090 CDCCCCCC 		.word	-858993459
 268 0094 00000240 		.word	1073872896
 269 0098 F8FBFDBF 		.word	-1073873928
 270 009c 00040240 		.word	1073873920
 271              		.cfi_endproc
 272              	.LFE66:
 274              		.section	.text.HAL_DMA_DeInit,"ax",%progbits
 275              		.align	1
 276              		.global	HAL_DMA_DeInit
 277              		.syntax unified
 278              		.thumb
 279              		.thumb_func
 281              	HAL_DMA_DeInit:
 282              	.LVL15:
 283              	.LFB67:
 246:Drivers/STM32F1xx_HAL_Driver/Src/stm32f1xx_hal_dma.c ****   /* Check the DMA handle allocation */
 284              		.loc 1 246 1 is_stmt 1 view -0
 285              		.cfi_startproc
 286              		@ args = 0, pretend = 0, frame = 0
 287              		@ frame_needed = 0, uses_anonymous_args = 0
 288              		@ link register save eliminated.
 248:Drivers/STM32F1xx_HAL_Driver/Src/stm32f1xx_hal_dma.c ****   {
 289              		.loc 1 248 3 view .LVU92
 248:Drivers/STM32F1xx_HAL_Driver/Src/stm32f1xx_hal_dma.c ****   {
 290              		.loc 1 248 5 is_stmt 0 view .LVU93
 291 0000 0346     		mov	r3, r0
 292 0002 0028     		cmp	r0, #0
 293 0004 32D0     		beq	.L21
ARM GAS  /var/folders/2w/5wbrmvx534s_vk8svtxz852c0000gn/T//cccJC0NJ.s 			page 23


 254:Drivers/STM32F1xx_HAL_Driver/Src/stm32f1xx_hal_dma.c **** 
 294              		.loc 1 254 3 is_stmt 1 view .LVU94
 257:Drivers/STM32F1xx_HAL_Driver/Src/stm32f1xx_hal_dma.c **** 
 295              		.loc 1 257 3 view .LVU95
 296 0006 0168     		ldr	r1, [r0]
 297 0008 0A68     		ldr	r2, [r1]
 298 000a 22F00102 		bic	r2, r2, #1
 299 000e 0A60     		str	r2, [r1]
 260:Drivers/STM32F1xx_HAL_Driver/Src/stm32f1xx_hal_dma.c **** 
 300              		.loc 1 260 3 view .LVU96
 260:Drivers/STM32F1xx_HAL_Driver/Src/stm32f1xx_hal_dma.c **** 
 301              		.loc 1 260 7 is_stmt 0 view .LVU97
 302 0010 0168     		ldr	r1, [r0]
 260:Drivers/STM32F1xx_HAL_Driver/Src/stm32f1xx_hal_dma.c **** 
 303              		.loc 1 260 24 view .LVU98
 304 0012 0022     		movs	r2, #0
 305 0014 0A60     		str	r2, [r1]
 263:Drivers/STM32F1xx_HAL_Driver/Src/stm32f1xx_hal_dma.c **** 
 306              		.loc 1 263 3 is_stmt 1 view .LVU99
 263:Drivers/STM32F1xx_HAL_Driver/Src/stm32f1xx_hal_dma.c **** 
 307              		.loc 1 263 7 is_stmt 0 view .LVU100
 308 0016 0168     		ldr	r1, [r0]
 263:Drivers/STM32F1xx_HAL_Driver/Src/stm32f1xx_hal_dma.c **** 
 309              		.loc 1 263 25 view .LVU101
 310 0018 4A60     		str	r2, [r1, #4]
 266:Drivers/STM32F1xx_HAL_Driver/Src/stm32f1xx_hal_dma.c **** 
 311              		.loc 1 266 3 is_stmt 1 view .LVU102
 266:Drivers/STM32F1xx_HAL_Driver/Src/stm32f1xx_hal_dma.c **** 
 312              		.loc 1 266 7 is_stmt 0 view .LVU103
 313 001a 0168     		ldr	r1, [r0]
 266:Drivers/STM32F1xx_HAL_Driver/Src/stm32f1xx_hal_dma.c **** 
 314              		.loc 1 266 25 view .LVU104
 315 001c 8A60     		str	r2, [r1, #8]
 269:Drivers/STM32F1xx_HAL_Driver/Src/stm32f1xx_hal_dma.c **** 
 316              		.loc 1 269 3 is_stmt 1 view .LVU105
 269:Drivers/STM32F1xx_HAL_Driver/Src/stm32f1xx_hal_dma.c **** 
 317              		.loc 1 269 7 is_stmt 0 view .LVU106
 318 001e 0168     		ldr	r1, [r0]
 269:Drivers/STM32F1xx_HAL_Driver/Src/stm32f1xx_hal_dma.c **** 
 319              		.loc 1 269 24 view .LVU107
 320 0020 CA60     		str	r2, [r1, #12]
 273:Drivers/STM32F1xx_HAL_Driver/Src/stm32f1xx_hal_dma.c ****   {
 321              		.loc 1 273 3 is_stmt 1 view .LVU108
 273:Drivers/STM32F1xx_HAL_Driver/Src/stm32f1xx_hal_dma.c ****   {
 322              		.loc 1 273 22 is_stmt 0 view .LVU109
 323 0022 0168     		ldr	r1, [r0]
 273:Drivers/STM32F1xx_HAL_Driver/Src/stm32f1xx_hal_dma.c ****   {
 324              		.loc 1 273 6 view .LVU110
 325 0024 124A     		ldr	r2, .L22
 326 0026 9142     		cmp	r1, r2
 327 0028 15D8     		bhi	.L19
 276:Drivers/STM32F1xx_HAL_Driver/Src/stm32f1xx_hal_dma.c ****     hdma->DmaBaseAddress = DMA1;
 328              		.loc 1 276 5 is_stmt 1 view .LVU111
 276:Drivers/STM32F1xx_HAL_Driver/Src/stm32f1xx_hal_dma.c ****     hdma->DmaBaseAddress = DMA1;
 329              		.loc 1 276 53 is_stmt 0 view .LVU112
 330 002a 124A     		ldr	r2, .L22+4
 331 002c 0A44     		add	r2, r2, r1
ARM GAS  /var/folders/2w/5wbrmvx534s_vk8svtxz852c0000gn/T//cccJC0NJ.s 			page 24


 276:Drivers/STM32F1xx_HAL_Driver/Src/stm32f1xx_hal_dma.c ****     hdma->DmaBaseAddress = DMA1;
 332              		.loc 1 276 80 view .LVU113
 333 002e 1249     		ldr	r1, .L22+8
 334 0030 A1FB0212 		umull	r1, r2, r1, r2
 335 0034 1209     		lsrs	r2, r2, #4
 276:Drivers/STM32F1xx_HAL_Driver/Src/stm32f1xx_hal_dma.c ****     hdma->DmaBaseAddress = DMA1;
 336              		.loc 1 276 135 view .LVU114
 337 0036 9200     		lsls	r2, r2, #2
 276:Drivers/STM32F1xx_HAL_Driver/Src/stm32f1xx_hal_dma.c ****     hdma->DmaBaseAddress = DMA1;
 338              		.loc 1 276 24 view .LVU115
 339 0038 0264     		str	r2, [r0, #64]
 277:Drivers/STM32F1xx_HAL_Driver/Src/stm32f1xx_hal_dma.c ****   }
 340              		.loc 1 277 5 is_stmt 1 view .LVU116
 277:Drivers/STM32F1xx_HAL_Driver/Src/stm32f1xx_hal_dma.c ****   }
 341              		.loc 1 277 26 is_stmt 0 view .LVU117
 342 003a 104A     		ldr	r2, .L22+12
 343 003c C263     		str	r2, [r0, #60]
 344              	.L20:
 292:Drivers/STM32F1xx_HAL_Driver/Src/stm32f1xx_hal_dma.c **** 
 345              		.loc 1 292 3 is_stmt 1 view .LVU118
 292:Drivers/STM32F1xx_HAL_Driver/Src/stm32f1xx_hal_dma.c **** 
 346              		.loc 1 292 54 is_stmt 0 view .LVU119
 347 003e 186C     		ldr	r0, [r3, #64]
 348              	.LVL16:
 292:Drivers/STM32F1xx_HAL_Driver/Src/stm32f1xx_hal_dma.c **** 
 349              		.loc 1 292 7 view .LVU120
 350 0040 D96B     		ldr	r1, [r3, #60]
 292:Drivers/STM32F1xx_HAL_Driver/Src/stm32f1xx_hal_dma.c **** 
 351              		.loc 1 292 46 view .LVU121
 352 0042 0122     		movs	r2, #1
 353 0044 8240     		lsls	r2, r2, r0
 292:Drivers/STM32F1xx_HAL_Driver/Src/stm32f1xx_hal_dma.c **** 
 354              		.loc 1 292 30 view .LVU122
 355 0046 4A60     		str	r2, [r1, #4]
 295:Drivers/STM32F1xx_HAL_Driver/Src/stm32f1xx_hal_dma.c **** 
 356              		.loc 1 295 3 is_stmt 1 view .LVU123
 295:Drivers/STM32F1xx_HAL_Driver/Src/stm32f1xx_hal_dma.c **** 
 357              		.loc 1 295 19 is_stmt 0 view .LVU124
 358 0048 0020     		movs	r0, #0
 359 004a 9863     		str	r0, [r3, #56]
 298:Drivers/STM32F1xx_HAL_Driver/Src/stm32f1xx_hal_dma.c **** 
 360              		.loc 1 298 3 is_stmt 1 view .LVU125
 298:Drivers/STM32F1xx_HAL_Driver/Src/stm32f1xx_hal_dma.c **** 
 361              		.loc 1 298 15 is_stmt 0 view .LVU126
 362 004c 83F82100 		strb	r0, [r3, #33]
 301:Drivers/STM32F1xx_HAL_Driver/Src/stm32f1xx_hal_dma.c **** 
 363              		.loc 1 301 3 is_stmt 1 view .LVU127
 301:Drivers/STM32F1xx_HAL_Driver/Src/stm32f1xx_hal_dma.c **** 
 364              		.loc 1 301 3 view .LVU128
 365 0050 83F82000 		strb	r0, [r3, #32]
 301:Drivers/STM32F1xx_HAL_Driver/Src/stm32f1xx_hal_dma.c **** 
 366              		.loc 1 301 3 view .LVU129
 303:Drivers/STM32F1xx_HAL_Driver/Src/stm32f1xx_hal_dma.c **** }
 367              		.loc 1 303 3 view .LVU130
 303:Drivers/STM32F1xx_HAL_Driver/Src/stm32f1xx_hal_dma.c **** }
 368              		.loc 1 303 10 is_stmt 0 view .LVU131
 369 0054 7047     		bx	lr
ARM GAS  /var/folders/2w/5wbrmvx534s_vk8svtxz852c0000gn/T//cccJC0NJ.s 			page 25


 370              	.LVL17:
 371              	.L19:
 282:Drivers/STM32F1xx_HAL_Driver/Src/stm32f1xx_hal_dma.c ****     hdma->DmaBaseAddress = DMA2;
 372              		.loc 1 282 5 is_stmt 1 view .LVU132
 282:Drivers/STM32F1xx_HAL_Driver/Src/stm32f1xx_hal_dma.c ****     hdma->DmaBaseAddress = DMA2;
 373              		.loc 1 282 53 is_stmt 0 view .LVU133
 374 0056 0A4A     		ldr	r2, .L22+16
 375 0058 0A44     		add	r2, r2, r1
 282:Drivers/STM32F1xx_HAL_Driver/Src/stm32f1xx_hal_dma.c ****     hdma->DmaBaseAddress = DMA2;
 376              		.loc 1 282 80 view .LVU134
 377 005a 0749     		ldr	r1, .L22+8
 378 005c A1FB0212 		umull	r1, r2, r1, r2
 379 0060 1209     		lsrs	r2, r2, #4
 282:Drivers/STM32F1xx_HAL_Driver/Src/stm32f1xx_hal_dma.c ****     hdma->DmaBaseAddress = DMA2;
 380              		.loc 1 282 135 view .LVU135
 381 0062 9200     		lsls	r2, r2, #2
 282:Drivers/STM32F1xx_HAL_Driver/Src/stm32f1xx_hal_dma.c ****     hdma->DmaBaseAddress = DMA2;
 382              		.loc 1 282 24 view .LVU136
 383 0064 0264     		str	r2, [r0, #64]
 283:Drivers/STM32F1xx_HAL_Driver/Src/stm32f1xx_hal_dma.c ****   }
 384              		.loc 1 283 5 is_stmt 1 view .LVU137
 283:Drivers/STM32F1xx_HAL_Driver/Src/stm32f1xx_hal_dma.c ****   }
 385              		.loc 1 283 26 is_stmt 0 view .LVU138
 386 0066 074A     		ldr	r2, .L22+20
 387 0068 C263     		str	r2, [r0, #60]
 388 006a E8E7     		b	.L20
 389              	.L21:
 250:Drivers/STM32F1xx_HAL_Driver/Src/stm32f1xx_hal_dma.c ****   }
 390              		.loc 1 250 12 view .LVU139
 391 006c 0120     		movs	r0, #1
 392              	.LVL18:
 304:Drivers/STM32F1xx_HAL_Driver/Src/stm32f1xx_hal_dma.c **** 
 393              		.loc 1 304 1 view .LVU140
 394 006e 7047     		bx	lr
 395              	.L23:
 396              		.align	2
 397              	.L22:
 398 0070 07040240 		.word	1073873927
 399 0074 F8FFFDBF 		.word	-1073872904
 400 0078 CDCCCCCC 		.word	-858993459
 401 007c 00000240 		.word	1073872896
 402 0080 F8FBFDBF 		.word	-1073873928
 403 0084 00040240 		.word	1073873920
 404              		.cfi_endproc
 405              	.LFE67:
 407              		.section	.text.HAL_DMA_Start,"ax",%progbits
 408              		.align	1
 409              		.global	HAL_DMA_Start
 410              		.syntax unified
 411              		.thumb
 412              		.thumb_func
 414              	HAL_DMA_Start:
 415              	.LVL19:
 416              	.LFB68:
 339:Drivers/STM32F1xx_HAL_Driver/Src/stm32f1xx_hal_dma.c ****   HAL_StatusTypeDef status = HAL_OK;
 417              		.loc 1 339 1 is_stmt 1 view -0
 418              		.cfi_startproc
ARM GAS  /var/folders/2w/5wbrmvx534s_vk8svtxz852c0000gn/T//cccJC0NJ.s 			page 26


 419              		@ args = 0, pretend = 0, frame = 0
 420              		@ frame_needed = 0, uses_anonymous_args = 0
 339:Drivers/STM32F1xx_HAL_Driver/Src/stm32f1xx_hal_dma.c ****   HAL_StatusTypeDef status = HAL_OK;
 421              		.loc 1 339 1 is_stmt 0 view .LVU142
 422 0000 70B5     		push	{r4, r5, r6, lr}
 423              	.LCFI7:
 424              		.cfi_def_cfa_offset 16
 425              		.cfi_offset 4, -16
 426              		.cfi_offset 5, -12
 427              		.cfi_offset 6, -8
 428              		.cfi_offset 14, -4
 429 0002 0446     		mov	r4, r0
 340:Drivers/STM32F1xx_HAL_Driver/Src/stm32f1xx_hal_dma.c **** 
 430              		.loc 1 340 3 is_stmt 1 view .LVU143
 431              	.LVL20:
 343:Drivers/STM32F1xx_HAL_Driver/Src/stm32f1xx_hal_dma.c **** 
 432              		.loc 1 343 3 view .LVU144
 346:Drivers/STM32F1xx_HAL_Driver/Src/stm32f1xx_hal_dma.c **** 
 433              		.loc 1 346 3 view .LVU145
 346:Drivers/STM32F1xx_HAL_Driver/Src/stm32f1xx_hal_dma.c **** 
 434              		.loc 1 346 3 view .LVU146
 435 0004 90F82000 		ldrb	r0, [r0, #32]	@ zero_extendqisi2
 436              	.LVL21:
 346:Drivers/STM32F1xx_HAL_Driver/Src/stm32f1xx_hal_dma.c **** 
 437              		.loc 1 346 3 is_stmt 0 view .LVU147
 438 0008 0128     		cmp	r0, #1
 439 000a 1FD0     		beq	.L27
 346:Drivers/STM32F1xx_HAL_Driver/Src/stm32f1xx_hal_dma.c **** 
 440              		.loc 1 346 3 is_stmt 1 discriminator 2 view .LVU148
 441 000c 0120     		movs	r0, #1
 442 000e 84F82000 		strb	r0, [r4, #32]
 346:Drivers/STM32F1xx_HAL_Driver/Src/stm32f1xx_hal_dma.c **** 
 443              		.loc 1 346 3 discriminator 2 view .LVU149
 348:Drivers/STM32F1xx_HAL_Driver/Src/stm32f1xx_hal_dma.c ****   {
 444              		.loc 1 348 3 discriminator 2 view .LVU150
 348:Drivers/STM32F1xx_HAL_Driver/Src/stm32f1xx_hal_dma.c ****   {
 445              		.loc 1 348 33 is_stmt 0 discriminator 2 view .LVU151
 446 0012 94F82100 		ldrb	r0, [r4, #33]	@ zero_extendqisi2
 348:Drivers/STM32F1xx_HAL_Driver/Src/stm32f1xx_hal_dma.c ****   {
 447              		.loc 1 348 5 discriminator 2 view .LVU152
 448 0016 0128     		cmp	r0, #1
 449 0018 04D0     		beq	.L29
 366:Drivers/STM32F1xx_HAL_Driver/Src/stm32f1xx_hal_dma.c ****    status = HAL_BUSY;
 450              		.loc 1 366 4 is_stmt 1 view .LVU153
 366:Drivers/STM32F1xx_HAL_Driver/Src/stm32f1xx_hal_dma.c ****    status = HAL_BUSY;
 451              		.loc 1 366 4 view .LVU154
 452 001a 0023     		movs	r3, #0
 453              	.LVL22:
 366:Drivers/STM32F1xx_HAL_Driver/Src/stm32f1xx_hal_dma.c ****    status = HAL_BUSY;
 454              		.loc 1 366 4 is_stmt 0 view .LVU155
 455 001c 84F82030 		strb	r3, [r4, #32]
 366:Drivers/STM32F1xx_HAL_Driver/Src/stm32f1xx_hal_dma.c ****    status = HAL_BUSY;
 456              		.loc 1 366 4 is_stmt 1 view .LVU156
 367:Drivers/STM32F1xx_HAL_Driver/Src/stm32f1xx_hal_dma.c ****   }  
 457              		.loc 1 367 4 view .LVU157
 458              	.LVL23:
 367:Drivers/STM32F1xx_HAL_Driver/Src/stm32f1xx_hal_dma.c ****   }  
ARM GAS  /var/folders/2w/5wbrmvx534s_vk8svtxz852c0000gn/T//cccJC0NJ.s 			page 27


 459              		.loc 1 367 11 is_stmt 0 view .LVU158
 460 0020 0220     		movs	r0, #2
 461              	.LVL24:
 462              	.L25:
 370:Drivers/STM32F1xx_HAL_Driver/Src/stm32f1xx_hal_dma.c **** 
 463              		.loc 1 370 1 view .LVU159
 464 0022 70BD     		pop	{r4, r5, r6, pc}
 465              	.LVL25:
 466              	.L29:
 351:Drivers/STM32F1xx_HAL_Driver/Src/stm32f1xx_hal_dma.c ****     hdma->ErrorCode = HAL_DMA_ERROR_NONE;
 467              		.loc 1 351 5 is_stmt 1 view .LVU160
 351:Drivers/STM32F1xx_HAL_Driver/Src/stm32f1xx_hal_dma.c ****     hdma->ErrorCode = HAL_DMA_ERROR_NONE;
 468              		.loc 1 351 17 is_stmt 0 view .LVU161
 469 0024 0220     		movs	r0, #2
 470 0026 84F82100 		strb	r0, [r4, #33]
 352:Drivers/STM32F1xx_HAL_Driver/Src/stm32f1xx_hal_dma.c ****             
 471              		.loc 1 352 5 is_stmt 1 view .LVU162
 352:Drivers/STM32F1xx_HAL_Driver/Src/stm32f1xx_hal_dma.c ****             
 472              		.loc 1 352 21 is_stmt 0 view .LVU163
 473 002a 0025     		movs	r5, #0
 474 002c A563     		str	r5, [r4, #56]
 355:Drivers/STM32F1xx_HAL_Driver/Src/stm32f1xx_hal_dma.c ****     
 475              		.loc 1 355 5 is_stmt 1 view .LVU164
 476 002e 2668     		ldr	r6, [r4]
 477 0030 3068     		ldr	r0, [r6]
 478 0032 20F00100 		bic	r0, r0, #1
 479 0036 3060     		str	r0, [r6]
 358:Drivers/STM32F1xx_HAL_Driver/Src/stm32f1xx_hal_dma.c ****     
 480              		.loc 1 358 5 view .LVU165
 481 0038 2046     		mov	r0, r4
 482 003a FFF7FEFF 		bl	DMA_SetConfig
 483              	.LVL26:
 361:Drivers/STM32F1xx_HAL_Driver/Src/stm32f1xx_hal_dma.c ****   }
 484              		.loc 1 361 5 view .LVU166
 485 003e 2268     		ldr	r2, [r4]
 486 0040 1368     		ldr	r3, [r2]
 487 0042 43F00103 		orr	r3, r3, #1
 488 0046 1360     		str	r3, [r2]
 340:Drivers/STM32F1xx_HAL_Driver/Src/stm32f1xx_hal_dma.c **** 
 489              		.loc 1 340 21 is_stmt 0 view .LVU167
 490 0048 2846     		mov	r0, r5
 491 004a EAE7     		b	.L25
 492              	.LVL27:
 493              	.L27:
 346:Drivers/STM32F1xx_HAL_Driver/Src/stm32f1xx_hal_dma.c **** 
 494              		.loc 1 346 3 view .LVU168
 495 004c 0220     		movs	r0, #2
 496 004e E8E7     		b	.L25
 497              		.cfi_endproc
 498              	.LFE68:
 500              		.section	.text.HAL_DMA_Start_IT,"ax",%progbits
 501              		.align	1
 502              		.global	HAL_DMA_Start_IT
 503              		.syntax unified
 504              		.thumb
 505              		.thumb_func
 507              	HAL_DMA_Start_IT:
ARM GAS  /var/folders/2w/5wbrmvx534s_vk8svtxz852c0000gn/T//cccJC0NJ.s 			page 28


 508              	.LVL28:
 509              	.LFB69:
 382:Drivers/STM32F1xx_HAL_Driver/Src/stm32f1xx_hal_dma.c ****   HAL_StatusTypeDef status = HAL_OK;
 510              		.loc 1 382 1 is_stmt 1 view -0
 511              		.cfi_startproc
 512              		@ args = 0, pretend = 0, frame = 0
 513              		@ frame_needed = 0, uses_anonymous_args = 0
 382:Drivers/STM32F1xx_HAL_Driver/Src/stm32f1xx_hal_dma.c ****   HAL_StatusTypeDef status = HAL_OK;
 514              		.loc 1 382 1 is_stmt 0 view .LVU170
 515 0000 38B5     		push	{r3, r4, r5, lr}
 516              	.LCFI8:
 517              		.cfi_def_cfa_offset 16
 518              		.cfi_offset 3, -16
 519              		.cfi_offset 4, -12
 520              		.cfi_offset 5, -8
 521              		.cfi_offset 14, -4
 522 0002 0446     		mov	r4, r0
 383:Drivers/STM32F1xx_HAL_Driver/Src/stm32f1xx_hal_dma.c **** 
 523              		.loc 1 383 3 is_stmt 1 view .LVU171
 524              	.LVL29:
 386:Drivers/STM32F1xx_HAL_Driver/Src/stm32f1xx_hal_dma.c **** 
 525              		.loc 1 386 3 view .LVU172
 389:Drivers/STM32F1xx_HAL_Driver/Src/stm32f1xx_hal_dma.c ****   
 526              		.loc 1 389 3 view .LVU173
 389:Drivers/STM32F1xx_HAL_Driver/Src/stm32f1xx_hal_dma.c ****   
 527              		.loc 1 389 3 view .LVU174
 528 0004 90F82000 		ldrb	r0, [r0, #32]	@ zero_extendqisi2
 529              	.LVL30:
 389:Drivers/STM32F1xx_HAL_Driver/Src/stm32f1xx_hal_dma.c ****   
 530              		.loc 1 389 3 is_stmt 0 view .LVU175
 531 0008 0128     		cmp	r0, #1
 532 000a 31D0     		beq	.L35
 389:Drivers/STM32F1xx_HAL_Driver/Src/stm32f1xx_hal_dma.c ****   
 533              		.loc 1 389 3 is_stmt 1 discriminator 2 view .LVU176
 534 000c 0120     		movs	r0, #1
 535 000e 84F82000 		strb	r0, [r4, #32]
 389:Drivers/STM32F1xx_HAL_Driver/Src/stm32f1xx_hal_dma.c ****   
 536              		.loc 1 389 3 discriminator 2 view .LVU177
 391:Drivers/STM32F1xx_HAL_Driver/Src/stm32f1xx_hal_dma.c ****   {
 537              		.loc 1 391 3 discriminator 2 view .LVU178
 391:Drivers/STM32F1xx_HAL_Driver/Src/stm32f1xx_hal_dma.c ****   {
 538              		.loc 1 391 33 is_stmt 0 discriminator 2 view .LVU179
 539 0012 94F82100 		ldrb	r0, [r4, #33]	@ zero_extendqisi2
 391:Drivers/STM32F1xx_HAL_Driver/Src/stm32f1xx_hal_dma.c ****   {
 540              		.loc 1 391 5 discriminator 2 view .LVU180
 541 0016 0128     		cmp	r0, #1
 542 0018 04D0     		beq	.L37
 421:Drivers/STM32F1xx_HAL_Driver/Src/stm32f1xx_hal_dma.c **** 
 543              		.loc 1 421 5 is_stmt 1 view .LVU181
 421:Drivers/STM32F1xx_HAL_Driver/Src/stm32f1xx_hal_dma.c **** 
 544              		.loc 1 421 5 view .LVU182
 545 001a 0023     		movs	r3, #0
 546              	.LVL31:
 421:Drivers/STM32F1xx_HAL_Driver/Src/stm32f1xx_hal_dma.c **** 
 547              		.loc 1 421 5 is_stmt 0 view .LVU183
 548 001c 84F82030 		strb	r3, [r4, #32]
 421:Drivers/STM32F1xx_HAL_Driver/Src/stm32f1xx_hal_dma.c **** 
ARM GAS  /var/folders/2w/5wbrmvx534s_vk8svtxz852c0000gn/T//cccJC0NJ.s 			page 29


 549              		.loc 1 421 5 is_stmt 1 view .LVU184
 424:Drivers/STM32F1xx_HAL_Driver/Src/stm32f1xx_hal_dma.c ****   }    
 550              		.loc 1 424 5 view .LVU185
 551              	.LVL32:
 424:Drivers/STM32F1xx_HAL_Driver/Src/stm32f1xx_hal_dma.c ****   }    
 552              		.loc 1 424 12 is_stmt 0 view .LVU186
 553 0020 0220     		movs	r0, #2
 554              	.LVL33:
 555              	.L31:
 427:Drivers/STM32F1xx_HAL_Driver/Src/stm32f1xx_hal_dma.c **** 
 556              		.loc 1 427 1 view .LVU187
 557 0022 38BD     		pop	{r3, r4, r5, pc}
 558              	.LVL34:
 559              	.L37:
 394:Drivers/STM32F1xx_HAL_Driver/Src/stm32f1xx_hal_dma.c ****     hdma->ErrorCode = HAL_DMA_ERROR_NONE;
 560              		.loc 1 394 5 is_stmt 1 view .LVU188
 394:Drivers/STM32F1xx_HAL_Driver/Src/stm32f1xx_hal_dma.c ****     hdma->ErrorCode = HAL_DMA_ERROR_NONE;
 561              		.loc 1 394 17 is_stmt 0 view .LVU189
 562 0024 0220     		movs	r0, #2
 563 0026 84F82100 		strb	r0, [r4, #33]
 395:Drivers/STM32F1xx_HAL_Driver/Src/stm32f1xx_hal_dma.c ****     
 564              		.loc 1 395 5 is_stmt 1 view .LVU190
 395:Drivers/STM32F1xx_HAL_Driver/Src/stm32f1xx_hal_dma.c ****     
 565              		.loc 1 395 21 is_stmt 0 view .LVU191
 566 002a 0020     		movs	r0, #0
 567 002c A063     		str	r0, [r4, #56]
 398:Drivers/STM32F1xx_HAL_Driver/Src/stm32f1xx_hal_dma.c ****     
 568              		.loc 1 398 5 is_stmt 1 view .LVU192
 569 002e 2568     		ldr	r5, [r4]
 570 0030 2868     		ldr	r0, [r5]
 571 0032 20F00100 		bic	r0, r0, #1
 572 0036 2860     		str	r0, [r5]
 401:Drivers/STM32F1xx_HAL_Driver/Src/stm32f1xx_hal_dma.c ****     
 573              		.loc 1 401 5 view .LVU193
 574 0038 2046     		mov	r0, r4
 575 003a FFF7FEFF 		bl	DMA_SetConfig
 576              	.LVL35:
 405:Drivers/STM32F1xx_HAL_Driver/Src/stm32f1xx_hal_dma.c ****     {
 577              		.loc 1 405 5 view .LVU194
 405:Drivers/STM32F1xx_HAL_Driver/Src/stm32f1xx_hal_dma.c ****     {
 578              		.loc 1 405 20 is_stmt 0 view .LVU195
 579 003e E36A     		ldr	r3, [r4, #44]
 405:Drivers/STM32F1xx_HAL_Driver/Src/stm32f1xx_hal_dma.c ****     {
 580              		.loc 1 405 7 view .LVU196
 581 0040 5BB1     		cbz	r3, .L33
 408:Drivers/STM32F1xx_HAL_Driver/Src/stm32f1xx_hal_dma.c ****     }
 582              		.loc 1 408 7 is_stmt 1 view .LVU197
 583 0042 2268     		ldr	r2, [r4]
 584 0044 1368     		ldr	r3, [r2]
 585 0046 43F00E03 		orr	r3, r3, #14
 586 004a 1360     		str	r3, [r2]
 587              	.L34:
 416:Drivers/STM32F1xx_HAL_Driver/Src/stm32f1xx_hal_dma.c ****   }
 588              		.loc 1 416 5 view .LVU198
 589 004c 2268     		ldr	r2, [r4]
 590 004e 1368     		ldr	r3, [r2]
 591 0050 43F00103 		orr	r3, r3, #1
ARM GAS  /var/folders/2w/5wbrmvx534s_vk8svtxz852c0000gn/T//cccJC0NJ.s 			page 30


 592 0054 1360     		str	r3, [r2]
 383:Drivers/STM32F1xx_HAL_Driver/Src/stm32f1xx_hal_dma.c **** 
 593              		.loc 1 383 21 is_stmt 0 view .LVU199
 594 0056 0020     		movs	r0, #0
 595 0058 E3E7     		b	.L31
 596              	.L33:
 412:Drivers/STM32F1xx_HAL_Driver/Src/stm32f1xx_hal_dma.c ****       __HAL_DMA_ENABLE_IT(hdma, (DMA_IT_TC | DMA_IT_TE));
 597              		.loc 1 412 7 is_stmt 1 view .LVU200
 598 005a 2268     		ldr	r2, [r4]
 599 005c 1368     		ldr	r3, [r2]
 600 005e 23F00403 		bic	r3, r3, #4
 601 0062 1360     		str	r3, [r2]
 413:Drivers/STM32F1xx_HAL_Driver/Src/stm32f1xx_hal_dma.c ****     }
 602              		.loc 1 413 7 view .LVU201
 603 0064 2268     		ldr	r2, [r4]
 604 0066 1368     		ldr	r3, [r2]
 605 0068 43F00A03 		orr	r3, r3, #10
 606 006c 1360     		str	r3, [r2]
 607 006e EDE7     		b	.L34
 608              	.LVL36:
 609              	.L35:
 389:Drivers/STM32F1xx_HAL_Driver/Src/stm32f1xx_hal_dma.c ****   
 610              		.loc 1 389 3 is_stmt 0 view .LVU202
 611 0070 0220     		movs	r0, #2
 612 0072 D6E7     		b	.L31
 613              		.cfi_endproc
 614              	.LFE69:
 616              		.section	.text.HAL_DMA_Abort,"ax",%progbits
 617              		.align	1
 618              		.global	HAL_DMA_Abort
 619              		.syntax unified
 620              		.thumb
 621              		.thumb_func
 623              	HAL_DMA_Abort:
 624              	.LVL37:
 625              	.LFB70:
 436:Drivers/STM32F1xx_HAL_Driver/Src/stm32f1xx_hal_dma.c ****   HAL_StatusTypeDef status = HAL_OK;
 626              		.loc 1 436 1 is_stmt 1 view -0
 627              		.cfi_startproc
 628              		@ args = 0, pretend = 0, frame = 0
 629              		@ frame_needed = 0, uses_anonymous_args = 0
 630              		@ link register save eliminated.
 436:Drivers/STM32F1xx_HAL_Driver/Src/stm32f1xx_hal_dma.c ****   HAL_StatusTypeDef status = HAL_OK;
 631              		.loc 1 436 1 is_stmt 0 view .LVU204
 632 0000 0346     		mov	r3, r0
 437:Drivers/STM32F1xx_HAL_Driver/Src/stm32f1xx_hal_dma.c **** 
 633              		.loc 1 437 3 is_stmt 1 view .LVU205
 634              	.LVL38:
 440:Drivers/STM32F1xx_HAL_Driver/Src/stm32f1xx_hal_dma.c ****     
 635              		.loc 1 440 3 view .LVU206
 636 0002 0168     		ldr	r1, [r0]
 637 0004 0A68     		ldr	r2, [r1]
 638 0006 22F00E02 		bic	r2, r2, #14
 639 000a 0A60     		str	r2, [r1]
 443:Drivers/STM32F1xx_HAL_Driver/Src/stm32f1xx_hal_dma.c ****     
 640              		.loc 1 443 3 view .LVU207
 641 000c 0168     		ldr	r1, [r0]
ARM GAS  /var/folders/2w/5wbrmvx534s_vk8svtxz852c0000gn/T//cccJC0NJ.s 			page 31


 642 000e 0A68     		ldr	r2, [r1]
 643 0010 22F00102 		bic	r2, r2, #1
 644 0014 0A60     		str	r2, [r1]
 446:Drivers/STM32F1xx_HAL_Driver/Src/stm32f1xx_hal_dma.c **** 
 645              		.loc 1 446 3 view .LVU208
 446:Drivers/STM32F1xx_HAL_Driver/Src/stm32f1xx_hal_dma.c **** 
 646              		.loc 1 446 53 is_stmt 0 view .LVU209
 647 0016 026C     		ldr	r2, [r0, #64]
 446:Drivers/STM32F1xx_HAL_Driver/Src/stm32f1xx_hal_dma.c **** 
 648              		.loc 1 446 7 view .LVU210
 649 0018 C06B     		ldr	r0, [r0, #60]
 650              	.LVL39:
 446:Drivers/STM32F1xx_HAL_Driver/Src/stm32f1xx_hal_dma.c **** 
 651              		.loc 1 446 46 view .LVU211
 652 001a 0121     		movs	r1, #1
 653 001c 01FA02F2 		lsl	r2, r1, r2
 446:Drivers/STM32F1xx_HAL_Driver/Src/stm32f1xx_hal_dma.c **** 
 654              		.loc 1 446 30 view .LVU212
 655 0020 4260     		str	r2, [r0, #4]
 449:Drivers/STM32F1xx_HAL_Driver/Src/stm32f1xx_hal_dma.c **** 
 656              		.loc 1 449 3 is_stmt 1 view .LVU213
 449:Drivers/STM32F1xx_HAL_Driver/Src/stm32f1xx_hal_dma.c **** 
 657              		.loc 1 449 15 is_stmt 0 view .LVU214
 658 0022 83F82110 		strb	r1, [r3, #33]
 452:Drivers/STM32F1xx_HAL_Driver/Src/stm32f1xx_hal_dma.c ****   
 659              		.loc 1 452 3 is_stmt 1 view .LVU215
 452:Drivers/STM32F1xx_HAL_Driver/Src/stm32f1xx_hal_dma.c ****   
 660              		.loc 1 452 3 view .LVU216
 661 0026 0020     		movs	r0, #0
 662 0028 83F82000 		strb	r0, [r3, #32]
 452:Drivers/STM32F1xx_HAL_Driver/Src/stm32f1xx_hal_dma.c ****   
 663              		.loc 1 452 3 view .LVU217
 454:Drivers/STM32F1xx_HAL_Driver/Src/stm32f1xx_hal_dma.c **** }
 664              		.loc 1 454 3 view .LVU218
 455:Drivers/STM32F1xx_HAL_Driver/Src/stm32f1xx_hal_dma.c **** 
 665              		.loc 1 455 1 is_stmt 0 view .LVU219
 666 002c 7047     		bx	lr
 667              		.cfi_endproc
 668              	.LFE70:
 670              		.section	.text.HAL_DMA_Abort_IT,"ax",%progbits
 671              		.align	1
 672              		.global	HAL_DMA_Abort_IT
 673              		.syntax unified
 674              		.thumb
 675              		.thumb_func
 677              	HAL_DMA_Abort_IT:
 678              	.LVL40:
 679              	.LFB71:
 464:Drivers/STM32F1xx_HAL_Driver/Src/stm32f1xx_hal_dma.c ****   HAL_StatusTypeDef status = HAL_OK;
 680              		.loc 1 464 1 is_stmt 1 view -0
 681              		.cfi_startproc
 682              		@ args = 0, pretend = 0, frame = 0
 683              		@ frame_needed = 0, uses_anonymous_args = 0
 464:Drivers/STM32F1xx_HAL_Driver/Src/stm32f1xx_hal_dma.c ****   HAL_StatusTypeDef status = HAL_OK;
 684              		.loc 1 464 1 is_stmt 0 view .LVU221
 685 0000 08B5     		push	{r3, lr}
 686              	.LCFI9:
ARM GAS  /var/folders/2w/5wbrmvx534s_vk8svtxz852c0000gn/T//cccJC0NJ.s 			page 32


 687              		.cfi_def_cfa_offset 8
 688              		.cfi_offset 3, -8
 689              		.cfi_offset 14, -4
 465:Drivers/STM32F1xx_HAL_Driver/Src/stm32f1xx_hal_dma.c ****   
 690              		.loc 1 465 3 is_stmt 1 view .LVU222
 691              	.LVL41:
 467:Drivers/STM32F1xx_HAL_Driver/Src/stm32f1xx_hal_dma.c ****   {
 692              		.loc 1 467 3 view .LVU223
 467:Drivers/STM32F1xx_HAL_Driver/Src/stm32f1xx_hal_dma.c ****   {
 693              		.loc 1 467 32 is_stmt 0 view .LVU224
 694 0002 90F82130 		ldrb	r3, [r0, #33]	@ zero_extendqisi2
 467:Drivers/STM32F1xx_HAL_Driver/Src/stm32f1xx_hal_dma.c ****   {
 695              		.loc 1 467 5 view .LVU225
 696 0006 022B     		cmp	r3, #2
 697 0008 03D0     		beq	.L40
 470:Drivers/STM32F1xx_HAL_Driver/Src/stm32f1xx_hal_dma.c ****         
 698              		.loc 1 470 5 is_stmt 1 view .LVU226
 470:Drivers/STM32F1xx_HAL_Driver/Src/stm32f1xx_hal_dma.c ****         
 699              		.loc 1 470 21 is_stmt 0 view .LVU227
 700 000a 0423     		movs	r3, #4
 701 000c 8363     		str	r3, [r0, #56]
 472:Drivers/STM32F1xx_HAL_Driver/Src/stm32f1xx_hal_dma.c ****   }
 702              		.loc 1 472 5 is_stmt 1 view .LVU228
 703              	.LVL42:
 472:Drivers/STM32F1xx_HAL_Driver/Src/stm32f1xx_hal_dma.c ****   }
 704              		.loc 1 472 12 is_stmt 0 view .LVU229
 705 000e 0120     		movs	r0, #1
 706              	.LVL43:
 707              	.L41:
 497:Drivers/STM32F1xx_HAL_Driver/Src/stm32f1xx_hal_dma.c **** }
 708              		.loc 1 497 3 is_stmt 1 view .LVU230
 498:Drivers/STM32F1xx_HAL_Driver/Src/stm32f1xx_hal_dma.c **** 
 709              		.loc 1 498 1 is_stmt 0 view .LVU231
 710 0010 08BD     		pop	{r3, pc}
 711              	.LVL44:
 712              	.L40:
 477:Drivers/STM32F1xx_HAL_Driver/Src/stm32f1xx_hal_dma.c **** 
 713              		.loc 1 477 5 is_stmt 1 view .LVU232
 714 0012 0268     		ldr	r2, [r0]
 715 0014 1368     		ldr	r3, [r2]
 716 0016 23F00E03 		bic	r3, r3, #14
 717 001a 1360     		str	r3, [r2]
 480:Drivers/STM32F1xx_HAL_Driver/Src/stm32f1xx_hal_dma.c **** 
 718              		.loc 1 480 5 view .LVU233
 719 001c 0268     		ldr	r2, [r0]
 720 001e 1368     		ldr	r3, [r2]
 721 0020 23F00103 		bic	r3, r3, #1
 722 0024 1360     		str	r3, [r2]
 483:Drivers/STM32F1xx_HAL_Driver/Src/stm32f1xx_hal_dma.c **** 
 723              		.loc 1 483 5 view .LVU234
 724 0026 0368     		ldr	r3, [r0]
 725 0028 4B4A     		ldr	r2, .L72
 726 002a 9342     		cmp	r3, r2
 727 002c 4ED9     		bls	.L42
 483:Drivers/STM32F1xx_HAL_Driver/Src/stm32f1xx_hal_dma.c **** 
 728              		.loc 1 483 5 is_stmt 0 discriminator 1 view .LVU235
 729 002e 783A     		subs	r2, r2, #120
ARM GAS  /var/folders/2w/5wbrmvx534s_vk8svtxz852c0000gn/T//cccJC0NJ.s 			page 33


 730 0030 9342     		cmp	r3, r2
 731 0032 24D0     		beq	.L46
 483:Drivers/STM32F1xx_HAL_Driver/Src/stm32f1xx_hal_dma.c **** 
 732              		.loc 1 483 5 discriminator 3 view .LVU236
 733 0034 1432     		adds	r2, r2, #20
 734 0036 9342     		cmp	r3, r2
 735 0038 30D0     		beq	.L47
 483:Drivers/STM32F1xx_HAL_Driver/Src/stm32f1xx_hal_dma.c **** 
 736              		.loc 1 483 5 discriminator 5 view .LVU237
 737 003a 1432     		adds	r2, r2, #20
 738 003c 9342     		cmp	r3, r2
 739 003e 2FD0     		beq	.L48
 483:Drivers/STM32F1xx_HAL_Driver/Src/stm32f1xx_hal_dma.c **** 
 740              		.loc 1 483 5 discriminator 7 view .LVU238
 741 0040 1432     		adds	r2, r2, #20
 742 0042 9342     		cmp	r3, r2
 743 0044 2FD0     		beq	.L49
 483:Drivers/STM32F1xx_HAL_Driver/Src/stm32f1xx_hal_dma.c **** 
 744              		.loc 1 483 5 discriminator 9 view .LVU239
 745 0046 1432     		adds	r2, r2, #20
 746 0048 9342     		cmp	r3, r2
 747 004a 2FD0     		beq	.L50
 483:Drivers/STM32F1xx_HAL_Driver/Src/stm32f1xx_hal_dma.c **** 
 748              		.loc 1 483 5 discriminator 11 view .LVU240
 749 004c 1432     		adds	r2, r2, #20
 750 004e 9342     		cmp	r3, r2
 751 0050 2FD0     		beq	.L51
 483:Drivers/STM32F1xx_HAL_Driver/Src/stm32f1xx_hal_dma.c **** 
 752              		.loc 1 483 5 discriminator 13 view .LVU241
 753 0052 1432     		adds	r2, r2, #20
 754 0054 9342     		cmp	r3, r2
 755 0056 2FD0     		beq	.L52
 483:Drivers/STM32F1xx_HAL_Driver/Src/stm32f1xx_hal_dma.c **** 
 756              		.loc 1 483 5 discriminator 15 view .LVU242
 757 0058 02F56272 		add	r2, r2, #904
 758 005c 9342     		cmp	r3, r2
 759 005e 2ED0     		beq	.L53
 483:Drivers/STM32F1xx_HAL_Driver/Src/stm32f1xx_hal_dma.c **** 
 760              		.loc 1 483 5 discriminator 17 view .LVU243
 761 0060 1432     		adds	r2, r2, #20
 762 0062 9342     		cmp	r3, r2
 763 0064 2DD0     		beq	.L54
 483:Drivers/STM32F1xx_HAL_Driver/Src/stm32f1xx_hal_dma.c **** 
 764              		.loc 1 483 5 discriminator 19 view .LVU244
 765 0066 1432     		adds	r2, r2, #20
 766 0068 9342     		cmp	r3, r2
 767 006a 2CD0     		beq	.L55
 483:Drivers/STM32F1xx_HAL_Driver/Src/stm32f1xx_hal_dma.c **** 
 768              		.loc 1 483 5 discriminator 21 view .LVU245
 769 006c 1432     		adds	r2, r2, #20
 770 006e 9342     		cmp	r3, r2
 771 0070 02D0     		beq	.L70
 483:Drivers/STM32F1xx_HAL_Driver/Src/stm32f1xx_hal_dma.c **** 
 772              		.loc 1 483 5 view .LVU246
 773 0072 4FF48032 		mov	r2, #65536
 774 0076 03E0     		b	.L43
 775              	.L70:
ARM GAS  /var/folders/2w/5wbrmvx534s_vk8svtxz852c0000gn/T//cccJC0NJ.s 			page 34


 776 0078 4FF48052 		mov	r2, #4096
 777 007c 00E0     		b	.L43
 778              	.L46:
 779 007e 0122     		movs	r2, #1
 780              	.L43:
 483:Drivers/STM32F1xx_HAL_Driver/Src/stm32f1xx_hal_dma.c **** 
 781              		.loc 1 483 5 discriminator 46 view .LVU247
 782 0080 364B     		ldr	r3, .L72+4
 783 0082 5A60     		str	r2, [r3, #4]
 784              	.L44:
 486:Drivers/STM32F1xx_HAL_Driver/Src/stm32f1xx_hal_dma.c **** 
 785              		.loc 1 486 5 is_stmt 1 view .LVU248
 486:Drivers/STM32F1xx_HAL_Driver/Src/stm32f1xx_hal_dma.c **** 
 786              		.loc 1 486 17 is_stmt 0 view .LVU249
 787 0084 0123     		movs	r3, #1
 788 0086 80F82130 		strb	r3, [r0, #33]
 489:Drivers/STM32F1xx_HAL_Driver/Src/stm32f1xx_hal_dma.c **** 
 789              		.loc 1 489 5 is_stmt 1 view .LVU250
 489:Drivers/STM32F1xx_HAL_Driver/Src/stm32f1xx_hal_dma.c **** 
 790              		.loc 1 489 5 view .LVU251
 791 008a 0023     		movs	r3, #0
 792 008c 80F82030 		strb	r3, [r0, #32]
 489:Drivers/STM32F1xx_HAL_Driver/Src/stm32f1xx_hal_dma.c **** 
 793              		.loc 1 489 5 view .LVU252
 492:Drivers/STM32F1xx_HAL_Driver/Src/stm32f1xx_hal_dma.c ****     {
 794              		.loc 1 492 5 view .LVU253
 492:Drivers/STM32F1xx_HAL_Driver/Src/stm32f1xx_hal_dma.c ****     {
 795              		.loc 1 492 12 is_stmt 0 view .LVU254
 796 0090 436B     		ldr	r3, [r0, #52]
 492:Drivers/STM32F1xx_HAL_Driver/Src/stm32f1xx_hal_dma.c ****     {
 797              		.loc 1 492 7 view .LVU255
 798 0092 002B     		cmp	r3, #0
 799 0094 5ED0     		beq	.L68
 494:Drivers/STM32F1xx_HAL_Driver/Src/stm32f1xx_hal_dma.c ****     } 
 800              		.loc 1 494 7 is_stmt 1 view .LVU256
 801 0096 9847     		blx	r3
 802              	.LVL45:
 465:Drivers/STM32F1xx_HAL_Driver/Src/stm32f1xx_hal_dma.c ****   
 803              		.loc 1 465 21 is_stmt 0 view .LVU257
 804 0098 0020     		movs	r0, #0
 805 009a B9E7     		b	.L41
 806              	.LVL46:
 807              	.L47:
 483:Drivers/STM32F1xx_HAL_Driver/Src/stm32f1xx_hal_dma.c **** 
 808              		.loc 1 483 5 view .LVU258
 809 009c 1022     		movs	r2, #16
 810 009e EFE7     		b	.L43
 811              	.L48:
 812 00a0 4FF48072 		mov	r2, #256
 813 00a4 ECE7     		b	.L43
 814              	.L49:
 815 00a6 4FF48052 		mov	r2, #4096
 816 00aa E9E7     		b	.L43
 817              	.L50:
 818 00ac 4FF48032 		mov	r2, #65536
 819 00b0 E6E7     		b	.L43
 820              	.L51:
ARM GAS  /var/folders/2w/5wbrmvx534s_vk8svtxz852c0000gn/T//cccJC0NJ.s 			page 35


 821 00b2 4FF48012 		mov	r2, #1048576
 822 00b6 E3E7     		b	.L43
 823              	.L52:
 824 00b8 4FF08072 		mov	r2, #16777216
 825 00bc E0E7     		b	.L43
 826              	.L53:
 827 00be 0122     		movs	r2, #1
 828 00c0 DEE7     		b	.L43
 829              	.L54:
 830 00c2 1022     		movs	r2, #16
 831 00c4 DCE7     		b	.L43
 832              	.L55:
 833 00c6 4FF48072 		mov	r2, #256
 834 00ca D9E7     		b	.L43
 835              	.L42:
 483:Drivers/STM32F1xx_HAL_Driver/Src/stm32f1xx_hal_dma.c **** 
 836              		.loc 1 483 5 discriminator 2 view .LVU259
 837 00cc 244A     		ldr	r2, .L72+8
 838 00ce 9342     		cmp	r3, r2
 839 00d0 24D0     		beq	.L57
 483:Drivers/STM32F1xx_HAL_Driver/Src/stm32f1xx_hal_dma.c **** 
 840              		.loc 1 483 5 discriminator 47 view .LVU260
 841 00d2 1432     		adds	r2, r2, #20
 842 00d4 9342     		cmp	r3, r2
 843 00d6 25D0     		beq	.L58
 483:Drivers/STM32F1xx_HAL_Driver/Src/stm32f1xx_hal_dma.c **** 
 844              		.loc 1 483 5 discriminator 49 view .LVU261
 845 00d8 1432     		adds	r2, r2, #20
 846 00da 9342     		cmp	r3, r2
 847 00dc 24D0     		beq	.L59
 483:Drivers/STM32F1xx_HAL_Driver/Src/stm32f1xx_hal_dma.c **** 
 848              		.loc 1 483 5 discriminator 51 view .LVU262
 849 00de 1432     		adds	r2, r2, #20
 850 00e0 9342     		cmp	r3, r2
 851 00e2 24D0     		beq	.L60
 483:Drivers/STM32F1xx_HAL_Driver/Src/stm32f1xx_hal_dma.c **** 
 852              		.loc 1 483 5 discriminator 53 view .LVU263
 853 00e4 1432     		adds	r2, r2, #20
 854 00e6 9342     		cmp	r3, r2
 855 00e8 24D0     		beq	.L61
 483:Drivers/STM32F1xx_HAL_Driver/Src/stm32f1xx_hal_dma.c **** 
 856              		.loc 1 483 5 discriminator 55 view .LVU264
 857 00ea 1432     		adds	r2, r2, #20
 858 00ec 9342     		cmp	r3, r2
 859 00ee 24D0     		beq	.L62
 483:Drivers/STM32F1xx_HAL_Driver/Src/stm32f1xx_hal_dma.c **** 
 860              		.loc 1 483 5 discriminator 57 view .LVU265
 861 00f0 1432     		adds	r2, r2, #20
 862 00f2 9342     		cmp	r3, r2
 863 00f4 24D0     		beq	.L63
 483:Drivers/STM32F1xx_HAL_Driver/Src/stm32f1xx_hal_dma.c **** 
 864              		.loc 1 483 5 discriminator 59 view .LVU266
 865 00f6 02F56272 		add	r2, r2, #904
 866 00fa 9342     		cmp	r3, r2
 867 00fc 23D0     		beq	.L64
 483:Drivers/STM32F1xx_HAL_Driver/Src/stm32f1xx_hal_dma.c **** 
 868              		.loc 1 483 5 discriminator 61 view .LVU267
ARM GAS  /var/folders/2w/5wbrmvx534s_vk8svtxz852c0000gn/T//cccJC0NJ.s 			page 36


 869 00fe 1432     		adds	r2, r2, #20
 870 0100 9342     		cmp	r3, r2
 871 0102 22D0     		beq	.L65
 483:Drivers/STM32F1xx_HAL_Driver/Src/stm32f1xx_hal_dma.c **** 
 872              		.loc 1 483 5 discriminator 63 view .LVU268
 873 0104 1432     		adds	r2, r2, #20
 874 0106 9342     		cmp	r3, r2
 875 0108 21D0     		beq	.L66
 483:Drivers/STM32F1xx_HAL_Driver/Src/stm32f1xx_hal_dma.c **** 
 876              		.loc 1 483 5 discriminator 65 view .LVU269
 877 010a 1432     		adds	r2, r2, #20
 878 010c 9342     		cmp	r3, r2
 879 010e 02D0     		beq	.L71
 483:Drivers/STM32F1xx_HAL_Driver/Src/stm32f1xx_hal_dma.c **** 
 880              		.loc 1 483 5 view .LVU270
 881 0110 4FF48032 		mov	r2, #65536
 882 0114 03E0     		b	.L45
 883              	.L71:
 884 0116 4FF48052 		mov	r2, #4096
 885 011a 00E0     		b	.L45
 886              	.L57:
 887 011c 0122     		movs	r2, #1
 888              	.L45:
 483:Drivers/STM32F1xx_HAL_Driver/Src/stm32f1xx_hal_dma.c **** 
 889              		.loc 1 483 5 discriminator 90 view .LVU271
 890 011e 114B     		ldr	r3, .L72+12
 891 0120 5A60     		str	r2, [r3, #4]
 892 0122 AFE7     		b	.L44
 893              	.L58:
 483:Drivers/STM32F1xx_HAL_Driver/Src/stm32f1xx_hal_dma.c **** 
 894              		.loc 1 483 5 view .LVU272
 895 0124 1022     		movs	r2, #16
 896 0126 FAE7     		b	.L45
 897              	.L59:
 898 0128 4FF48072 		mov	r2, #256
 899 012c F7E7     		b	.L45
 900              	.L60:
 901 012e 4FF48052 		mov	r2, #4096
 902 0132 F4E7     		b	.L45
 903              	.L61:
 904 0134 4FF48032 		mov	r2, #65536
 905 0138 F1E7     		b	.L45
 906              	.L62:
 907 013a 4FF48012 		mov	r2, #1048576
 908 013e EEE7     		b	.L45
 909              	.L63:
 910 0140 4FF08072 		mov	r2, #16777216
 911 0144 EBE7     		b	.L45
 912              	.L64:
 913 0146 0122     		movs	r2, #1
 914 0148 E9E7     		b	.L45
 915              	.L65:
 916 014a 1022     		movs	r2, #16
 917 014c E7E7     		b	.L45
 918              	.L66:
 919 014e 4FF48072 		mov	r2, #256
 920 0152 E4E7     		b	.L45
ARM GAS  /var/folders/2w/5wbrmvx534s_vk8svtxz852c0000gn/T//cccJC0NJ.s 			page 37


 921              	.L68:
 465:Drivers/STM32F1xx_HAL_Driver/Src/stm32f1xx_hal_dma.c ****   
 922              		.loc 1 465 21 view .LVU273
 923 0154 0020     		movs	r0, #0
 924              	.LVL47:
 465:Drivers/STM32F1xx_HAL_Driver/Src/stm32f1xx_hal_dma.c ****   
 925              		.loc 1 465 21 view .LVU274
 926 0156 5BE7     		b	.L41
 927              	.L73:
 928              		.align	2
 929              	.L72:
 930 0158 80000240 		.word	1073873024
 931 015c 00040240 		.word	1073873920
 932 0160 08000240 		.word	1073872904
 933 0164 00000240 		.word	1073872896
 934              		.cfi_endproc
 935              	.LFE71:
 937              		.section	.text.HAL_DMA_PollForTransfer,"ax",%progbits
 938              		.align	1
 939              		.global	HAL_DMA_PollForTransfer
 940              		.syntax unified
 941              		.thumb
 942              		.thumb_func
 944              	HAL_DMA_PollForTransfer:
 945              	.LVL48:
 946              	.LFB72:
 509:Drivers/STM32F1xx_HAL_Driver/Src/stm32f1xx_hal_dma.c ****   uint32_t temp;
 947              		.loc 1 509 1 is_stmt 1 view -0
 948              		.cfi_startproc
 949              		@ args = 0, pretend = 0, frame = 0
 950              		@ frame_needed = 0, uses_anonymous_args = 0
 509:Drivers/STM32F1xx_HAL_Driver/Src/stm32f1xx_hal_dma.c ****   uint32_t temp;
 951              		.loc 1 509 1 is_stmt 0 view .LVU276
 952 0000 2DE9F843 		push	{r3, r4, r5, r6, r7, r8, r9, lr}
 953              	.LCFI10:
 954              		.cfi_def_cfa_offset 32
 955              		.cfi_offset 3, -32
 956              		.cfi_offset 4, -28
 957              		.cfi_offset 5, -24
 958              		.cfi_offset 6, -20
 959              		.cfi_offset 7, -16
 960              		.cfi_offset 8, -12
 961              		.cfi_offset 9, -8
 962              		.cfi_offset 14, -4
 963 0004 0446     		mov	r4, r0
 510:Drivers/STM32F1xx_HAL_Driver/Src/stm32f1xx_hal_dma.c ****   uint32_t tickstart = 0U;
 964              		.loc 1 510 3 is_stmt 1 view .LVU277
 511:Drivers/STM32F1xx_HAL_Driver/Src/stm32f1xx_hal_dma.c **** 
 965              		.loc 1 511 3 view .LVU278
 966              	.LVL49:
 513:Drivers/STM32F1xx_HAL_Driver/Src/stm32f1xx_hal_dma.c ****   {
 967              		.loc 1 513 3 view .LVU279
 513:Drivers/STM32F1xx_HAL_Driver/Src/stm32f1xx_hal_dma.c ****   {
 968              		.loc 1 513 32 is_stmt 0 view .LVU280
 969 0006 90F82130 		ldrb	r3, [r0, #33]	@ zero_extendqisi2
 513:Drivers/STM32F1xx_HAL_Driver/Src/stm32f1xx_hal_dma.c ****   {
 970              		.loc 1 513 5 view .LVU281
ARM GAS  /var/folders/2w/5wbrmvx534s_vk8svtxz852c0000gn/T//cccJC0NJ.s 			page 38


 971 000a 022B     		cmp	r3, #2
 972 000c 07D0     		beq	.L75
 516:Drivers/STM32F1xx_HAL_Driver/Src/stm32f1xx_hal_dma.c ****     __HAL_UNLOCK(hdma);
 973              		.loc 1 516 5 is_stmt 1 view .LVU282
 516:Drivers/STM32F1xx_HAL_Driver/Src/stm32f1xx_hal_dma.c ****     __HAL_UNLOCK(hdma);
 974              		.loc 1 516 21 is_stmt 0 view .LVU283
 975 000e 0423     		movs	r3, #4
 976 0010 8363     		str	r3, [r0, #56]
 517:Drivers/STM32F1xx_HAL_Driver/Src/stm32f1xx_hal_dma.c ****     return HAL_ERROR;
 977              		.loc 1 517 5 is_stmt 1 view .LVU284
 517:Drivers/STM32F1xx_HAL_Driver/Src/stm32f1xx_hal_dma.c ****     return HAL_ERROR;
 978              		.loc 1 517 5 view .LVU285
 979 0012 0023     		movs	r3, #0
 980 0014 80F82030 		strb	r3, [r0, #32]
 517:Drivers/STM32F1xx_HAL_Driver/Src/stm32f1xx_hal_dma.c ****     return HAL_ERROR;
 981              		.loc 1 517 5 view .LVU286
 518:Drivers/STM32F1xx_HAL_Driver/Src/stm32f1xx_hal_dma.c ****   }
 982              		.loc 1 518 5 view .LVU287
 518:Drivers/STM32F1xx_HAL_Driver/Src/stm32f1xx_hal_dma.c ****   }
 983              		.loc 1 518 12 is_stmt 0 view .LVU288
 984 0018 0120     		movs	r0, #1
 985              	.LVL50:
 986              	.L76:
 601:Drivers/STM32F1xx_HAL_Driver/Src/stm32f1xx_hal_dma.c **** 
 987              		.loc 1 601 1 view .LVU289
 988 001a BDE8F883 		pop	{r3, r4, r5, r6, r7, r8, r9, pc}
 989              	.LVL51:
 990              	.L75:
 601:Drivers/STM32F1xx_HAL_Driver/Src/stm32f1xx_hal_dma.c **** 
 991              		.loc 1 601 1 view .LVU290
 992 001e 8846     		mov	r8, r1
 993 0020 1646     		mov	r6, r2
 522:Drivers/STM32F1xx_HAL_Driver/Src/stm32f1xx_hal_dma.c ****   {
 994              		.loc 1 522 3 is_stmt 1 view .LVU291
 522:Drivers/STM32F1xx_HAL_Driver/Src/stm32f1xx_hal_dma.c ****   {
 995              		.loc 1 522 21 is_stmt 0 view .LVU292
 996 0022 0368     		ldr	r3, [r0]
 522:Drivers/STM32F1xx_HAL_Driver/Src/stm32f1xx_hal_dma.c ****   {
 997              		.loc 1 522 31 view .LVU293
 998 0024 1A68     		ldr	r2, [r3]
 999              	.LVL52:
 522:Drivers/STM32F1xx_HAL_Driver/Src/stm32f1xx_hal_dma.c ****   {
 1000              		.loc 1 522 6 view .LVU294
 1001 0026 12F0200F 		tst	r2, #32
 1002 002a 25D1     		bne	.L189
 529:Drivers/STM32F1xx_HAL_Driver/Src/stm32f1xx_hal_dma.c ****   {
 1003              		.loc 1 529 3 is_stmt 1 view .LVU295
 529:Drivers/STM32F1xx_HAL_Driver/Src/stm32f1xx_hal_dma.c ****   {
 1004              		.loc 1 529 5 is_stmt 0 view .LVU296
 1005 002c 61BB     		cbnz	r1, .L78
 532:Drivers/STM32F1xx_HAL_Driver/Src/stm32f1xx_hal_dma.c ****   }
 1006              		.loc 1 532 5 is_stmt 1 view .LVU297
 532:Drivers/STM32F1xx_HAL_Driver/Src/stm32f1xx_hal_dma.c ****   }
 1007              		.loc 1 532 12 is_stmt 0 view .LVU298
 1008 002e A14A     		ldr	r2, .L201
 1009 0030 9342     		cmp	r3, r2
 1010 0032 51D0     		beq	.L100
ARM GAS  /var/folders/2w/5wbrmvx534s_vk8svtxz852c0000gn/T//cccJC0NJ.s 			page 39


 532:Drivers/STM32F1xx_HAL_Driver/Src/stm32f1xx_hal_dma.c ****   }
 1011              		.loc 1 532 12 discriminator 1 view .LVU299
 1012 0034 1432     		adds	r2, r2, #20
 1013 0036 9342     		cmp	r3, r2
 1014 0038 53D0     		beq	.L101
 532:Drivers/STM32F1xx_HAL_Driver/Src/stm32f1xx_hal_dma.c ****   }
 1015              		.loc 1 532 12 discriminator 3 view .LVU300
 1016 003a 1432     		adds	r2, r2, #20
 1017 003c 9342     		cmp	r3, r2
 1018 003e 52D0     		beq	.L102
 532:Drivers/STM32F1xx_HAL_Driver/Src/stm32f1xx_hal_dma.c ****   }
 1019              		.loc 1 532 12 discriminator 5 view .LVU301
 1020 0040 1432     		adds	r2, r2, #20
 1021 0042 9342     		cmp	r3, r2
 1022 0044 52D0     		beq	.L103
 532:Drivers/STM32F1xx_HAL_Driver/Src/stm32f1xx_hal_dma.c ****   }
 1023              		.loc 1 532 12 discriminator 7 view .LVU302
 1024 0046 1432     		adds	r2, r2, #20
 1025 0048 9342     		cmp	r3, r2
 1026 004a 52D0     		beq	.L104
 532:Drivers/STM32F1xx_HAL_Driver/Src/stm32f1xx_hal_dma.c ****   }
 1027              		.loc 1 532 12 discriminator 9 view .LVU303
 1028 004c 1432     		adds	r2, r2, #20
 1029 004e 9342     		cmp	r3, r2
 1030 0050 52D0     		beq	.L105
 532:Drivers/STM32F1xx_HAL_Driver/Src/stm32f1xx_hal_dma.c ****   }
 1031              		.loc 1 532 12 discriminator 11 view .LVU304
 1032 0052 1432     		adds	r2, r2, #20
 1033 0054 9342     		cmp	r3, r2
 1034 0056 52D0     		beq	.L106
 532:Drivers/STM32F1xx_HAL_Driver/Src/stm32f1xx_hal_dma.c ****   }
 1035              		.loc 1 532 12 discriminator 13 view .LVU305
 1036 0058 02F56272 		add	r2, r2, #904
 1037 005c 9342     		cmp	r3, r2
 1038 005e 51D0     		beq	.L107
 532:Drivers/STM32F1xx_HAL_Driver/Src/stm32f1xx_hal_dma.c ****   }
 1039              		.loc 1 532 12 discriminator 15 view .LVU306
 1040 0060 1432     		adds	r2, r2, #20
 1041 0062 9342     		cmp	r3, r2
 1042 0064 50D0     		beq	.L108
 532:Drivers/STM32F1xx_HAL_Driver/Src/stm32f1xx_hal_dma.c ****   }
 1043              		.loc 1 532 12 discriminator 17 view .LVU307
 1044 0066 1432     		adds	r2, r2, #20
 1045 0068 9342     		cmp	r3, r2
 1046 006a 4FD0     		beq	.L109
 532:Drivers/STM32F1xx_HAL_Driver/Src/stm32f1xx_hal_dma.c ****   }
 1047              		.loc 1 532 12 discriminator 19 view .LVU308
 1048 006c 1432     		adds	r2, r2, #20
 1049 006e 9342     		cmp	r3, r2
 1050 0070 07D0     		beq	.L190
 532:Drivers/STM32F1xx_HAL_Driver/Src/stm32f1xx_hal_dma.c ****   }
 1051              		.loc 1 532 12 view .LVU309
 1052 0072 4FF40037 		mov	r7, #131072
 1053 0076 30E0     		b	.L79
 1054              	.L189:
 524:Drivers/STM32F1xx_HAL_Driver/Src/stm32f1xx_hal_dma.c ****     return HAL_ERROR;
 1055              		.loc 1 524 5 is_stmt 1 view .LVU310
ARM GAS  /var/folders/2w/5wbrmvx534s_vk8svtxz852c0000gn/T//cccJC0NJ.s 			page 40


 524:Drivers/STM32F1xx_HAL_Driver/Src/stm32f1xx_hal_dma.c ****     return HAL_ERROR;
 1056              		.loc 1 524 21 is_stmt 0 view .LVU311
 1057 0078 4FF48073 		mov	r3, #256
 1058 007c 8363     		str	r3, [r0, #56]
 525:Drivers/STM32F1xx_HAL_Driver/Src/stm32f1xx_hal_dma.c ****   }
 1059              		.loc 1 525 5 is_stmt 1 view .LVU312
 525:Drivers/STM32F1xx_HAL_Driver/Src/stm32f1xx_hal_dma.c ****   }
 1060              		.loc 1 525 12 is_stmt 0 view .LVU313
 1061 007e 0120     		movs	r0, #1
 1062              	.LVL53:
 525:Drivers/STM32F1xx_HAL_Driver/Src/stm32f1xx_hal_dma.c ****   }
 1063              		.loc 1 525 12 view .LVU314
 1064 0080 CBE7     		b	.L76
 1065              	.LVL54:
 1066              	.L190:
 532:Drivers/STM32F1xx_HAL_Driver/Src/stm32f1xx_hal_dma.c ****   }
 1067              		.loc 1 532 12 view .LVU315
 1068 0082 4FF40057 		mov	r7, #8192
 1069 0086 28E0     		b	.L79
 1070              	.L78:
 537:Drivers/STM32F1xx_HAL_Driver/Src/stm32f1xx_hal_dma.c ****   }
 1071              		.loc 1 537 5 is_stmt 1 view .LVU316
 537:Drivers/STM32F1xx_HAL_Driver/Src/stm32f1xx_hal_dma.c ****   }
 1072              		.loc 1 537 12 is_stmt 0 view .LVU317
 1073 0088 8A4A     		ldr	r2, .L201
 1074 008a 9342     		cmp	r3, r2
 1075 008c 41D0     		beq	.L111
 537:Drivers/STM32F1xx_HAL_Driver/Src/stm32f1xx_hal_dma.c ****   }
 1076              		.loc 1 537 12 discriminator 1 view .LVU318
 1077 008e 1432     		adds	r2, r2, #20
 1078 0090 9342     		cmp	r3, r2
 1079 0092 40D0     		beq	.L112
 537:Drivers/STM32F1xx_HAL_Driver/Src/stm32f1xx_hal_dma.c ****   }
 1080              		.loc 1 537 12 discriminator 3 view .LVU319
 1081 0094 1432     		adds	r2, r2, #20
 1082 0096 9342     		cmp	r3, r2
 1083 0098 3FD0     		beq	.L113
 537:Drivers/STM32F1xx_HAL_Driver/Src/stm32f1xx_hal_dma.c ****   }
 1084              		.loc 1 537 12 discriminator 5 view .LVU320
 1085 009a 1432     		adds	r2, r2, #20
 1086 009c 9342     		cmp	r3, r2
 1087 009e 3FD0     		beq	.L114
 537:Drivers/STM32F1xx_HAL_Driver/Src/stm32f1xx_hal_dma.c ****   }
 1088              		.loc 1 537 12 discriminator 7 view .LVU321
 1089 00a0 1432     		adds	r2, r2, #20
 1090 00a2 9342     		cmp	r3, r2
 1091 00a4 3FD0     		beq	.L115
 537:Drivers/STM32F1xx_HAL_Driver/Src/stm32f1xx_hal_dma.c ****   }
 1092              		.loc 1 537 12 discriminator 9 view .LVU322
 1093 00a6 1432     		adds	r2, r2, #20
 1094 00a8 9342     		cmp	r3, r2
 1095 00aa 3FD0     		beq	.L116
 537:Drivers/STM32F1xx_HAL_Driver/Src/stm32f1xx_hal_dma.c ****   }
 1096              		.loc 1 537 12 discriminator 11 view .LVU323
 1097 00ac 1432     		adds	r2, r2, #20
 1098 00ae 9342     		cmp	r3, r2
 1099 00b0 3FD0     		beq	.L117
ARM GAS  /var/folders/2w/5wbrmvx534s_vk8svtxz852c0000gn/T//cccJC0NJ.s 			page 41


 537:Drivers/STM32F1xx_HAL_Driver/Src/stm32f1xx_hal_dma.c ****   }
 1100              		.loc 1 537 12 discriminator 13 view .LVU324
 1101 00b2 02F56272 		add	r2, r2, #904
 1102 00b6 9342     		cmp	r3, r2
 1103 00b8 3ED0     		beq	.L118
 537:Drivers/STM32F1xx_HAL_Driver/Src/stm32f1xx_hal_dma.c ****   }
 1104              		.loc 1 537 12 discriminator 15 view .LVU325
 1105 00ba 1432     		adds	r2, r2, #20
 1106 00bc 9342     		cmp	r3, r2
 1107 00be 3DD0     		beq	.L119
 537:Drivers/STM32F1xx_HAL_Driver/Src/stm32f1xx_hal_dma.c ****   }
 1108              		.loc 1 537 12 discriminator 17 view .LVU326
 1109 00c0 1432     		adds	r2, r2, #20
 1110 00c2 9342     		cmp	r3, r2
 1111 00c4 3CD0     		beq	.L120
 537:Drivers/STM32F1xx_HAL_Driver/Src/stm32f1xx_hal_dma.c ****   }
 1112              		.loc 1 537 12 discriminator 19 view .LVU327
 1113 00c6 1432     		adds	r2, r2, #20
 1114 00c8 9342     		cmp	r3, r2
 1115 00ca 02D0     		beq	.L191
 537:Drivers/STM32F1xx_HAL_Driver/Src/stm32f1xx_hal_dma.c ****   }
 1116              		.loc 1 537 12 view .LVU328
 1117 00cc 4FF48027 		mov	r7, #262144
 1118 00d0 03E0     		b	.L79
 1119              	.L191:
 1120 00d2 4FF48047 		mov	r7, #16384
 1121 00d6 00E0     		b	.L79
 1122              	.L100:
 532:Drivers/STM32F1xx_HAL_Driver/Src/stm32f1xx_hal_dma.c ****   }
 1123              		.loc 1 532 12 view .LVU329
 1124 00d8 0227     		movs	r7, #2
 1125              	.L79:
 1126              	.LVL55:
 541:Drivers/STM32F1xx_HAL_Driver/Src/stm32f1xx_hal_dma.c **** 
 1127              		.loc 1 541 3 is_stmt 1 view .LVU330
 541:Drivers/STM32F1xx_HAL_Driver/Src/stm32f1xx_hal_dma.c **** 
 1128              		.loc 1 541 15 is_stmt 0 view .LVU331
 1129 00da FFF7FEFF 		bl	HAL_GetTick
 1130              	.LVL56:
 541:Drivers/STM32F1xx_HAL_Driver/Src/stm32f1xx_hal_dma.c **** 
 1131              		.loc 1 541 15 view .LVU332
 1132 00de 8146     		mov	r9, r0
 1133              	.LVL57:
 543:Drivers/STM32F1xx_HAL_Driver/Src/stm32f1xx_hal_dma.c ****   {
 1134              		.loc 1 543 3 is_stmt 1 view .LVU333
 543:Drivers/STM32F1xx_HAL_Driver/Src/stm32f1xx_hal_dma.c ****   {
 1135              		.loc 1 543 8 is_stmt 0 view .LVU334
 1136 00e0 40E0     		b	.L86
 1137              	.LVL58:
 1138              	.L101:
 532:Drivers/STM32F1xx_HAL_Driver/Src/stm32f1xx_hal_dma.c ****   }
 1139              		.loc 1 532 12 view .LVU335
 1140 00e2 2027     		movs	r7, #32
 1141 00e4 F9E7     		b	.L79
 1142              	.L102:
 1143 00e6 4FF40077 		mov	r7, #512
 1144 00ea F6E7     		b	.L79
ARM GAS  /var/folders/2w/5wbrmvx534s_vk8svtxz852c0000gn/T//cccJC0NJ.s 			page 42


 1145              	.L103:
 1146 00ec 4FF40057 		mov	r7, #8192
 1147 00f0 F3E7     		b	.L79
 1148              	.L104:
 1149 00f2 4FF40037 		mov	r7, #131072
 1150 00f6 F0E7     		b	.L79
 1151              	.L105:
 1152 00f8 4FF40017 		mov	r7, #2097152
 1153 00fc EDE7     		b	.L79
 1154              	.L106:
 1155 00fe 4FF00077 		mov	r7, #33554432
 1156 0102 EAE7     		b	.L79
 1157              	.L107:
 1158 0104 0227     		movs	r7, #2
 1159 0106 E8E7     		b	.L79
 1160              	.L108:
 1161 0108 2027     		movs	r7, #32
 1162 010a E6E7     		b	.L79
 1163              	.L109:
 1164 010c 4FF40077 		mov	r7, #512
 1165 0110 E3E7     		b	.L79
 1166              	.L111:
 537:Drivers/STM32F1xx_HAL_Driver/Src/stm32f1xx_hal_dma.c ****   }
 1167              		.loc 1 537 12 view .LVU336
 1168 0112 0427     		movs	r7, #4
 1169 0114 E1E7     		b	.L79
 1170              	.L112:
 1171 0116 4027     		movs	r7, #64
 1172 0118 DFE7     		b	.L79
 1173              	.L113:
 1174 011a 4FF48067 		mov	r7, #1024
 1175 011e DCE7     		b	.L79
 1176              	.L114:
 1177 0120 4FF48047 		mov	r7, #16384
 1178 0124 D9E7     		b	.L79
 1179              	.L115:
 1180 0126 4FF48027 		mov	r7, #262144
 1181 012a D6E7     		b	.L79
 1182              	.L116:
 1183 012c 4FF48007 		mov	r7, #4194304
 1184 0130 D3E7     		b	.L79
 1185              	.L117:
 1186 0132 4FF08067 		mov	r7, #67108864
 1187 0136 D0E7     		b	.L79
 1188              	.L118:
 1189 0138 0427     		movs	r7, #4
 1190 013a CEE7     		b	.L79
 1191              	.L119:
 1192 013c 4027     		movs	r7, #64
 1193 013e CCE7     		b	.L79
 1194              	.L120:
 1195 0140 4FF48067 		mov	r7, #1024
 1196 0144 C9E7     		b	.L79
 1197              	.LVL59:
 1198              	.L195:
 545:Drivers/STM32F1xx_HAL_Driver/Src/stm32f1xx_hal_dma.c ****     {
 1199              		.loc 1 545 9 view .LVU337
ARM GAS  /var/folders/2w/5wbrmvx534s_vk8svtxz852c0000gn/T//cccJC0NJ.s 			page 43


 1200 0146 4FF40043 		mov	r3, #32768
 1201 014a 00E0     		b	.L82
 1202              	.L122:
 1203 014c 0823     		movs	r3, #8
 1204              	.L82:
 545:Drivers/STM32F1xx_HAL_Driver/Src/stm32f1xx_hal_dma.c ****     {
 1205              		.loc 1 545 69 discriminator 46 view .LVU338
 1206 014e 1A42     		tst	r2, r3
 1207 0150 14BF     		ite	ne
 1208 0152 0123     		movne	r3, #1
 1209 0154 0023     		moveq	r3, #0
 1210              	.L83:
 545:Drivers/STM32F1xx_HAL_Driver/Src/stm32f1xx_hal_dma.c ****     {
 1211              		.loc 1 545 7 discriminator 92 view .LVU339
 1212 0156 002B     		cmp	r3, #0
 1213 0158 40F09D80 		bne	.L192
 564:Drivers/STM32F1xx_HAL_Driver/Src/stm32f1xx_hal_dma.c ****     {
 1214              		.loc 1 564 5 is_stmt 1 view .LVU340
 564:Drivers/STM32F1xx_HAL_Driver/Src/stm32f1xx_hal_dma.c ****     {
 1215              		.loc 1 564 7 is_stmt 0 view .LVU341
 1216 015c B6F1FF3F 		cmp	r6, #-1
 1217 0160 40F0B080 		bne	.L193
 1218              	.L86:
 543:Drivers/STM32F1xx_HAL_Driver/Src/stm32f1xx_hal_dma.c ****   {
 1219              		.loc 1 543 8 is_stmt 1 view .LVU342
 543:Drivers/STM32F1xx_HAL_Driver/Src/stm32f1xx_hal_dma.c ****   {
 1220              		.loc 1 543 9 is_stmt 0 view .LVU343
 1221 0164 2368     		ldr	r3, [r4]
 543:Drivers/STM32F1xx_HAL_Driver/Src/stm32f1xx_hal_dma.c ****   {
 1222              		.loc 1 543 40 view .LVU344
 1223 0166 544D     		ldr	r5, .L201+4
 1224 0168 AB42     		cmp	r3, r5
 1225 016a 40F2BE80 		bls	.L88
 543:Drivers/STM32F1xx_HAL_Driver/Src/stm32f1xx_hal_dma.c ****   {
 1226              		.loc 1 543 9 discriminator 1 view .LVU345
 1227 016e 534A     		ldr	r2, .L201+8
 1228 0170 1268     		ldr	r2, [r2]
 543:Drivers/STM32F1xx_HAL_Driver/Src/stm32f1xx_hal_dma.c ****   {
 1229              		.loc 1 543 40 discriminator 1 view .LVU346
 1230 0172 3A42     		tst	r2, r7
 1231 0174 0CBF     		ite	eq
 1232 0176 0125     		moveq	r5, #1
 1233 0178 0025     		movne	r5, #0
 1234              	.L89:
 543:Drivers/STM32F1xx_HAL_Driver/Src/stm32f1xx_hal_dma.c ****   {
 1235              		.loc 1 543 8 discriminator 4 view .LVU347
 1236 017a 002D     		cmp	r5, #0
 1237 017c 00F0BC80 		beq	.L194
 545:Drivers/STM32F1xx_HAL_Driver/Src/stm32f1xx_hal_dma.c ****     {
 1238              		.loc 1 545 5 is_stmt 1 view .LVU348
 545:Drivers/STM32F1xx_HAL_Driver/Src/stm32f1xx_hal_dma.c ****     {
 1239              		.loc 1 545 69 is_stmt 0 view .LVU349
 1240 0180 4D4A     		ldr	r2, .L201+4
 1241 0182 9342     		cmp	r3, r2
 1242 0184 3FD9     		bls	.L81
 545:Drivers/STM32F1xx_HAL_Driver/Src/stm32f1xx_hal_dma.c ****     {
 1243              		.loc 1 545 9 discriminator 1 view .LVU350
ARM GAS  /var/folders/2w/5wbrmvx534s_vk8svtxz852c0000gn/T//cccJC0NJ.s 			page 44


 1244 0186 02F56072 		add	r2, r2, #896
 1245 018a 1268     		ldr	r2, [r2]
 1246 018c 4949     		ldr	r1, .L201
 1247 018e 8B42     		cmp	r3, r1
 1248 0190 DCD0     		beq	.L122
 545:Drivers/STM32F1xx_HAL_Driver/Src/stm32f1xx_hal_dma.c ****     {
 1249              		.loc 1 545 9 discriminator 3 view .LVU351
 1250 0192 1431     		adds	r1, r1, #20
 1251 0194 8B42     		cmp	r3, r1
 1252 0196 1ED0     		beq	.L123
 545:Drivers/STM32F1xx_HAL_Driver/Src/stm32f1xx_hal_dma.c ****     {
 1253              		.loc 1 545 9 discriminator 5 view .LVU352
 1254 0198 1431     		adds	r1, r1, #20
 1255 019a 8B42     		cmp	r3, r1
 1256 019c 1DD0     		beq	.L124
 545:Drivers/STM32F1xx_HAL_Driver/Src/stm32f1xx_hal_dma.c ****     {
 1257              		.loc 1 545 9 discriminator 7 view .LVU353
 1258 019e 1431     		adds	r1, r1, #20
 1259 01a0 8B42     		cmp	r3, r1
 1260 01a2 1DD0     		beq	.L125
 545:Drivers/STM32F1xx_HAL_Driver/Src/stm32f1xx_hal_dma.c ****     {
 1261              		.loc 1 545 9 discriminator 9 view .LVU354
 1262 01a4 1431     		adds	r1, r1, #20
 1263 01a6 8B42     		cmp	r3, r1
 1264 01a8 1DD0     		beq	.L126
 545:Drivers/STM32F1xx_HAL_Driver/Src/stm32f1xx_hal_dma.c ****     {
 1265              		.loc 1 545 9 discriminator 11 view .LVU355
 1266 01aa 1431     		adds	r1, r1, #20
 1267 01ac 8B42     		cmp	r3, r1
 1268 01ae 1DD0     		beq	.L127
 545:Drivers/STM32F1xx_HAL_Driver/Src/stm32f1xx_hal_dma.c ****     {
 1269              		.loc 1 545 9 discriminator 13 view .LVU356
 1270 01b0 1431     		adds	r1, r1, #20
 1271 01b2 8B42     		cmp	r3, r1
 1272 01b4 1DD0     		beq	.L128
 545:Drivers/STM32F1xx_HAL_Driver/Src/stm32f1xx_hal_dma.c ****     {
 1273              		.loc 1 545 9 discriminator 15 view .LVU357
 1274 01b6 01F56271 		add	r1, r1, #904
 1275 01ba 8B42     		cmp	r3, r1
 1276 01bc 1CD0     		beq	.L129
 545:Drivers/STM32F1xx_HAL_Driver/Src/stm32f1xx_hal_dma.c ****     {
 1277              		.loc 1 545 9 discriminator 17 view .LVU358
 1278 01be 1431     		adds	r1, r1, #20
 1279 01c0 8B42     		cmp	r3, r1
 1280 01c2 1BD0     		beq	.L130
 545:Drivers/STM32F1xx_HAL_Driver/Src/stm32f1xx_hal_dma.c ****     {
 1281              		.loc 1 545 9 discriminator 19 view .LVU359
 1282 01c4 1431     		adds	r1, r1, #20
 1283 01c6 8B42     		cmp	r3, r1
 1284 01c8 1AD0     		beq	.L131
 545:Drivers/STM32F1xx_HAL_Driver/Src/stm32f1xx_hal_dma.c ****     {
 1285              		.loc 1 545 9 discriminator 21 view .LVU360
 1286 01ca 1431     		adds	r1, r1, #20
 1287 01cc 8B42     		cmp	r3, r1
 1288 01ce BAD0     		beq	.L195
 545:Drivers/STM32F1xx_HAL_Driver/Src/stm32f1xx_hal_dma.c ****     {
 1289              		.loc 1 545 9 view .LVU361
ARM GAS  /var/folders/2w/5wbrmvx534s_vk8svtxz852c0000gn/T//cccJC0NJ.s 			page 45


 1290 01d0 4FF40023 		mov	r3, #524288
 1291 01d4 BBE7     		b	.L82
 1292              	.L123:
 1293 01d6 8023     		movs	r3, #128
 1294 01d8 B9E7     		b	.L82
 1295              	.L124:
 1296 01da 4FF40063 		mov	r3, #2048
 1297 01de B6E7     		b	.L82
 1298              	.L125:
 1299 01e0 4FF40043 		mov	r3, #32768
 1300 01e4 B3E7     		b	.L82
 1301              	.L126:
 1302 01e6 4FF40023 		mov	r3, #524288
 1303 01ea B0E7     		b	.L82
 1304              	.L127:
 1305 01ec 4FF40003 		mov	r3, #8388608
 1306 01f0 ADE7     		b	.L82
 1307              	.L128:
 1308 01f2 4FF00063 		mov	r3, #134217728
 1309 01f6 AAE7     		b	.L82
 1310              	.L129:
 1311 01f8 0823     		movs	r3, #8
 1312 01fa A8E7     		b	.L82
 1313              	.L130:
 1314 01fc 8023     		movs	r3, #128
 1315 01fe A6E7     		b	.L82
 1316              	.L131:
 1317 0200 4FF40063 		mov	r3, #2048
 1318 0204 A3E7     		b	.L82
 1319              	.L81:
 545:Drivers/STM32F1xx_HAL_Driver/Src/stm32f1xx_hal_dma.c ****     {
 1320              		.loc 1 545 9 discriminator 2 view .LVU362
 1321 0206 2E4A     		ldr	r2, .L201+12
 1322 0208 1268     		ldr	r2, [r2]
 1323 020a 2A49     		ldr	r1, .L201
 1324 020c 8B42     		cmp	r3, r1
 1325 020e 24D0     		beq	.L133
 545:Drivers/STM32F1xx_HAL_Driver/Src/stm32f1xx_hal_dma.c ****     {
 1326              		.loc 1 545 9 discriminator 48 view .LVU363
 1327 0210 1431     		adds	r1, r1, #20
 1328 0212 8B42     		cmp	r3, r1
 1329 0214 27D0     		beq	.L134
 545:Drivers/STM32F1xx_HAL_Driver/Src/stm32f1xx_hal_dma.c ****     {
 1330              		.loc 1 545 9 discriminator 50 view .LVU364
 1331 0216 1431     		adds	r1, r1, #20
 1332 0218 8B42     		cmp	r3, r1
 1333 021a 26D0     		beq	.L135
 545:Drivers/STM32F1xx_HAL_Driver/Src/stm32f1xx_hal_dma.c ****     {
 1334              		.loc 1 545 9 discriminator 52 view .LVU365
 1335 021c 1431     		adds	r1, r1, #20
 1336 021e 8B42     		cmp	r3, r1
 1337 0220 26D0     		beq	.L136
 545:Drivers/STM32F1xx_HAL_Driver/Src/stm32f1xx_hal_dma.c ****     {
 1338              		.loc 1 545 9 discriminator 54 view .LVU366
 1339 0222 1431     		adds	r1, r1, #20
 1340 0224 8B42     		cmp	r3, r1
 1341 0226 26D0     		beq	.L137
ARM GAS  /var/folders/2w/5wbrmvx534s_vk8svtxz852c0000gn/T//cccJC0NJ.s 			page 46


 545:Drivers/STM32F1xx_HAL_Driver/Src/stm32f1xx_hal_dma.c ****     {
 1342              		.loc 1 545 9 discriminator 56 view .LVU367
 1343 0228 1431     		adds	r1, r1, #20
 1344 022a 8B42     		cmp	r3, r1
 1345 022c 26D0     		beq	.L138
 545:Drivers/STM32F1xx_HAL_Driver/Src/stm32f1xx_hal_dma.c ****     {
 1346              		.loc 1 545 9 discriminator 58 view .LVU368
 1347 022e 1431     		adds	r1, r1, #20
 1348 0230 8B42     		cmp	r3, r1
 1349 0232 26D0     		beq	.L139
 545:Drivers/STM32F1xx_HAL_Driver/Src/stm32f1xx_hal_dma.c ****     {
 1350              		.loc 1 545 9 discriminator 60 view .LVU369
 1351 0234 01F56271 		add	r1, r1, #904
 1352 0238 8B42     		cmp	r3, r1
 1353 023a 25D0     		beq	.L140
 545:Drivers/STM32F1xx_HAL_Driver/Src/stm32f1xx_hal_dma.c ****     {
 1354              		.loc 1 545 9 discriminator 62 view .LVU370
 1355 023c 1431     		adds	r1, r1, #20
 1356 023e 8B42     		cmp	r3, r1
 1357 0240 24D0     		beq	.L141
 545:Drivers/STM32F1xx_HAL_Driver/Src/stm32f1xx_hal_dma.c ****     {
 1358              		.loc 1 545 9 discriminator 64 view .LVU371
 1359 0242 1431     		adds	r1, r1, #20
 1360 0244 8B42     		cmp	r3, r1
 1361 0246 23D0     		beq	.L142
 545:Drivers/STM32F1xx_HAL_Driver/Src/stm32f1xx_hal_dma.c ****     {
 1362              		.loc 1 545 9 discriminator 66 view .LVU372
 1363 0248 1431     		adds	r1, r1, #20
 1364 024a 8B42     		cmp	r3, r1
 1365 024c 02D0     		beq	.L196
 545:Drivers/STM32F1xx_HAL_Driver/Src/stm32f1xx_hal_dma.c ****     {
 1366              		.loc 1 545 9 view .LVU373
 1367 024e 4FF40023 		mov	r3, #524288
 1368 0252 03E0     		b	.L84
 1369              	.L196:
 1370 0254 4FF40043 		mov	r3, #32768
 1371 0258 00E0     		b	.L84
 1372              	.L133:
 1373 025a 0823     		movs	r3, #8
 1374              	.L84:
 545:Drivers/STM32F1xx_HAL_Driver/Src/stm32f1xx_hal_dma.c ****     {
 1375              		.loc 1 545 69 discriminator 91 view .LVU374
 1376 025c 1A42     		tst	r2, r3
 1377 025e 14BF     		ite	ne
 1378 0260 0123     		movne	r3, #1
 1379 0262 0023     		moveq	r3, #0
 1380 0264 77E7     		b	.L83
 1381              	.L134:
 545:Drivers/STM32F1xx_HAL_Driver/Src/stm32f1xx_hal_dma.c ****     {
 1382              		.loc 1 545 9 view .LVU375
 1383 0266 8023     		movs	r3, #128
 1384 0268 F8E7     		b	.L84
 1385              	.L135:
 1386 026a 4FF40063 		mov	r3, #2048
 1387 026e F5E7     		b	.L84
 1388              	.L136:
 1389 0270 4FF40043 		mov	r3, #32768
ARM GAS  /var/folders/2w/5wbrmvx534s_vk8svtxz852c0000gn/T//cccJC0NJ.s 			page 47


 1390 0274 F2E7     		b	.L84
 1391              	.L137:
 1392 0276 4FF40023 		mov	r3, #524288
 1393 027a EFE7     		b	.L84
 1394              	.L138:
 1395 027c 4FF40003 		mov	r3, #8388608
 1396 0280 ECE7     		b	.L84
 1397              	.L139:
 1398 0282 4FF00063 		mov	r3, #134217728
 1399 0286 E9E7     		b	.L84
 1400              	.L140:
 1401 0288 0823     		movs	r3, #8
 1402 028a E7E7     		b	.L84
 1403              	.L141:
 1404 028c 8023     		movs	r3, #128
 1405 028e E5E7     		b	.L84
 1406              	.L142:
 1407 0290 4FF40063 		mov	r3, #2048
 1408 0294 E2E7     		b	.L84
 1409              	.L192:
 550:Drivers/STM32F1xx_HAL_Driver/Src/stm32f1xx_hal_dma.c **** 
 1410              		.loc 1 550 7 is_stmt 1 view .LVU376
 550:Drivers/STM32F1xx_HAL_Driver/Src/stm32f1xx_hal_dma.c **** 
 1411              		.loc 1 550 57 is_stmt 0 view .LVU377
 1412 0296 236C     		ldr	r3, [r4, #64]
 550:Drivers/STM32F1xx_HAL_Driver/Src/stm32f1xx_hal_dma.c **** 
 1413              		.loc 1 550 11 view .LVU378
 1414 0298 E26B     		ldr	r2, [r4, #60]
 550:Drivers/STM32F1xx_HAL_Driver/Src/stm32f1xx_hal_dma.c **** 
 1415              		.loc 1 550 50 view .LVU379
 1416 029a 0120     		movs	r0, #1
 1417 029c 00FA03F3 		lsl	r3, r0, r3
 550:Drivers/STM32F1xx_HAL_Driver/Src/stm32f1xx_hal_dma.c **** 
 1418              		.loc 1 550 34 view .LVU380
 1419 02a0 5360     		str	r3, [r2, #4]
 553:Drivers/STM32F1xx_HAL_Driver/Src/stm32f1xx_hal_dma.c **** 
 1420              		.loc 1 553 7 is_stmt 1 view .LVU381
 1421 02a2 A36B     		ldr	r3, [r4, #56]
 1422 02a4 0343     		orrs	r3, r3, r0
 1423 02a6 A363     		str	r3, [r4, #56]
 556:Drivers/STM32F1xx_HAL_Driver/Src/stm32f1xx_hal_dma.c **** 
 1424              		.loc 1 556 7 view .LVU382
 556:Drivers/STM32F1xx_HAL_Driver/Src/stm32f1xx_hal_dma.c **** 
 1425              		.loc 1 556 18 is_stmt 0 view .LVU383
 1426 02a8 84F82100 		strb	r0, [r4, #33]
 559:Drivers/STM32F1xx_HAL_Driver/Src/stm32f1xx_hal_dma.c **** 
 1427              		.loc 1 559 7 is_stmt 1 view .LVU384
 559:Drivers/STM32F1xx_HAL_Driver/Src/stm32f1xx_hal_dma.c **** 
 1428              		.loc 1 559 7 view .LVU385
 1429 02ac 0023     		movs	r3, #0
 1430 02ae 84F82030 		strb	r3, [r4, #32]
 559:Drivers/STM32F1xx_HAL_Driver/Src/stm32f1xx_hal_dma.c **** 
 1431              		.loc 1 559 7 view .LVU386
 561:Drivers/STM32F1xx_HAL_Driver/Src/stm32f1xx_hal_dma.c ****     }
 1432              		.loc 1 561 7 view .LVU387
 561:Drivers/STM32F1xx_HAL_Driver/Src/stm32f1xx_hal_dma.c ****     }
 1433              		.loc 1 561 14 is_stmt 0 view .LVU388
ARM GAS  /var/folders/2w/5wbrmvx534s_vk8svtxz852c0000gn/T//cccJC0NJ.s 			page 48


 1434 02b2 B2E6     		b	.L76
 1435              	.L202:
 1436              		.align	2
 1437              	.L201:
 1438 02b4 08000240 		.word	1073872904
 1439 02b8 80000240 		.word	1073873024
 1440 02bc 00040240 		.word	1073873920
 1441 02c0 00000240 		.word	1073872896
 1442              	.L193:
 566:Drivers/STM32F1xx_HAL_Driver/Src/stm32f1xx_hal_dma.c ****       {
 1443              		.loc 1 566 7 is_stmt 1 view .LVU389
 566:Drivers/STM32F1xx_HAL_Driver/Src/stm32f1xx_hal_dma.c ****       {
 1444              		.loc 1 566 9 is_stmt 0 view .LVU390
 1445 02c4 36B1     		cbz	r6, .L87
 566:Drivers/STM32F1xx_HAL_Driver/Src/stm32f1xx_hal_dma.c ****       {
 1446              		.loc 1 566 31 discriminator 1 view .LVU391
 1447 02c6 FFF7FEFF 		bl	HAL_GetTick
 1448              	.LVL60:
 566:Drivers/STM32F1xx_HAL_Driver/Src/stm32f1xx_hal_dma.c ****       {
 1449              		.loc 1 566 45 discriminator 1 view .LVU392
 1450 02ca A0EB0900 		sub	r0, r0, r9
 566:Drivers/STM32F1xx_HAL_Driver/Src/stm32f1xx_hal_dma.c ****       {
 1451              		.loc 1 566 26 discriminator 1 view .LVU393
 1452 02ce B042     		cmp	r0, r6
 1453 02d0 7FF648AF 		bls	.L86
 1454              	.L87:
 569:Drivers/STM32F1xx_HAL_Driver/Src/stm32f1xx_hal_dma.c **** 
 1455              		.loc 1 569 9 is_stmt 1 view .LVU394
 1456 02d4 A36B     		ldr	r3, [r4, #56]
 1457 02d6 43F02003 		orr	r3, r3, #32
 1458 02da A363     		str	r3, [r4, #56]
 572:Drivers/STM32F1xx_HAL_Driver/Src/stm32f1xx_hal_dma.c **** 
 1459              		.loc 1 572 9 view .LVU395
 572:Drivers/STM32F1xx_HAL_Driver/Src/stm32f1xx_hal_dma.c **** 
 1460              		.loc 1 572 21 is_stmt 0 view .LVU396
 1461 02dc 0120     		movs	r0, #1
 1462 02de 84F82100 		strb	r0, [r4, #33]
 575:Drivers/STM32F1xx_HAL_Driver/Src/stm32f1xx_hal_dma.c **** 
 1463              		.loc 1 575 9 is_stmt 1 view .LVU397
 575:Drivers/STM32F1xx_HAL_Driver/Src/stm32f1xx_hal_dma.c **** 
 1464              		.loc 1 575 9 view .LVU398
 1465 02e2 0023     		movs	r3, #0
 1466 02e4 84F82030 		strb	r3, [r4, #32]
 575:Drivers/STM32F1xx_HAL_Driver/Src/stm32f1xx_hal_dma.c **** 
 1467              		.loc 1 575 9 view .LVU399
 577:Drivers/STM32F1xx_HAL_Driver/Src/stm32f1xx_hal_dma.c ****       }
 1468              		.loc 1 577 9 view .LVU400
 577:Drivers/STM32F1xx_HAL_Driver/Src/stm32f1xx_hal_dma.c ****       }
 1469              		.loc 1 577 16 is_stmt 0 view .LVU401
 1470 02e8 97E6     		b	.L76
 1471              	.L88:
 543:Drivers/STM32F1xx_HAL_Driver/Src/stm32f1xx_hal_dma.c ****   {
 1472              		.loc 1 543 9 discriminator 2 view .LVU402
 1473 02ea 934A     		ldr	r2, .L203
 1474 02ec 1268     		ldr	r2, [r2]
 543:Drivers/STM32F1xx_HAL_Driver/Src/stm32f1xx_hal_dma.c ****   {
 1475              		.loc 1 543 40 discriminator 2 view .LVU403
ARM GAS  /var/folders/2w/5wbrmvx534s_vk8svtxz852c0000gn/T//cccJC0NJ.s 			page 49


 1476 02ee 3A42     		tst	r2, r7
 1477 02f0 0CBF     		ite	eq
 1478 02f2 0125     		moveq	r5, #1
 1479 02f4 0025     		movne	r5, #0
 1480 02f6 40E7     		b	.L89
 1481              	.L194:
 582:Drivers/STM32F1xx_HAL_Driver/Src/stm32f1xx_hal_dma.c ****   {
 1482              		.loc 1 582 3 is_stmt 1 view .LVU404
 582:Drivers/STM32F1xx_HAL_Driver/Src/stm32f1xx_hal_dma.c ****   {
 1483              		.loc 1 582 5 is_stmt 0 view .LVU405
 1484 02f8 B8F1000F 		cmp	r8, #0
 1485 02fc 40F09180 		bne	.L91
 585:Drivers/STM32F1xx_HAL_Driver/Src/stm32f1xx_hal_dma.c **** 
 1486              		.loc 1 585 5 is_stmt 1 view .LVU406
 1487 0300 8E4A     		ldr	r2, .L203+4
 1488 0302 9342     		cmp	r3, r2
 1489 0304 49D9     		bls	.L92
 585:Drivers/STM32F1xx_HAL_Driver/Src/stm32f1xx_hal_dma.c **** 
 1490              		.loc 1 585 5 is_stmt 0 discriminator 1 view .LVU407
 1491 0306 783A     		subs	r2, r2, #120
 1492 0308 9342     		cmp	r3, r2
 1493 030a 24D0     		beq	.L144
 585:Drivers/STM32F1xx_HAL_Driver/Src/stm32f1xx_hal_dma.c **** 
 1494              		.loc 1 585 5 discriminator 3 view .LVU408
 1495 030c 1432     		adds	r2, r2, #20
 1496 030e 9342     		cmp	r3, r2
 1497 0310 2BD0     		beq	.L145
 585:Drivers/STM32F1xx_HAL_Driver/Src/stm32f1xx_hal_dma.c **** 
 1498              		.loc 1 585 5 discriminator 5 view .LVU409
 1499 0312 1432     		adds	r2, r2, #20
 1500 0314 9342     		cmp	r3, r2
 1501 0316 2AD0     		beq	.L146
 585:Drivers/STM32F1xx_HAL_Driver/Src/stm32f1xx_hal_dma.c **** 
 1502              		.loc 1 585 5 discriminator 7 view .LVU410
 1503 0318 1432     		adds	r2, r2, #20
 1504 031a 9342     		cmp	r3, r2
 1505 031c 2AD0     		beq	.L147
 585:Drivers/STM32F1xx_HAL_Driver/Src/stm32f1xx_hal_dma.c **** 
 1506              		.loc 1 585 5 discriminator 9 view .LVU411
 1507 031e 1432     		adds	r2, r2, #20
 1508 0320 9342     		cmp	r3, r2
 1509 0322 2AD0     		beq	.L148
 585:Drivers/STM32F1xx_HAL_Driver/Src/stm32f1xx_hal_dma.c **** 
 1510              		.loc 1 585 5 discriminator 11 view .LVU412
 1511 0324 1432     		adds	r2, r2, #20
 1512 0326 9342     		cmp	r3, r2
 1513 0328 2AD0     		beq	.L149
 585:Drivers/STM32F1xx_HAL_Driver/Src/stm32f1xx_hal_dma.c **** 
 1514              		.loc 1 585 5 discriminator 13 view .LVU413
 1515 032a 1432     		adds	r2, r2, #20
 1516 032c 9342     		cmp	r3, r2
 1517 032e 2AD0     		beq	.L150
 585:Drivers/STM32F1xx_HAL_Driver/Src/stm32f1xx_hal_dma.c **** 
 1518              		.loc 1 585 5 discriminator 15 view .LVU414
 1519 0330 02F56272 		add	r2, r2, #904
 1520 0334 9342     		cmp	r3, r2
 1521 0336 29D0     		beq	.L151
ARM GAS  /var/folders/2w/5wbrmvx534s_vk8svtxz852c0000gn/T//cccJC0NJ.s 			page 50


 585:Drivers/STM32F1xx_HAL_Driver/Src/stm32f1xx_hal_dma.c **** 
 1522              		.loc 1 585 5 discriminator 17 view .LVU415
 1523 0338 1432     		adds	r2, r2, #20
 1524 033a 9342     		cmp	r3, r2
 1525 033c 28D0     		beq	.L152
 585:Drivers/STM32F1xx_HAL_Driver/Src/stm32f1xx_hal_dma.c **** 
 1526              		.loc 1 585 5 discriminator 19 view .LVU416
 1527 033e 1432     		adds	r2, r2, #20
 1528 0340 9342     		cmp	r3, r2
 1529 0342 27D0     		beq	.L153
 585:Drivers/STM32F1xx_HAL_Driver/Src/stm32f1xx_hal_dma.c **** 
 1530              		.loc 1 585 5 discriminator 21 view .LVU417
 1531 0344 1432     		adds	r2, r2, #20
 1532 0346 9342     		cmp	r3, r2
 1533 0348 02D0     		beq	.L197
 585:Drivers/STM32F1xx_HAL_Driver/Src/stm32f1xx_hal_dma.c **** 
 1534              		.loc 1 585 5 view .LVU418
 1535 034a 4FF40033 		mov	r3, #131072
 1536 034e 03E0     		b	.L93
 1537              	.L197:
 1538 0350 4FF40053 		mov	r3, #8192
 1539 0354 00E0     		b	.L93
 1540              	.L144:
 1541 0356 0223     		movs	r3, #2
 1542              	.L93:
 585:Drivers/STM32F1xx_HAL_Driver/Src/stm32f1xx_hal_dma.c **** 
 1543              		.loc 1 585 5 discriminator 46 view .LVU419
 1544 0358 794A     		ldr	r2, .L203+8
 1545 035a 5360     		str	r3, [r2, #4]
 1546              	.L94:
 589:Drivers/STM32F1xx_HAL_Driver/Src/stm32f1xx_hal_dma.c ****   }
 1547              		.loc 1 589 5 is_stmt 1 view .LVU420
 589:Drivers/STM32F1xx_HAL_Driver/Src/stm32f1xx_hal_dma.c ****   }
 1548              		.loc 1 589 17 is_stmt 0 view .LVU421
 1549 035c 0123     		movs	r3, #1
 1550 035e 84F82130 		strb	r3, [r4, #33]
 1551              	.L96:
 598:Drivers/STM32F1xx_HAL_Driver/Src/stm32f1xx_hal_dma.c **** 
 1552              		.loc 1 598 3 is_stmt 1 view .LVU422
 598:Drivers/STM32F1xx_HAL_Driver/Src/stm32f1xx_hal_dma.c **** 
 1553              		.loc 1 598 3 view .LVU423
 1554 0362 0020     		movs	r0, #0
 1555 0364 84F82000 		strb	r0, [r4, #32]
 598:Drivers/STM32F1xx_HAL_Driver/Src/stm32f1xx_hal_dma.c **** 
 1556              		.loc 1 598 3 view .LVU424
 600:Drivers/STM32F1xx_HAL_Driver/Src/stm32f1xx_hal_dma.c **** }
 1557              		.loc 1 600 3 view .LVU425
 600:Drivers/STM32F1xx_HAL_Driver/Src/stm32f1xx_hal_dma.c **** }
 1558              		.loc 1 600 10 is_stmt 0 view .LVU426
 1559 0368 57E6     		b	.L76
 1560              	.L145:
 585:Drivers/STM32F1xx_HAL_Driver/Src/stm32f1xx_hal_dma.c **** 
 1561              		.loc 1 585 5 view .LVU427
 1562 036a 2023     		movs	r3, #32
 1563 036c F4E7     		b	.L93
 1564              	.L146:
 1565 036e 4FF40073 		mov	r3, #512
ARM GAS  /var/folders/2w/5wbrmvx534s_vk8svtxz852c0000gn/T//cccJC0NJ.s 			page 51


 1566 0372 F1E7     		b	.L93
 1567              	.L147:
 1568 0374 4FF40053 		mov	r3, #8192
 1569 0378 EEE7     		b	.L93
 1570              	.L148:
 1571 037a 4FF40033 		mov	r3, #131072
 1572 037e EBE7     		b	.L93
 1573              	.L149:
 1574 0380 4FF40013 		mov	r3, #2097152
 1575 0384 E8E7     		b	.L93
 1576              	.L150:
 1577 0386 4FF00073 		mov	r3, #33554432
 1578 038a E5E7     		b	.L93
 1579              	.L151:
 1580 038c 0223     		movs	r3, #2
 1581 038e E3E7     		b	.L93
 1582              	.L152:
 1583 0390 2023     		movs	r3, #32
 1584 0392 E1E7     		b	.L93
 1585              	.L153:
 1586 0394 4FF40073 		mov	r3, #512
 1587 0398 DEE7     		b	.L93
 1588              	.L92:
 585:Drivers/STM32F1xx_HAL_Driver/Src/stm32f1xx_hal_dma.c **** 
 1589              		.loc 1 585 5 discriminator 2 view .LVU428
 1590 039a 6A4A     		ldr	r2, .L203+12
 1591 039c 9342     		cmp	r3, r2
 1592 039e 24D0     		beq	.L155
 585:Drivers/STM32F1xx_HAL_Driver/Src/stm32f1xx_hal_dma.c **** 
 1593              		.loc 1 585 5 discriminator 47 view .LVU429
 1594 03a0 1432     		adds	r2, r2, #20
 1595 03a2 9342     		cmp	r3, r2
 1596 03a4 25D0     		beq	.L156
 585:Drivers/STM32F1xx_HAL_Driver/Src/stm32f1xx_hal_dma.c **** 
 1597              		.loc 1 585 5 discriminator 49 view .LVU430
 1598 03a6 1432     		adds	r2, r2, #20
 1599 03a8 9342     		cmp	r3, r2
 1600 03aa 24D0     		beq	.L157
 585:Drivers/STM32F1xx_HAL_Driver/Src/stm32f1xx_hal_dma.c **** 
 1601              		.loc 1 585 5 discriminator 51 view .LVU431
 1602 03ac 1432     		adds	r2, r2, #20
 1603 03ae 9342     		cmp	r3, r2
 1604 03b0 24D0     		beq	.L158
 585:Drivers/STM32F1xx_HAL_Driver/Src/stm32f1xx_hal_dma.c **** 
 1605              		.loc 1 585 5 discriminator 53 view .LVU432
 1606 03b2 1432     		adds	r2, r2, #20
 1607 03b4 9342     		cmp	r3, r2
 1608 03b6 24D0     		beq	.L159
 585:Drivers/STM32F1xx_HAL_Driver/Src/stm32f1xx_hal_dma.c **** 
 1609              		.loc 1 585 5 discriminator 55 view .LVU433
 1610 03b8 1432     		adds	r2, r2, #20
 1611 03ba 9342     		cmp	r3, r2
 1612 03bc 24D0     		beq	.L160
 585:Drivers/STM32F1xx_HAL_Driver/Src/stm32f1xx_hal_dma.c **** 
 1613              		.loc 1 585 5 discriminator 57 view .LVU434
 1614 03be 1432     		adds	r2, r2, #20
 1615 03c0 9342     		cmp	r3, r2
ARM GAS  /var/folders/2w/5wbrmvx534s_vk8svtxz852c0000gn/T//cccJC0NJ.s 			page 52


 1616 03c2 24D0     		beq	.L161
 585:Drivers/STM32F1xx_HAL_Driver/Src/stm32f1xx_hal_dma.c **** 
 1617              		.loc 1 585 5 discriminator 59 view .LVU435
 1618 03c4 02F56272 		add	r2, r2, #904
 1619 03c8 9342     		cmp	r3, r2
 1620 03ca 23D0     		beq	.L162
 585:Drivers/STM32F1xx_HAL_Driver/Src/stm32f1xx_hal_dma.c **** 
 1621              		.loc 1 585 5 discriminator 61 view .LVU436
 1622 03cc 1432     		adds	r2, r2, #20
 1623 03ce 9342     		cmp	r3, r2
 1624 03d0 22D0     		beq	.L163
 585:Drivers/STM32F1xx_HAL_Driver/Src/stm32f1xx_hal_dma.c **** 
 1625              		.loc 1 585 5 discriminator 63 view .LVU437
 1626 03d2 1432     		adds	r2, r2, #20
 1627 03d4 9342     		cmp	r3, r2
 1628 03d6 21D0     		beq	.L164
 585:Drivers/STM32F1xx_HAL_Driver/Src/stm32f1xx_hal_dma.c **** 
 1629              		.loc 1 585 5 discriminator 65 view .LVU438
 1630 03d8 1432     		adds	r2, r2, #20
 1631 03da 9342     		cmp	r3, r2
 1632 03dc 02D0     		beq	.L198
 585:Drivers/STM32F1xx_HAL_Driver/Src/stm32f1xx_hal_dma.c **** 
 1633              		.loc 1 585 5 view .LVU439
 1634 03de 4FF40033 		mov	r3, #131072
 1635 03e2 03E0     		b	.L95
 1636              	.L198:
 1637 03e4 4FF40053 		mov	r3, #8192
 1638 03e8 00E0     		b	.L95
 1639              	.L155:
 1640 03ea 0223     		movs	r3, #2
 1641              	.L95:
 585:Drivers/STM32F1xx_HAL_Driver/Src/stm32f1xx_hal_dma.c **** 
 1642              		.loc 1 585 5 discriminator 90 view .LVU440
 1643 03ec 524A     		ldr	r2, .L203
 1644 03ee 5360     		str	r3, [r2, #4]
 1645 03f0 B4E7     		b	.L94
 1646              	.L156:
 585:Drivers/STM32F1xx_HAL_Driver/Src/stm32f1xx_hal_dma.c **** 
 1647              		.loc 1 585 5 view .LVU441
 1648 03f2 2023     		movs	r3, #32
 1649 03f4 FAE7     		b	.L95
 1650              	.L157:
 1651 03f6 4FF40073 		mov	r3, #512
 1652 03fa F7E7     		b	.L95
 1653              	.L158:
 1654 03fc 4FF40053 		mov	r3, #8192
 1655 0400 F4E7     		b	.L95
 1656              	.L159:
 1657 0402 4FF40033 		mov	r3, #131072
 1658 0406 F1E7     		b	.L95
 1659              	.L160:
 1660 0408 4FF40013 		mov	r3, #2097152
 1661 040c EEE7     		b	.L95
 1662              	.L161:
 1663 040e 4FF00073 		mov	r3, #33554432
 1664 0412 EBE7     		b	.L95
 1665              	.L162:
ARM GAS  /var/folders/2w/5wbrmvx534s_vk8svtxz852c0000gn/T//cccJC0NJ.s 			page 53


 1666 0414 0223     		movs	r3, #2
 1667 0416 E9E7     		b	.L95
 1668              	.L163:
 1669 0418 2023     		movs	r3, #32
 1670 041a E7E7     		b	.L95
 1671              	.L164:
 1672 041c 4FF40073 		mov	r3, #512
 1673 0420 E4E7     		b	.L95
 1674              	.L91:
 594:Drivers/STM32F1xx_HAL_Driver/Src/stm32f1xx_hal_dma.c ****   }
 1675              		.loc 1 594 5 is_stmt 1 view .LVU442
 1676 0422 464A     		ldr	r2, .L203+4
 1677 0424 9342     		cmp	r3, r2
 1678 0426 43D9     		bls	.L97
 594:Drivers/STM32F1xx_HAL_Driver/Src/stm32f1xx_hal_dma.c ****   }
 1679              		.loc 1 594 5 is_stmt 0 discriminator 1 view .LVU443
 1680 0428 783A     		subs	r2, r2, #120
 1681 042a 9342     		cmp	r3, r2
 1682 042c 24D0     		beq	.L166
 594:Drivers/STM32F1xx_HAL_Driver/Src/stm32f1xx_hal_dma.c ****   }
 1683              		.loc 1 594 5 discriminator 3 view .LVU444
 1684 042e 1432     		adds	r2, r2, #20
 1685 0430 9342     		cmp	r3, r2
 1686 0432 25D0     		beq	.L167
 594:Drivers/STM32F1xx_HAL_Driver/Src/stm32f1xx_hal_dma.c ****   }
 1687              		.loc 1 594 5 discriminator 5 view .LVU445
 1688 0434 1432     		adds	r2, r2, #20
 1689 0436 9342     		cmp	r3, r2
 1690 0438 24D0     		beq	.L168
 594:Drivers/STM32F1xx_HAL_Driver/Src/stm32f1xx_hal_dma.c ****   }
 1691              		.loc 1 594 5 discriminator 7 view .LVU446
 1692 043a 1432     		adds	r2, r2, #20
 1693 043c 9342     		cmp	r3, r2
 1694 043e 24D0     		beq	.L169
 594:Drivers/STM32F1xx_HAL_Driver/Src/stm32f1xx_hal_dma.c ****   }
 1695              		.loc 1 594 5 discriminator 9 view .LVU447
 1696 0440 1432     		adds	r2, r2, #20
 1697 0442 9342     		cmp	r3, r2
 1698 0444 24D0     		beq	.L170
 594:Drivers/STM32F1xx_HAL_Driver/Src/stm32f1xx_hal_dma.c ****   }
 1699              		.loc 1 594 5 discriminator 11 view .LVU448
 1700 0446 1432     		adds	r2, r2, #20
 1701 0448 9342     		cmp	r3, r2
 1702 044a 24D0     		beq	.L171
 594:Drivers/STM32F1xx_HAL_Driver/Src/stm32f1xx_hal_dma.c ****   }
 1703              		.loc 1 594 5 discriminator 13 view .LVU449
 1704 044c 1432     		adds	r2, r2, #20
 1705 044e 9342     		cmp	r3, r2
 1706 0450 24D0     		beq	.L172
 594:Drivers/STM32F1xx_HAL_Driver/Src/stm32f1xx_hal_dma.c ****   }
 1707              		.loc 1 594 5 discriminator 15 view .LVU450
 1708 0452 02F56272 		add	r2, r2, #904
 1709 0456 9342     		cmp	r3, r2
 1710 0458 23D0     		beq	.L173
 594:Drivers/STM32F1xx_HAL_Driver/Src/stm32f1xx_hal_dma.c ****   }
 1711              		.loc 1 594 5 discriminator 17 view .LVU451
 1712 045a 1432     		adds	r2, r2, #20
ARM GAS  /var/folders/2w/5wbrmvx534s_vk8svtxz852c0000gn/T//cccJC0NJ.s 			page 54


 1713 045c 9342     		cmp	r3, r2
 1714 045e 22D0     		beq	.L174
 594:Drivers/STM32F1xx_HAL_Driver/Src/stm32f1xx_hal_dma.c ****   }
 1715              		.loc 1 594 5 discriminator 19 view .LVU452
 1716 0460 1432     		adds	r2, r2, #20
 1717 0462 9342     		cmp	r3, r2
 1718 0464 21D0     		beq	.L175
 594:Drivers/STM32F1xx_HAL_Driver/Src/stm32f1xx_hal_dma.c ****   }
 1719              		.loc 1 594 5 discriminator 21 view .LVU453
 1720 0466 1432     		adds	r2, r2, #20
 1721 0468 9342     		cmp	r3, r2
 1722 046a 02D0     		beq	.L199
 594:Drivers/STM32F1xx_HAL_Driver/Src/stm32f1xx_hal_dma.c ****   }
 1723              		.loc 1 594 5 view .LVU454
 1724 046c 4FF48023 		mov	r3, #262144
 1725 0470 03E0     		b	.L98
 1726              	.L199:
 1727 0472 4FF48043 		mov	r3, #16384
 1728 0476 00E0     		b	.L98
 1729              	.L166:
 1730 0478 0423     		movs	r3, #4
 1731              	.L98:
 594:Drivers/STM32F1xx_HAL_Driver/Src/stm32f1xx_hal_dma.c ****   }
 1732              		.loc 1 594 5 discriminator 46 view .LVU455
 1733 047a 314A     		ldr	r2, .L203+8
 1734 047c 5360     		str	r3, [r2, #4]
 1735 047e 70E7     		b	.L96
 1736              	.L167:
 594:Drivers/STM32F1xx_HAL_Driver/Src/stm32f1xx_hal_dma.c ****   }
 1737              		.loc 1 594 5 view .LVU456
 1738 0480 4023     		movs	r3, #64
 1739 0482 FAE7     		b	.L98
 1740              	.L168:
 1741 0484 4FF48063 		mov	r3, #1024
 1742 0488 F7E7     		b	.L98
 1743              	.L169:
 1744 048a 4FF48043 		mov	r3, #16384
 1745 048e F4E7     		b	.L98
 1746              	.L170:
 1747 0490 4FF48023 		mov	r3, #262144
 1748 0494 F1E7     		b	.L98
 1749              	.L171:
 1750 0496 4FF48003 		mov	r3, #4194304
 1751 049a EEE7     		b	.L98
 1752              	.L172:
 1753 049c 4FF08063 		mov	r3, #67108864
 1754 04a0 EBE7     		b	.L98
 1755              	.L173:
 1756 04a2 0423     		movs	r3, #4
 1757 04a4 E9E7     		b	.L98
 1758              	.L174:
 1759 04a6 4023     		movs	r3, #64
 1760 04a8 E7E7     		b	.L98
 1761              	.L175:
 1762 04aa 4FF48063 		mov	r3, #1024
 1763 04ae E4E7     		b	.L98
 1764              	.L97:
ARM GAS  /var/folders/2w/5wbrmvx534s_vk8svtxz852c0000gn/T//cccJC0NJ.s 			page 55


 594:Drivers/STM32F1xx_HAL_Driver/Src/stm32f1xx_hal_dma.c ****   }
 1765              		.loc 1 594 5 discriminator 2 view .LVU457
 1766 04b0 244A     		ldr	r2, .L203+12
 1767 04b2 9342     		cmp	r3, r2
 1768 04b4 24D0     		beq	.L177
 594:Drivers/STM32F1xx_HAL_Driver/Src/stm32f1xx_hal_dma.c ****   }
 1769              		.loc 1 594 5 discriminator 47 view .LVU458
 1770 04b6 1432     		adds	r2, r2, #20
 1771 04b8 9342     		cmp	r3, r2
 1772 04ba 25D0     		beq	.L178
 594:Drivers/STM32F1xx_HAL_Driver/Src/stm32f1xx_hal_dma.c ****   }
 1773              		.loc 1 594 5 discriminator 49 view .LVU459
 1774 04bc 1432     		adds	r2, r2, #20
 1775 04be 9342     		cmp	r3, r2
 1776 04c0 24D0     		beq	.L179
 594:Drivers/STM32F1xx_HAL_Driver/Src/stm32f1xx_hal_dma.c ****   }
 1777              		.loc 1 594 5 discriminator 51 view .LVU460
 1778 04c2 1432     		adds	r2, r2, #20
 1779 04c4 9342     		cmp	r3, r2
 1780 04c6 24D0     		beq	.L180
 594:Drivers/STM32F1xx_HAL_Driver/Src/stm32f1xx_hal_dma.c ****   }
 1781              		.loc 1 594 5 discriminator 53 view .LVU461
 1782 04c8 1432     		adds	r2, r2, #20
 1783 04ca 9342     		cmp	r3, r2
 1784 04cc 24D0     		beq	.L181
 594:Drivers/STM32F1xx_HAL_Driver/Src/stm32f1xx_hal_dma.c ****   }
 1785              		.loc 1 594 5 discriminator 55 view .LVU462
 1786 04ce 1432     		adds	r2, r2, #20
 1787 04d0 9342     		cmp	r3, r2
 1788 04d2 24D0     		beq	.L182
 594:Drivers/STM32F1xx_HAL_Driver/Src/stm32f1xx_hal_dma.c ****   }
 1789              		.loc 1 594 5 discriminator 57 view .LVU463
 1790 04d4 1432     		adds	r2, r2, #20
 1791 04d6 9342     		cmp	r3, r2
 1792 04d8 24D0     		beq	.L183
 594:Drivers/STM32F1xx_HAL_Driver/Src/stm32f1xx_hal_dma.c ****   }
 1793              		.loc 1 594 5 discriminator 59 view .LVU464
 1794 04da 02F56272 		add	r2, r2, #904
 1795 04de 9342     		cmp	r3, r2
 1796 04e0 23D0     		beq	.L184
 594:Drivers/STM32F1xx_HAL_Driver/Src/stm32f1xx_hal_dma.c ****   }
 1797              		.loc 1 594 5 discriminator 61 view .LVU465
 1798 04e2 1432     		adds	r2, r2, #20
 1799 04e4 9342     		cmp	r3, r2
 1800 04e6 22D0     		beq	.L185
 594:Drivers/STM32F1xx_HAL_Driver/Src/stm32f1xx_hal_dma.c ****   }
 1801              		.loc 1 594 5 discriminator 63 view .LVU466
 1802 04e8 1432     		adds	r2, r2, #20
 1803 04ea 9342     		cmp	r3, r2
 1804 04ec 21D0     		beq	.L186
 594:Drivers/STM32F1xx_HAL_Driver/Src/stm32f1xx_hal_dma.c ****   }
 1805              		.loc 1 594 5 discriminator 65 view .LVU467
 1806 04ee 1432     		adds	r2, r2, #20
 1807 04f0 9342     		cmp	r3, r2
 1808 04f2 02D0     		beq	.L200
 594:Drivers/STM32F1xx_HAL_Driver/Src/stm32f1xx_hal_dma.c ****   }
 1809              		.loc 1 594 5 view .LVU468
ARM GAS  /var/folders/2w/5wbrmvx534s_vk8svtxz852c0000gn/T//cccJC0NJ.s 			page 56


 1810 04f4 4FF48023 		mov	r3, #262144
 1811 04f8 03E0     		b	.L99
 1812              	.L200:
 1813 04fa 4FF48043 		mov	r3, #16384
 1814 04fe 00E0     		b	.L99
 1815              	.L177:
 1816 0500 0423     		movs	r3, #4
 1817              	.L99:
 594:Drivers/STM32F1xx_HAL_Driver/Src/stm32f1xx_hal_dma.c ****   }
 1818              		.loc 1 594 5 discriminator 90 view .LVU469
 1819 0502 0D4A     		ldr	r2, .L203
 1820 0504 5360     		str	r3, [r2, #4]
 1821 0506 2CE7     		b	.L96
 1822              	.L178:
 594:Drivers/STM32F1xx_HAL_Driver/Src/stm32f1xx_hal_dma.c ****   }
 1823              		.loc 1 594 5 view .LVU470
 1824 0508 4023     		movs	r3, #64
 1825 050a FAE7     		b	.L99
 1826              	.L179:
 1827 050c 4FF48063 		mov	r3, #1024
 1828 0510 F7E7     		b	.L99
 1829              	.L180:
 1830 0512 4FF48043 		mov	r3, #16384
 1831 0516 F4E7     		b	.L99
 1832              	.L181:
 1833 0518 4FF48023 		mov	r3, #262144
 1834 051c F1E7     		b	.L99
 1835              	.L182:
 1836 051e 4FF48003 		mov	r3, #4194304
 1837 0522 EEE7     		b	.L99
 1838              	.L183:
 1839 0524 4FF08063 		mov	r3, #67108864
 1840 0528 EBE7     		b	.L99
 1841              	.L184:
 1842 052a 0423     		movs	r3, #4
 1843 052c E9E7     		b	.L99
 1844              	.L185:
 1845 052e 4023     		movs	r3, #64
 1846 0530 E7E7     		b	.L99
 1847              	.L186:
 1848 0532 4FF48063 		mov	r3, #1024
 1849 0536 E4E7     		b	.L99
 1850              	.L204:
 1851              		.align	2
 1852              	.L203:
 1853 0538 00000240 		.word	1073872896
 1854 053c 80000240 		.word	1073873024
 1855 0540 00040240 		.word	1073873920
 1856 0544 08000240 		.word	1073872904
 1857              		.cfi_endproc
 1858              	.LFE72:
 1860              		.section	.text.HAL_DMA_IRQHandler,"ax",%progbits
 1861              		.align	1
 1862              		.global	HAL_DMA_IRQHandler
 1863              		.syntax unified
 1864              		.thumb
 1865              		.thumb_func
ARM GAS  /var/folders/2w/5wbrmvx534s_vk8svtxz852c0000gn/T//cccJC0NJ.s 			page 57


 1867              	HAL_DMA_IRQHandler:
 1868              	.LVL61:
 1869              	.LFB73:
 610:Drivers/STM32F1xx_HAL_Driver/Src/stm32f1xx_hal_dma.c ****   uint32_t flag_it = hdma->DmaBaseAddress->ISR;
 1870              		.loc 1 610 1 is_stmt 1 view -0
 1871              		.cfi_startproc
 1872              		@ args = 0, pretend = 0, frame = 0
 1873              		@ frame_needed = 0, uses_anonymous_args = 0
 610:Drivers/STM32F1xx_HAL_Driver/Src/stm32f1xx_hal_dma.c ****   uint32_t flag_it = hdma->DmaBaseAddress->ISR;
 1874              		.loc 1 610 1 is_stmt 0 view .LVU472
 1875 0000 38B5     		push	{r3, r4, r5, lr}
 1876              	.LCFI11:
 1877              		.cfi_def_cfa_offset 16
 1878              		.cfi_offset 3, -16
 1879              		.cfi_offset 4, -12
 1880              		.cfi_offset 5, -8
 1881              		.cfi_offset 14, -4
 611:Drivers/STM32F1xx_HAL_Driver/Src/stm32f1xx_hal_dma.c ****   uint32_t source_it = hdma->Instance->CCR;
 1882              		.loc 1 611 3 is_stmt 1 view .LVU473
 611:Drivers/STM32F1xx_HAL_Driver/Src/stm32f1xx_hal_dma.c ****   uint32_t source_it = hdma->Instance->CCR;
 1883              		.loc 1 611 26 is_stmt 0 view .LVU474
 1884 0002 C36B     		ldr	r3, [r0, #60]
 611:Drivers/STM32F1xx_HAL_Driver/Src/stm32f1xx_hal_dma.c ****   uint32_t source_it = hdma->Instance->CCR;
 1885              		.loc 1 611 12 view .LVU475
 1886 0004 1A68     		ldr	r2, [r3]
 1887              	.LVL62:
 612:Drivers/STM32F1xx_HAL_Driver/Src/stm32f1xx_hal_dma.c ****   
 1888              		.loc 1 612 3 is_stmt 1 view .LVU476
 612:Drivers/STM32F1xx_HAL_Driver/Src/stm32f1xx_hal_dma.c ****   
 1889              		.loc 1 612 28 is_stmt 0 view .LVU477
 1890 0006 0468     		ldr	r4, [r0]
 612:Drivers/STM32F1xx_HAL_Driver/Src/stm32f1xx_hal_dma.c ****   
 1891              		.loc 1 612 12 view .LVU478
 1892 0008 2568     		ldr	r5, [r4]
 1893              	.LVL63:
 615:Drivers/STM32F1xx_HAL_Driver/Src/stm32f1xx_hal_dma.c ****   {
 1894              		.loc 1 615 3 is_stmt 1 view .LVU479
 615:Drivers/STM32F1xx_HAL_Driver/Src/stm32f1xx_hal_dma.c ****   {
 1895              		.loc 1 615 40 is_stmt 0 view .LVU480
 1896 000a 016C     		ldr	r1, [r0, #64]
 615:Drivers/STM32F1xx_HAL_Driver/Src/stm32f1xx_hal_dma.c ****   {
 1897              		.loc 1 615 33 view .LVU481
 1898 000c 0423     		movs	r3, #4
 1899 000e 8B40     		lsls	r3, r3, r1
 615:Drivers/STM32F1xx_HAL_Driver/Src/stm32f1xx_hal_dma.c ****   {
 1900              		.loc 1 615 6 view .LVU482
 1901 0010 1342     		tst	r3, r2
 1902 0012 00F09B80 		beq	.L206
 615:Drivers/STM32F1xx_HAL_Driver/Src/stm32f1xx_hal_dma.c ****   {
 1903              		.loc 1 615 67 discriminator 1 view .LVU483
 1904 0016 15F0040F 		tst	r5, #4
 1905 001a 00F09780 		beq	.L206
 618:Drivers/STM32F1xx_HAL_Driver/Src/stm32f1xx_hal_dma.c ****     {
 1906              		.loc 1 618 5 is_stmt 1 view .LVU484
 618:Drivers/STM32F1xx_HAL_Driver/Src/stm32f1xx_hal_dma.c ****     {
 1907              		.loc 1 618 23 is_stmt 0 view .LVU485
 1908 001e 2368     		ldr	r3, [r4]
ARM GAS  /var/folders/2w/5wbrmvx534s_vk8svtxz852c0000gn/T//cccJC0NJ.s 			page 58


 618:Drivers/STM32F1xx_HAL_Driver/Src/stm32f1xx_hal_dma.c ****     {
 1909              		.loc 1 618 7 view .LVU486
 1910 0020 13F0200F 		tst	r3, #32
 1911 0024 03D1     		bne	.L207
 621:Drivers/STM32F1xx_HAL_Driver/Src/stm32f1xx_hal_dma.c ****     }
 1912              		.loc 1 621 7 is_stmt 1 view .LVU487
 1913 0026 2368     		ldr	r3, [r4]
 1914 0028 23F00403 		bic	r3, r3, #4
 1915 002c 2360     		str	r3, [r4]
 1916              	.L207:
 624:Drivers/STM32F1xx_HAL_Driver/Src/stm32f1xx_hal_dma.c **** 
 1917              		.loc 1 624 5 view .LVU488
 1918 002e 0368     		ldr	r3, [r0]
 1919 0030 9A4A     		ldr	r2, .L268
 1920              	.LVL64:
 624:Drivers/STM32F1xx_HAL_Driver/Src/stm32f1xx_hal_dma.c **** 
 1921              		.loc 1 624 5 is_stmt 0 view .LVU489
 1922 0032 9342     		cmp	r3, r2
 1923 0034 46D9     		bls	.L208
 624:Drivers/STM32F1xx_HAL_Driver/Src/stm32f1xx_hal_dma.c **** 
 1924              		.loc 1 624 5 discriminator 1 view .LVU490
 1925 0036 783A     		subs	r2, r2, #120
 1926 0038 9342     		cmp	r3, r2
 1927 003a 24D0     		beq	.L219
 624:Drivers/STM32F1xx_HAL_Driver/Src/stm32f1xx_hal_dma.c **** 
 1928              		.loc 1 624 5 discriminator 3 view .LVU491
 1929 003c 1432     		adds	r2, r2, #20
 1930 003e 9342     		cmp	r3, r2
 1931 0040 28D0     		beq	.L220
 624:Drivers/STM32F1xx_HAL_Driver/Src/stm32f1xx_hal_dma.c **** 
 1932              		.loc 1 624 5 discriminator 5 view .LVU492
 1933 0042 1432     		adds	r2, r2, #20
 1934 0044 9342     		cmp	r3, r2
 1935 0046 27D0     		beq	.L221
 624:Drivers/STM32F1xx_HAL_Driver/Src/stm32f1xx_hal_dma.c **** 
 1936              		.loc 1 624 5 discriminator 7 view .LVU493
 1937 0048 1432     		adds	r2, r2, #20
 1938 004a 9342     		cmp	r3, r2
 1939 004c 27D0     		beq	.L222
 624:Drivers/STM32F1xx_HAL_Driver/Src/stm32f1xx_hal_dma.c **** 
 1940              		.loc 1 624 5 discriminator 9 view .LVU494
 1941 004e 1432     		adds	r2, r2, #20
 1942 0050 9342     		cmp	r3, r2
 1943 0052 27D0     		beq	.L223
 624:Drivers/STM32F1xx_HAL_Driver/Src/stm32f1xx_hal_dma.c **** 
 1944              		.loc 1 624 5 discriminator 11 view .LVU495
 1945 0054 1432     		adds	r2, r2, #20
 1946 0056 9342     		cmp	r3, r2
 1947 0058 27D0     		beq	.L224
 624:Drivers/STM32F1xx_HAL_Driver/Src/stm32f1xx_hal_dma.c **** 
 1948              		.loc 1 624 5 discriminator 13 view .LVU496
 1949 005a 1432     		adds	r2, r2, #20
 1950 005c 9342     		cmp	r3, r2
 1951 005e 27D0     		beq	.L225
 624:Drivers/STM32F1xx_HAL_Driver/Src/stm32f1xx_hal_dma.c **** 
 1952              		.loc 1 624 5 discriminator 15 view .LVU497
 1953 0060 02F56272 		add	r2, r2, #904
ARM GAS  /var/folders/2w/5wbrmvx534s_vk8svtxz852c0000gn/T//cccJC0NJ.s 			page 59


 1954 0064 9342     		cmp	r3, r2
 1955 0066 26D0     		beq	.L226
 624:Drivers/STM32F1xx_HAL_Driver/Src/stm32f1xx_hal_dma.c **** 
 1956              		.loc 1 624 5 discriminator 17 view .LVU498
 1957 0068 1432     		adds	r2, r2, #20
 1958 006a 9342     		cmp	r3, r2
 1959 006c 25D0     		beq	.L227
 624:Drivers/STM32F1xx_HAL_Driver/Src/stm32f1xx_hal_dma.c **** 
 1960              		.loc 1 624 5 discriminator 19 view .LVU499
 1961 006e 1432     		adds	r2, r2, #20
 1962 0070 9342     		cmp	r3, r2
 1963 0072 24D0     		beq	.L228
 624:Drivers/STM32F1xx_HAL_Driver/Src/stm32f1xx_hal_dma.c **** 
 1964              		.loc 1 624 5 discriminator 21 view .LVU500
 1965 0074 1432     		adds	r2, r2, #20
 1966 0076 9342     		cmp	r3, r2
 1967 0078 02D0     		beq	.L264
 624:Drivers/STM32F1xx_HAL_Driver/Src/stm32f1xx_hal_dma.c **** 
 1968              		.loc 1 624 5 view .LVU501
 1969 007a 4FF48022 		mov	r2, #262144
 1970 007e 03E0     		b	.L209
 1971              	.L264:
 1972 0080 4FF48042 		mov	r2, #16384
 1973 0084 00E0     		b	.L209
 1974              	.L219:
 1975 0086 0422     		movs	r2, #4
 1976              	.L209:
 624:Drivers/STM32F1xx_HAL_Driver/Src/stm32f1xx_hal_dma.c **** 
 1977              		.loc 1 624 5 discriminator 46 view .LVU502
 1978 0088 854B     		ldr	r3, .L268+4
 1979 008a 5A60     		str	r2, [r3, #4]
 1980              	.L210:
 629:Drivers/STM32F1xx_HAL_Driver/Src/stm32f1xx_hal_dma.c ****     {
 1981              		.loc 1 629 5 is_stmt 1 view .LVU503
 629:Drivers/STM32F1xx_HAL_Driver/Src/stm32f1xx_hal_dma.c ****     {
 1982              		.loc 1 629 12 is_stmt 0 view .LVU504
 1983 008c C36A     		ldr	r3, [r0, #44]
 629:Drivers/STM32F1xx_HAL_Driver/Src/stm32f1xx_hal_dma.c ****     {
 1984              		.loc 1 629 7 view .LVU505
 1985 008e 03B1     		cbz	r3, .L205
 632:Drivers/STM32F1xx_HAL_Driver/Src/stm32f1xx_hal_dma.c ****     }
 1986              		.loc 1 632 7 is_stmt 1 view .LVU506
 1987 0090 9847     		blx	r3
 1988              	.LVL65:
 1989              	.L205:
 687:Drivers/STM32F1xx_HAL_Driver/Src/stm32f1xx_hal_dma.c **** 
 1990              		.loc 1 687 1 is_stmt 0 view .LVU507
 1991 0092 38BD     		pop	{r3, r4, r5, pc}
 1992              	.LVL66:
 1993              	.L220:
 624:Drivers/STM32F1xx_HAL_Driver/Src/stm32f1xx_hal_dma.c **** 
 1994              		.loc 1 624 5 view .LVU508
 1995 0094 4022     		movs	r2, #64
 1996 0096 F7E7     		b	.L209
 1997              	.L221:
 1998 0098 4FF48062 		mov	r2, #1024
 1999 009c F4E7     		b	.L209
ARM GAS  /var/folders/2w/5wbrmvx534s_vk8svtxz852c0000gn/T//cccJC0NJ.s 			page 60


 2000              	.L222:
 2001 009e 4FF48042 		mov	r2, #16384
 2002 00a2 F1E7     		b	.L209
 2003              	.L223:
 2004 00a4 4FF48022 		mov	r2, #262144
 2005 00a8 EEE7     		b	.L209
 2006              	.L224:
 2007 00aa 4FF48002 		mov	r2, #4194304
 2008 00ae EBE7     		b	.L209
 2009              	.L225:
 2010 00b0 4FF08062 		mov	r2, #67108864
 2011 00b4 E8E7     		b	.L209
 2012              	.L226:
 2013 00b6 0422     		movs	r2, #4
 2014 00b8 E6E7     		b	.L209
 2015              	.L227:
 2016 00ba 4022     		movs	r2, #64
 2017 00bc E4E7     		b	.L209
 2018              	.L228:
 2019 00be 4FF48062 		mov	r2, #1024
 2020 00c2 E1E7     		b	.L209
 2021              	.L208:
 624:Drivers/STM32F1xx_HAL_Driver/Src/stm32f1xx_hal_dma.c **** 
 2022              		.loc 1 624 5 discriminator 2 view .LVU509
 2023 00c4 774A     		ldr	r2, .L268+8
 2024 00c6 9342     		cmp	r3, r2
 2025 00c8 24D0     		beq	.L230
 624:Drivers/STM32F1xx_HAL_Driver/Src/stm32f1xx_hal_dma.c **** 
 2026              		.loc 1 624 5 discriminator 47 view .LVU510
 2027 00ca 1432     		adds	r2, r2, #20
 2028 00cc 9342     		cmp	r3, r2
 2029 00ce 25D0     		beq	.L231
 624:Drivers/STM32F1xx_HAL_Driver/Src/stm32f1xx_hal_dma.c **** 
 2030              		.loc 1 624 5 discriminator 49 view .LVU511
 2031 00d0 1432     		adds	r2, r2, #20
 2032 00d2 9342     		cmp	r3, r2
 2033 00d4 24D0     		beq	.L232
 624:Drivers/STM32F1xx_HAL_Driver/Src/stm32f1xx_hal_dma.c **** 
 2034              		.loc 1 624 5 discriminator 51 view .LVU512
 2035 00d6 1432     		adds	r2, r2, #20
 2036 00d8 9342     		cmp	r3, r2
 2037 00da 24D0     		beq	.L233
 624:Drivers/STM32F1xx_HAL_Driver/Src/stm32f1xx_hal_dma.c **** 
 2038              		.loc 1 624 5 discriminator 53 view .LVU513
 2039 00dc 1432     		adds	r2, r2, #20
 2040 00de 9342     		cmp	r3, r2
 2041 00e0 24D0     		beq	.L234
 624:Drivers/STM32F1xx_HAL_Driver/Src/stm32f1xx_hal_dma.c **** 
 2042              		.loc 1 624 5 discriminator 55 view .LVU514
 2043 00e2 1432     		adds	r2, r2, #20
 2044 00e4 9342     		cmp	r3, r2
 2045 00e6 24D0     		beq	.L235
 624:Drivers/STM32F1xx_HAL_Driver/Src/stm32f1xx_hal_dma.c **** 
 2046              		.loc 1 624 5 discriminator 57 view .LVU515
 2047 00e8 1432     		adds	r2, r2, #20
 2048 00ea 9342     		cmp	r3, r2
 2049 00ec 24D0     		beq	.L236
ARM GAS  /var/folders/2w/5wbrmvx534s_vk8svtxz852c0000gn/T//cccJC0NJ.s 			page 61


 624:Drivers/STM32F1xx_HAL_Driver/Src/stm32f1xx_hal_dma.c **** 
 2050              		.loc 1 624 5 discriminator 59 view .LVU516
 2051 00ee 02F56272 		add	r2, r2, #904
 2052 00f2 9342     		cmp	r3, r2
 2053 00f4 23D0     		beq	.L237
 624:Drivers/STM32F1xx_HAL_Driver/Src/stm32f1xx_hal_dma.c **** 
 2054              		.loc 1 624 5 discriminator 61 view .LVU517
 2055 00f6 1432     		adds	r2, r2, #20
 2056 00f8 9342     		cmp	r3, r2
 2057 00fa 22D0     		beq	.L238
 624:Drivers/STM32F1xx_HAL_Driver/Src/stm32f1xx_hal_dma.c **** 
 2058              		.loc 1 624 5 discriminator 63 view .LVU518
 2059 00fc 1432     		adds	r2, r2, #20
 2060 00fe 9342     		cmp	r3, r2
 2061 0100 21D0     		beq	.L239
 624:Drivers/STM32F1xx_HAL_Driver/Src/stm32f1xx_hal_dma.c **** 
 2062              		.loc 1 624 5 discriminator 65 view .LVU519
 2063 0102 1432     		adds	r2, r2, #20
 2064 0104 9342     		cmp	r3, r2
 2065 0106 02D0     		beq	.L265
 624:Drivers/STM32F1xx_HAL_Driver/Src/stm32f1xx_hal_dma.c **** 
 2066              		.loc 1 624 5 view .LVU520
 2067 0108 4FF48022 		mov	r2, #262144
 2068 010c 03E0     		b	.L211
 2069              	.L265:
 2070 010e 4FF48042 		mov	r2, #16384
 2071 0112 00E0     		b	.L211
 2072              	.L230:
 2073 0114 0422     		movs	r2, #4
 2074              	.L211:
 624:Drivers/STM32F1xx_HAL_Driver/Src/stm32f1xx_hal_dma.c **** 
 2075              		.loc 1 624 5 discriminator 90 view .LVU521
 2076 0116 644B     		ldr	r3, .L268+12
 2077 0118 5A60     		str	r2, [r3, #4]
 2078 011a B7E7     		b	.L210
 2079              	.L231:
 624:Drivers/STM32F1xx_HAL_Driver/Src/stm32f1xx_hal_dma.c **** 
 2080              		.loc 1 624 5 view .LVU522
 2081 011c 4022     		movs	r2, #64
 2082 011e FAE7     		b	.L211
 2083              	.L232:
 2084 0120 4FF48062 		mov	r2, #1024
 2085 0124 F7E7     		b	.L211
 2086              	.L233:
 2087 0126 4FF48042 		mov	r2, #16384
 2088 012a F4E7     		b	.L211
 2089              	.L234:
 2090 012c 4FF48022 		mov	r2, #262144
 2091 0130 F1E7     		b	.L211
 2092              	.L235:
 2093 0132 4FF48002 		mov	r2, #4194304
 2094 0136 EEE7     		b	.L211
 2095              	.L236:
 2096 0138 4FF08062 		mov	r2, #67108864
 2097 013c EBE7     		b	.L211
 2098              	.L237:
 2099 013e 0422     		movs	r2, #4
ARM GAS  /var/folders/2w/5wbrmvx534s_vk8svtxz852c0000gn/T//cccJC0NJ.s 			page 62


 2100 0140 E9E7     		b	.L211
 2101              	.L238:
 2102 0142 4022     		movs	r2, #64
 2103 0144 E7E7     		b	.L211
 2104              	.L239:
 2105 0146 4FF48062 		mov	r2, #1024
 2106 014a E4E7     		b	.L211
 2107              	.LVL67:
 2108              	.L206:
 637:Drivers/STM32F1xx_HAL_Driver/Src/stm32f1xx_hal_dma.c ****   {
 2109              		.loc 1 637 8 is_stmt 1 view .LVU523
 637:Drivers/STM32F1xx_HAL_Driver/Src/stm32f1xx_hal_dma.c ****   {
 2110              		.loc 1 637 38 is_stmt 0 view .LVU524
 2111 014c 0223     		movs	r3, #2
 2112 014e 8B40     		lsls	r3, r3, r1
 637:Drivers/STM32F1xx_HAL_Driver/Src/stm32f1xx_hal_dma.c ****   {
 2113              		.loc 1 637 11 view .LVU525
 2114 0150 1342     		tst	r3, r2
 2115 0152 00F0AB80 		beq	.L213
 637:Drivers/STM32F1xx_HAL_Driver/Src/stm32f1xx_hal_dma.c ****   {
 2116              		.loc 1 637 72 discriminator 1 view .LVU526
 2117 0156 15F0020F 		tst	r5, #2
 2118 015a 00F0A780 		beq	.L213
 639:Drivers/STM32F1xx_HAL_Driver/Src/stm32f1xx_hal_dma.c ****     {
 2119              		.loc 1 639 5 is_stmt 1 view .LVU527
 639:Drivers/STM32F1xx_HAL_Driver/Src/stm32f1xx_hal_dma.c ****     {
 2120              		.loc 1 639 23 is_stmt 0 view .LVU528
 2121 015e 2368     		ldr	r3, [r4]
 639:Drivers/STM32F1xx_HAL_Driver/Src/stm32f1xx_hal_dma.c ****     {
 2122              		.loc 1 639 7 view .LVU529
 2123 0160 13F0200F 		tst	r3, #32
 2124 0164 06D1     		bne	.L214
 642:Drivers/STM32F1xx_HAL_Driver/Src/stm32f1xx_hal_dma.c **** 
 2125              		.loc 1 642 7 is_stmt 1 view .LVU530
 2126 0166 2368     		ldr	r3, [r4]
 2127 0168 23F00A03 		bic	r3, r3, #10
 2128 016c 2360     		str	r3, [r4]
 645:Drivers/STM32F1xx_HAL_Driver/Src/stm32f1xx_hal_dma.c ****     }
 2129              		.loc 1 645 7 view .LVU531
 645:Drivers/STM32F1xx_HAL_Driver/Src/stm32f1xx_hal_dma.c ****     }
 2130              		.loc 1 645 19 is_stmt 0 view .LVU532
 2131 016e 0123     		movs	r3, #1
 2132 0170 80F82130 		strb	r3, [r0, #33]
 2133              	.L214:
 648:Drivers/STM32F1xx_HAL_Driver/Src/stm32f1xx_hal_dma.c **** 
 2134              		.loc 1 648 7 is_stmt 1 view .LVU533
 2135 0174 0368     		ldr	r3, [r0]
 2136 0176 494A     		ldr	r2, .L268
 2137              	.LVL68:
 648:Drivers/STM32F1xx_HAL_Driver/Src/stm32f1xx_hal_dma.c **** 
 2138              		.loc 1 648 7 is_stmt 0 view .LVU534
 2139 0178 9342     		cmp	r3, r2
 2140 017a 4BD9     		bls	.L215
 648:Drivers/STM32F1xx_HAL_Driver/Src/stm32f1xx_hal_dma.c **** 
 2141              		.loc 1 648 7 discriminator 1 view .LVU535
 2142 017c 783A     		subs	r2, r2, #120
 2143 017e 9342     		cmp	r3, r2
ARM GAS  /var/folders/2w/5wbrmvx534s_vk8svtxz852c0000gn/T//cccJC0NJ.s 			page 63


 2144 0180 24D0     		beq	.L241
 648:Drivers/STM32F1xx_HAL_Driver/Src/stm32f1xx_hal_dma.c **** 
 2145              		.loc 1 648 7 discriminator 3 view .LVU536
 2146 0182 1432     		adds	r2, r2, #20
 2147 0184 9342     		cmp	r3, r2
 2148 0186 2DD0     		beq	.L242
 648:Drivers/STM32F1xx_HAL_Driver/Src/stm32f1xx_hal_dma.c **** 
 2149              		.loc 1 648 7 discriminator 5 view .LVU537
 2150 0188 1432     		adds	r2, r2, #20
 2151 018a 9342     		cmp	r3, r2
 2152 018c 2CD0     		beq	.L243
 648:Drivers/STM32F1xx_HAL_Driver/Src/stm32f1xx_hal_dma.c **** 
 2153              		.loc 1 648 7 discriminator 7 view .LVU538
 2154 018e 1432     		adds	r2, r2, #20
 2155 0190 9342     		cmp	r3, r2
 2156 0192 2CD0     		beq	.L244
 648:Drivers/STM32F1xx_HAL_Driver/Src/stm32f1xx_hal_dma.c **** 
 2157              		.loc 1 648 7 discriminator 9 view .LVU539
 2158 0194 1432     		adds	r2, r2, #20
 2159 0196 9342     		cmp	r3, r2
 2160 0198 2CD0     		beq	.L245
 648:Drivers/STM32F1xx_HAL_Driver/Src/stm32f1xx_hal_dma.c **** 
 2161              		.loc 1 648 7 discriminator 11 view .LVU540
 2162 019a 1432     		adds	r2, r2, #20
 2163 019c 9342     		cmp	r3, r2
 2164 019e 2CD0     		beq	.L246
 648:Drivers/STM32F1xx_HAL_Driver/Src/stm32f1xx_hal_dma.c **** 
 2165              		.loc 1 648 7 discriminator 13 view .LVU541
 2166 01a0 1432     		adds	r2, r2, #20
 2167 01a2 9342     		cmp	r3, r2
 2168 01a4 2CD0     		beq	.L247
 648:Drivers/STM32F1xx_HAL_Driver/Src/stm32f1xx_hal_dma.c **** 
 2169              		.loc 1 648 7 discriminator 15 view .LVU542
 2170 01a6 02F56272 		add	r2, r2, #904
 2171 01aa 9342     		cmp	r3, r2
 2172 01ac 2BD0     		beq	.L248
 648:Drivers/STM32F1xx_HAL_Driver/Src/stm32f1xx_hal_dma.c **** 
 2173              		.loc 1 648 7 discriminator 17 view .LVU543
 2174 01ae 1432     		adds	r2, r2, #20
 2175 01b0 9342     		cmp	r3, r2
 2176 01b2 2AD0     		beq	.L249
 648:Drivers/STM32F1xx_HAL_Driver/Src/stm32f1xx_hal_dma.c **** 
 2177              		.loc 1 648 7 discriminator 19 view .LVU544
 2178 01b4 1432     		adds	r2, r2, #20
 2179 01b6 9342     		cmp	r3, r2
 2180 01b8 29D0     		beq	.L250
 648:Drivers/STM32F1xx_HAL_Driver/Src/stm32f1xx_hal_dma.c **** 
 2181              		.loc 1 648 7 discriminator 21 view .LVU545
 2182 01ba 1432     		adds	r2, r2, #20
 2183 01bc 9342     		cmp	r3, r2
 2184 01be 02D0     		beq	.L266
 648:Drivers/STM32F1xx_HAL_Driver/Src/stm32f1xx_hal_dma.c **** 
 2185              		.loc 1 648 7 view .LVU546
 2186 01c0 4FF40032 		mov	r2, #131072
 2187 01c4 03E0     		b	.L216
 2188              	.L266:
 2189 01c6 4FF40052 		mov	r2, #8192
ARM GAS  /var/folders/2w/5wbrmvx534s_vk8svtxz852c0000gn/T//cccJC0NJ.s 			page 64


 2190 01ca 00E0     		b	.L216
 2191              	.L241:
 2192 01cc 0222     		movs	r2, #2
 2193              	.L216:
 648:Drivers/STM32F1xx_HAL_Driver/Src/stm32f1xx_hal_dma.c **** 
 2194              		.loc 1 648 7 discriminator 46 view .LVU547
 2195 01ce 344B     		ldr	r3, .L268+4
 2196 01d0 5A60     		str	r2, [r3, #4]
 2197              	.L217:
 651:Drivers/STM32F1xx_HAL_Driver/Src/stm32f1xx_hal_dma.c **** 
 2198              		.loc 1 651 5 is_stmt 1 view .LVU548
 651:Drivers/STM32F1xx_HAL_Driver/Src/stm32f1xx_hal_dma.c **** 
 2199              		.loc 1 651 5 view .LVU549
 2200 01d2 0023     		movs	r3, #0
 2201 01d4 80F82030 		strb	r3, [r0, #32]
 651:Drivers/STM32F1xx_HAL_Driver/Src/stm32f1xx_hal_dma.c **** 
 2202              		.loc 1 651 5 view .LVU550
 653:Drivers/STM32F1xx_HAL_Driver/Src/stm32f1xx_hal_dma.c ****     {
 2203              		.loc 1 653 5 view .LVU551
 653:Drivers/STM32F1xx_HAL_Driver/Src/stm32f1xx_hal_dma.c ****     {
 2204              		.loc 1 653 12 is_stmt 0 view .LVU552
 2205 01d8 836A     		ldr	r3, [r0, #40]
 653:Drivers/STM32F1xx_HAL_Driver/Src/stm32f1xx_hal_dma.c ****     {
 2206              		.loc 1 653 7 view .LVU553
 2207 01da 002B     		cmp	r3, #0
 2208 01dc 3FF459AF 		beq	.L205
 656:Drivers/STM32F1xx_HAL_Driver/Src/stm32f1xx_hal_dma.c ****     }
 2209              		.loc 1 656 7 is_stmt 1 view .LVU554
 2210 01e0 9847     		blx	r3
 2211              	.LVL69:
 656:Drivers/STM32F1xx_HAL_Driver/Src/stm32f1xx_hal_dma.c ****     }
 2212              		.loc 1 656 7 is_stmt 0 view .LVU555
 2213 01e2 56E7     		b	.L205
 2214              	.LVL70:
 2215              	.L242:
 648:Drivers/STM32F1xx_HAL_Driver/Src/stm32f1xx_hal_dma.c **** 
 2216              		.loc 1 648 7 view .LVU556
 2217 01e4 2022     		movs	r2, #32
 2218 01e6 F2E7     		b	.L216
 2219              	.L243:
 2220 01e8 4FF40072 		mov	r2, #512
 2221 01ec EFE7     		b	.L216
 2222              	.L244:
 2223 01ee 4FF40052 		mov	r2, #8192
 2224 01f2 ECE7     		b	.L216
 2225              	.L245:
 2226 01f4 4FF40032 		mov	r2, #131072
 2227 01f8 E9E7     		b	.L216
 2228              	.L246:
 2229 01fa 4FF40012 		mov	r2, #2097152
 2230 01fe E6E7     		b	.L216
 2231              	.L247:
 2232 0200 4FF00072 		mov	r2, #33554432
 2233 0204 E3E7     		b	.L216
 2234              	.L248:
 2235 0206 0222     		movs	r2, #2
 2236 0208 E1E7     		b	.L216
ARM GAS  /var/folders/2w/5wbrmvx534s_vk8svtxz852c0000gn/T//cccJC0NJ.s 			page 65


 2237              	.L249:
 2238 020a 2022     		movs	r2, #32
 2239 020c DFE7     		b	.L216
 2240              	.L250:
 2241 020e 4FF40072 		mov	r2, #512
 2242 0212 DCE7     		b	.L216
 2243              	.L215:
 648:Drivers/STM32F1xx_HAL_Driver/Src/stm32f1xx_hal_dma.c **** 
 2244              		.loc 1 648 7 discriminator 2 view .LVU557
 2245 0214 234A     		ldr	r2, .L268+8
 2246 0216 9342     		cmp	r3, r2
 2247 0218 24D0     		beq	.L252
 648:Drivers/STM32F1xx_HAL_Driver/Src/stm32f1xx_hal_dma.c **** 
 2248              		.loc 1 648 7 discriminator 47 view .LVU558
 2249 021a 1432     		adds	r2, r2, #20
 2250 021c 9342     		cmp	r3, r2
 2251 021e 25D0     		beq	.L253
 648:Drivers/STM32F1xx_HAL_Driver/Src/stm32f1xx_hal_dma.c **** 
 2252              		.loc 1 648 7 discriminator 49 view .LVU559
 2253 0220 1432     		adds	r2, r2, #20
 2254 0222 9342     		cmp	r3, r2
 2255 0224 24D0     		beq	.L254
 648:Drivers/STM32F1xx_HAL_Driver/Src/stm32f1xx_hal_dma.c **** 
 2256              		.loc 1 648 7 discriminator 51 view .LVU560
 2257 0226 1432     		adds	r2, r2, #20
 2258 0228 9342     		cmp	r3, r2
 2259 022a 24D0     		beq	.L255
 648:Drivers/STM32F1xx_HAL_Driver/Src/stm32f1xx_hal_dma.c **** 
 2260              		.loc 1 648 7 discriminator 53 view .LVU561
 2261 022c 1432     		adds	r2, r2, #20
 2262 022e 9342     		cmp	r3, r2
 2263 0230 24D0     		beq	.L256
 648:Drivers/STM32F1xx_HAL_Driver/Src/stm32f1xx_hal_dma.c **** 
 2264              		.loc 1 648 7 discriminator 55 view .LVU562
 2265 0232 1432     		adds	r2, r2, #20
 2266 0234 9342     		cmp	r3, r2
 2267 0236 24D0     		beq	.L257
 648:Drivers/STM32F1xx_HAL_Driver/Src/stm32f1xx_hal_dma.c **** 
 2268              		.loc 1 648 7 discriminator 57 view .LVU563
 2269 0238 1432     		adds	r2, r2, #20
 2270 023a 9342     		cmp	r3, r2
 2271 023c 24D0     		beq	.L258
 648:Drivers/STM32F1xx_HAL_Driver/Src/stm32f1xx_hal_dma.c **** 
 2272              		.loc 1 648 7 discriminator 59 view .LVU564
 2273 023e 02F56272 		add	r2, r2, #904
 2274 0242 9342     		cmp	r3, r2
 2275 0244 23D0     		beq	.L259
 648:Drivers/STM32F1xx_HAL_Driver/Src/stm32f1xx_hal_dma.c **** 
 2276              		.loc 1 648 7 discriminator 61 view .LVU565
 2277 0246 1432     		adds	r2, r2, #20
 2278 0248 9342     		cmp	r3, r2
 2279 024a 22D0     		beq	.L260
 648:Drivers/STM32F1xx_HAL_Driver/Src/stm32f1xx_hal_dma.c **** 
 2280              		.loc 1 648 7 discriminator 63 view .LVU566
 2281 024c 1432     		adds	r2, r2, #20
 2282 024e 9342     		cmp	r3, r2
 2283 0250 21D0     		beq	.L261
ARM GAS  /var/folders/2w/5wbrmvx534s_vk8svtxz852c0000gn/T//cccJC0NJ.s 			page 66


 648:Drivers/STM32F1xx_HAL_Driver/Src/stm32f1xx_hal_dma.c **** 
 2284              		.loc 1 648 7 discriminator 65 view .LVU567
 2285 0252 1432     		adds	r2, r2, #20
 2286 0254 9342     		cmp	r3, r2
 2287 0256 02D0     		beq	.L267
 648:Drivers/STM32F1xx_HAL_Driver/Src/stm32f1xx_hal_dma.c **** 
 2288              		.loc 1 648 7 view .LVU568
 2289 0258 4FF40032 		mov	r2, #131072
 2290 025c 03E0     		b	.L218
 2291              	.L267:
 2292 025e 4FF40052 		mov	r2, #8192
 2293 0262 00E0     		b	.L218
 2294              	.L252:
 2295 0264 0222     		movs	r2, #2
 2296              	.L218:
 648:Drivers/STM32F1xx_HAL_Driver/Src/stm32f1xx_hal_dma.c **** 
 2297              		.loc 1 648 7 discriminator 90 view .LVU569
 2298 0266 104B     		ldr	r3, .L268+12
 2299 0268 5A60     		str	r2, [r3, #4]
 2300 026a B2E7     		b	.L217
 2301              	.L253:
 648:Drivers/STM32F1xx_HAL_Driver/Src/stm32f1xx_hal_dma.c **** 
 2302              		.loc 1 648 7 view .LVU570
 2303 026c 2022     		movs	r2, #32
 2304 026e FAE7     		b	.L218
 2305              	.L254:
 2306 0270 4FF40072 		mov	r2, #512
 2307 0274 F7E7     		b	.L218
 2308              	.L255:
 2309 0276 4FF40052 		mov	r2, #8192
 2310 027a F4E7     		b	.L218
 2311              	.L256:
 2312 027c 4FF40032 		mov	r2, #131072
 2313 0280 F1E7     		b	.L218
 2314              	.L257:
 2315 0282 4FF40012 		mov	r2, #2097152
 2316 0286 EEE7     		b	.L218
 2317              	.L258:
 2318 0288 4FF00072 		mov	r2, #33554432
 2319 028c EBE7     		b	.L218
 2320              	.L259:
 2321 028e 0222     		movs	r2, #2
 2322 0290 E9E7     		b	.L218
 2323              	.L260:
 2324 0292 2022     		movs	r2, #32
 2325 0294 E7E7     		b	.L218
 2326              	.L261:
 2327 0296 4FF40072 		mov	r2, #512
 2328 029a E4E7     		b	.L218
 2329              	.L269:
 2330              		.align	2
 2331              	.L268:
 2332 029c 80000240 		.word	1073873024
 2333 02a0 00040240 		.word	1073873920
 2334 02a4 08000240 		.word	1073872904
 2335 02a8 00000240 		.word	1073872896
 2336              	.LVL71:
ARM GAS  /var/folders/2w/5wbrmvx534s_vk8svtxz852c0000gn/T//cccJC0NJ.s 			page 67


 2337              	.L213:
 661:Drivers/STM32F1xx_HAL_Driver/Src/stm32f1xx_hal_dma.c ****   {
 2338              		.loc 1 661 8 is_stmt 1 view .LVU571
 661:Drivers/STM32F1xx_HAL_Driver/Src/stm32f1xx_hal_dma.c ****   {
 2339              		.loc 1 661 48 is_stmt 0 view .LVU572
 2340 02ac 0823     		movs	r3, #8
 2341 02ae 03FA01F1 		lsl	r1, r3, r1
 661:Drivers/STM32F1xx_HAL_Driver/Src/stm32f1xx_hal_dma.c ****   {
 2342              		.loc 1 661 11 view .LVU573
 2343 02b2 1142     		tst	r1, r2
 2344 02b4 3FF4EDAE 		beq	.L205
 661:Drivers/STM32F1xx_HAL_Driver/Src/stm32f1xx_hal_dma.c ****   {
 2345              		.loc 1 661 73 discriminator 1 view .LVU574
 2346 02b8 15F0080F 		tst	r5, #8
 2347 02bc 3FF4E9AE 		beq	.L205
 666:Drivers/STM32F1xx_HAL_Driver/Src/stm32f1xx_hal_dma.c **** 
 2348              		.loc 1 666 5 is_stmt 1 view .LVU575
 2349 02c0 2368     		ldr	r3, [r4]
 2350 02c2 23F00E03 		bic	r3, r3, #14
 2351 02c6 2360     		str	r3, [r4]
 669:Drivers/STM32F1xx_HAL_Driver/Src/stm32f1xx_hal_dma.c **** 
 2352              		.loc 1 669 5 view .LVU576
 669:Drivers/STM32F1xx_HAL_Driver/Src/stm32f1xx_hal_dma.c **** 
 2353              		.loc 1 669 55 is_stmt 0 view .LVU577
 2354 02c8 026C     		ldr	r2, [r0, #64]
 2355              	.LVL72:
 669:Drivers/STM32F1xx_HAL_Driver/Src/stm32f1xx_hal_dma.c **** 
 2356              		.loc 1 669 9 view .LVU578
 2357 02ca C16B     		ldr	r1, [r0, #60]
 669:Drivers/STM32F1xx_HAL_Driver/Src/stm32f1xx_hal_dma.c **** 
 2358              		.loc 1 669 48 view .LVU579
 2359 02cc 0123     		movs	r3, #1
 2360 02ce 03FA02F2 		lsl	r2, r3, r2
 669:Drivers/STM32F1xx_HAL_Driver/Src/stm32f1xx_hal_dma.c **** 
 2361              		.loc 1 669 32 view .LVU580
 2362 02d2 4A60     		str	r2, [r1, #4]
 672:Drivers/STM32F1xx_HAL_Driver/Src/stm32f1xx_hal_dma.c **** 
 2363              		.loc 1 672 5 is_stmt 1 view .LVU581
 672:Drivers/STM32F1xx_HAL_Driver/Src/stm32f1xx_hal_dma.c **** 
 2364              		.loc 1 672 21 is_stmt 0 view .LVU582
 2365 02d4 8363     		str	r3, [r0, #56]
 675:Drivers/STM32F1xx_HAL_Driver/Src/stm32f1xx_hal_dma.c **** 
 2366              		.loc 1 675 5 is_stmt 1 view .LVU583
 675:Drivers/STM32F1xx_HAL_Driver/Src/stm32f1xx_hal_dma.c **** 
 2367              		.loc 1 675 17 is_stmt 0 view .LVU584
 2368 02d6 80F82130 		strb	r3, [r0, #33]
 678:Drivers/STM32F1xx_HAL_Driver/Src/stm32f1xx_hal_dma.c **** 
 2369              		.loc 1 678 5 is_stmt 1 view .LVU585
 678:Drivers/STM32F1xx_HAL_Driver/Src/stm32f1xx_hal_dma.c **** 
 2370              		.loc 1 678 5 view .LVU586
 2371 02da 0023     		movs	r3, #0
 2372 02dc 80F82030 		strb	r3, [r0, #32]
 678:Drivers/STM32F1xx_HAL_Driver/Src/stm32f1xx_hal_dma.c **** 
 2373              		.loc 1 678 5 view .LVU587
 680:Drivers/STM32F1xx_HAL_Driver/Src/stm32f1xx_hal_dma.c ****     {
 2374              		.loc 1 680 5 view .LVU588
 680:Drivers/STM32F1xx_HAL_Driver/Src/stm32f1xx_hal_dma.c ****     {
ARM GAS  /var/folders/2w/5wbrmvx534s_vk8svtxz852c0000gn/T//cccJC0NJ.s 			page 68


 2375              		.loc 1 680 13 is_stmt 0 view .LVU589
 2376 02e0 036B     		ldr	r3, [r0, #48]
 680:Drivers/STM32F1xx_HAL_Driver/Src/stm32f1xx_hal_dma.c ****     {
 2377              		.loc 1 680 8 view .LVU590
 2378 02e2 002B     		cmp	r3, #0
 2379 02e4 3FF4D5AE 		beq	.L205
 683:Drivers/STM32F1xx_HAL_Driver/Src/stm32f1xx_hal_dma.c ****     }
 2380              		.loc 1 683 7 is_stmt 1 view .LVU591
 2381 02e8 9847     		blx	r3
 2382              	.LVL73:
 686:Drivers/STM32F1xx_HAL_Driver/Src/stm32f1xx_hal_dma.c **** }
 2383              		.loc 1 686 3 view .LVU592
 2384 02ea D2E6     		b	.L205
 2385              		.cfi_endproc
 2386              	.LFE73:
 2388              		.section	.text.HAL_DMA_RegisterCallback,"ax",%progbits
 2389              		.align	1
 2390              		.global	HAL_DMA_RegisterCallback
 2391              		.syntax unified
 2392              		.thumb
 2393              		.thumb_func
 2395              	HAL_DMA_RegisterCallback:
 2396              	.LVL74:
 2397              	.LFB74:
 700:Drivers/STM32F1xx_HAL_Driver/Src/stm32f1xx_hal_dma.c ****   HAL_StatusTypeDef status = HAL_OK;
 2398              		.loc 1 700 1 view -0
 2399              		.cfi_startproc
 2400              		@ args = 0, pretend = 0, frame = 0
 2401              		@ frame_needed = 0, uses_anonymous_args = 0
 2402              		@ link register save eliminated.
 700:Drivers/STM32F1xx_HAL_Driver/Src/stm32f1xx_hal_dma.c ****   HAL_StatusTypeDef status = HAL_OK;
 2403              		.loc 1 700 1 is_stmt 0 view .LVU594
 2404 0000 0346     		mov	r3, r0
 701:Drivers/STM32F1xx_HAL_Driver/Src/stm32f1xx_hal_dma.c ****   
 2405              		.loc 1 701 3 is_stmt 1 view .LVU595
 2406              	.LVL75:
 704:Drivers/STM32F1xx_HAL_Driver/Src/stm32f1xx_hal_dma.c ****   
 2407              		.loc 1 704 3 view .LVU596
 704:Drivers/STM32F1xx_HAL_Driver/Src/stm32f1xx_hal_dma.c ****   
 2408              		.loc 1 704 3 view .LVU597
 2409 0002 90F82000 		ldrb	r0, [r0, #32]	@ zero_extendqisi2
 2410              	.LVL76:
 704:Drivers/STM32F1xx_HAL_Driver/Src/stm32f1xx_hal_dma.c ****   
 2411              		.loc 1 704 3 is_stmt 0 view .LVU598
 2412 0006 0128     		cmp	r0, #1
 2413 0008 1DD0     		beq	.L278
 704:Drivers/STM32F1xx_HAL_Driver/Src/stm32f1xx_hal_dma.c ****   
 2414              		.loc 1 704 3 is_stmt 1 discriminator 2 view .LVU599
 2415 000a 0120     		movs	r0, #1
 2416 000c 83F82000 		strb	r0, [r3, #32]
 704:Drivers/STM32F1xx_HAL_Driver/Src/stm32f1xx_hal_dma.c ****   
 2417              		.loc 1 704 3 discriminator 2 view .LVU600
 706:Drivers/STM32F1xx_HAL_Driver/Src/stm32f1xx_hal_dma.c ****   {
 2418              		.loc 1 706 3 discriminator 2 view .LVU601
 706:Drivers/STM32F1xx_HAL_Driver/Src/stm32f1xx_hal_dma.c ****   {
 2419              		.loc 1 706 33 is_stmt 0 discriminator 2 view .LVU602
 2420 0010 93F82100 		ldrb	r0, [r3, #33]	@ zero_extendqisi2
ARM GAS  /var/folders/2w/5wbrmvx534s_vk8svtxz852c0000gn/T//cccJC0NJ.s 			page 69


 706:Drivers/STM32F1xx_HAL_Driver/Src/stm32f1xx_hal_dma.c ****   {
 2421              		.loc 1 706 5 discriminator 2 view .LVU603
 2422 0014 0128     		cmp	r0, #1
 2423 0016 04D0     		beq	.L280
 733:Drivers/STM32F1xx_HAL_Driver/Src/stm32f1xx_hal_dma.c ****   } 
 2424              		.loc 1 733 12 view .LVU604
 2425 0018 0120     		movs	r0, #1
 2426              	.L272:
 2427              	.LVL77:
 737:Drivers/STM32F1xx_HAL_Driver/Src/stm32f1xx_hal_dma.c ****   
 2428              		.loc 1 737 3 is_stmt 1 view .LVU605
 737:Drivers/STM32F1xx_HAL_Driver/Src/stm32f1xx_hal_dma.c ****   
 2429              		.loc 1 737 3 view .LVU606
 2430 001a 0022     		movs	r2, #0
 2431              	.LVL78:
 737:Drivers/STM32F1xx_HAL_Driver/Src/stm32f1xx_hal_dma.c ****   
 2432              		.loc 1 737 3 is_stmt 0 view .LVU607
 2433 001c 83F82020 		strb	r2, [r3, #32]
 737:Drivers/STM32F1xx_HAL_Driver/Src/stm32f1xx_hal_dma.c ****   
 2434              		.loc 1 737 3 is_stmt 1 view .LVU608
 739:Drivers/STM32F1xx_HAL_Driver/Src/stm32f1xx_hal_dma.c **** }
 2435              		.loc 1 739 3 view .LVU609
 739:Drivers/STM32F1xx_HAL_Driver/Src/stm32f1xx_hal_dma.c **** }
 2436              		.loc 1 739 10 is_stmt 0 view .LVU610
 2437 0020 7047     		bx	lr
 2438              	.LVL79:
 2439              	.L280:
 708:Drivers/STM32F1xx_HAL_Driver/Src/stm32f1xx_hal_dma.c ****     {
 2440              		.loc 1 708 5 is_stmt 1 view .LVU611
 2441 0022 0329     		cmp	r1, #3
 2442 0024 F9D8     		bhi	.L272
 2443 0026 DFE801F0 		tbb	[pc, r1]
 2444              	.L274:
 2445 002a 02       		.byte	(.L277-.L274)/2
 2446 002b 05       		.byte	(.L276-.L274)/2
 2447 002c 08       		.byte	(.L275-.L274)/2
 2448 002d 0B       		.byte	(.L273-.L274)/2
 2449              		.p2align 1
 2450              	.L277:
 711:Drivers/STM32F1xx_HAL_Driver/Src/stm32f1xx_hal_dma.c ****       break;
 2451              		.loc 1 711 7 view .LVU612
 711:Drivers/STM32F1xx_HAL_Driver/Src/stm32f1xx_hal_dma.c ****       break;
 2452              		.loc 1 711 30 is_stmt 0 view .LVU613
 2453 002e 9A62     		str	r2, [r3, #40]
 712:Drivers/STM32F1xx_HAL_Driver/Src/stm32f1xx_hal_dma.c ****       
 2454              		.loc 1 712 7 is_stmt 1 view .LVU614
 701:Drivers/STM32F1xx_HAL_Driver/Src/stm32f1xx_hal_dma.c ****   
 2455              		.loc 1 701 21 is_stmt 0 view .LVU615
 2456 0030 0846     		mov	r0, r1
 712:Drivers/STM32F1xx_HAL_Driver/Src/stm32f1xx_hal_dma.c ****       
 2457              		.loc 1 712 7 view .LVU616
 2458 0032 F2E7     		b	.L272
 2459              	.L276:
 715:Drivers/STM32F1xx_HAL_Driver/Src/stm32f1xx_hal_dma.c ****       break;         
 2460              		.loc 1 715 7 is_stmt 1 view .LVU617
 715:Drivers/STM32F1xx_HAL_Driver/Src/stm32f1xx_hal_dma.c ****       break;         
 2461              		.loc 1 715 34 is_stmt 0 view .LVU618
ARM GAS  /var/folders/2w/5wbrmvx534s_vk8svtxz852c0000gn/T//cccJC0NJ.s 			page 70


 2462 0034 DA62     		str	r2, [r3, #44]
 716:Drivers/STM32F1xx_HAL_Driver/Src/stm32f1xx_hal_dma.c **** 
 2463              		.loc 1 716 7 is_stmt 1 view .LVU619
 701:Drivers/STM32F1xx_HAL_Driver/Src/stm32f1xx_hal_dma.c ****   
 2464              		.loc 1 701 21 is_stmt 0 view .LVU620
 2465 0036 0020     		movs	r0, #0
 716:Drivers/STM32F1xx_HAL_Driver/Src/stm32f1xx_hal_dma.c **** 
 2466              		.loc 1 716 7 view .LVU621
 2467 0038 EFE7     		b	.L272
 2468              	.L275:
 719:Drivers/STM32F1xx_HAL_Driver/Src/stm32f1xx_hal_dma.c ****       break;         
 2469              		.loc 1 719 7 is_stmt 1 view .LVU622
 719:Drivers/STM32F1xx_HAL_Driver/Src/stm32f1xx_hal_dma.c ****       break;         
 2470              		.loc 1 719 31 is_stmt 0 view .LVU623
 2471 003a 1A63     		str	r2, [r3, #48]
 720:Drivers/STM32F1xx_HAL_Driver/Src/stm32f1xx_hal_dma.c ****       
 2472              		.loc 1 720 7 is_stmt 1 view .LVU624
 701:Drivers/STM32F1xx_HAL_Driver/Src/stm32f1xx_hal_dma.c ****   
 2473              		.loc 1 701 21 is_stmt 0 view .LVU625
 2474 003c 0020     		movs	r0, #0
 720:Drivers/STM32F1xx_HAL_Driver/Src/stm32f1xx_hal_dma.c ****       
 2475              		.loc 1 720 7 view .LVU626
 2476 003e ECE7     		b	.L272
 2477              	.L273:
 723:Drivers/STM32F1xx_HAL_Driver/Src/stm32f1xx_hal_dma.c ****       break; 
 2478              		.loc 1 723 7 is_stmt 1 view .LVU627
 723:Drivers/STM32F1xx_HAL_Driver/Src/stm32f1xx_hal_dma.c ****       break; 
 2479              		.loc 1 723 31 is_stmt 0 view .LVU628
 2480 0040 5A63     		str	r2, [r3, #52]
 724:Drivers/STM32F1xx_HAL_Driver/Src/stm32f1xx_hal_dma.c ****       
 2481              		.loc 1 724 7 is_stmt 1 view .LVU629
 701:Drivers/STM32F1xx_HAL_Driver/Src/stm32f1xx_hal_dma.c ****   
 2482              		.loc 1 701 21 is_stmt 0 view .LVU630
 2483 0042 0020     		movs	r0, #0
 724:Drivers/STM32F1xx_HAL_Driver/Src/stm32f1xx_hal_dma.c ****       
 2484              		.loc 1 724 7 view .LVU631
 2485 0044 E9E7     		b	.L272
 2486              	.L278:
 704:Drivers/STM32F1xx_HAL_Driver/Src/stm32f1xx_hal_dma.c ****   
 2487              		.loc 1 704 3 view .LVU632
 2488 0046 0220     		movs	r0, #2
 740:Drivers/STM32F1xx_HAL_Driver/Src/stm32f1xx_hal_dma.c **** 
 2489              		.loc 1 740 1 view .LVU633
 2490 0048 7047     		bx	lr
 2491              		.cfi_endproc
 2492              	.LFE74:
 2494              		.section	.text.HAL_DMA_UnRegisterCallback,"ax",%progbits
 2495              		.align	1
 2496              		.global	HAL_DMA_UnRegisterCallback
 2497              		.syntax unified
 2498              		.thumb
 2499              		.thumb_func
 2501              	HAL_DMA_UnRegisterCallback:
 2502              	.LVL80:
 2503              	.LFB75:
 751:Drivers/STM32F1xx_HAL_Driver/Src/stm32f1xx_hal_dma.c ****   HAL_StatusTypeDef status = HAL_OK;
 2504              		.loc 1 751 1 is_stmt 1 view -0
ARM GAS  /var/folders/2w/5wbrmvx534s_vk8svtxz852c0000gn/T//cccJC0NJ.s 			page 71


 2505              		.cfi_startproc
 2506              		@ args = 0, pretend = 0, frame = 0
 2507              		@ frame_needed = 0, uses_anonymous_args = 0
 2508              		@ link register save eliminated.
 751:Drivers/STM32F1xx_HAL_Driver/Src/stm32f1xx_hal_dma.c ****   HAL_StatusTypeDef status = HAL_OK;
 2509              		.loc 1 751 1 is_stmt 0 view .LVU635
 2510 0000 0346     		mov	r3, r0
 752:Drivers/STM32F1xx_HAL_Driver/Src/stm32f1xx_hal_dma.c **** 
 2511              		.loc 1 752 3 is_stmt 1 view .LVU636
 2512              	.LVL81:
 755:Drivers/STM32F1xx_HAL_Driver/Src/stm32f1xx_hal_dma.c ****   
 2513              		.loc 1 755 3 view .LVU637
 755:Drivers/STM32F1xx_HAL_Driver/Src/stm32f1xx_hal_dma.c ****   
 2514              		.loc 1 755 3 view .LVU638
 2515 0002 90F82020 		ldrb	r2, [r0, #32]	@ zero_extendqisi2
 2516 0006 012A     		cmp	r2, #1
 2517 0008 25D0     		beq	.L290
 755:Drivers/STM32F1xx_HAL_Driver/Src/stm32f1xx_hal_dma.c ****   
 2518              		.loc 1 755 3 discriminator 2 view .LVU639
 2519 000a 0122     		movs	r2, #1
 2520 000c 80F82020 		strb	r2, [r0, #32]
 755:Drivers/STM32F1xx_HAL_Driver/Src/stm32f1xx_hal_dma.c ****   
 2521              		.loc 1 755 3 discriminator 2 view .LVU640
 757:Drivers/STM32F1xx_HAL_Driver/Src/stm32f1xx_hal_dma.c ****   {
 2522              		.loc 1 757 3 discriminator 2 view .LVU641
 757:Drivers/STM32F1xx_HAL_Driver/Src/stm32f1xx_hal_dma.c ****   {
 2523              		.loc 1 757 33 is_stmt 0 discriminator 2 view .LVU642
 2524 0010 90F82100 		ldrb	r0, [r0, #33]	@ zero_extendqisi2
 2525              	.LVL82:
 757:Drivers/STM32F1xx_HAL_Driver/Src/stm32f1xx_hal_dma.c ****   {
 2526              		.loc 1 757 5 discriminator 2 view .LVU643
 2527 0014 9042     		cmp	r0, r2
 2528 0016 04D0     		beq	.L292
 791:Drivers/STM32F1xx_HAL_Driver/Src/stm32f1xx_hal_dma.c ****   } 
 2529              		.loc 1 791 12 view .LVU644
 2530 0018 0120     		movs	r0, #1
 2531              	.L283:
 2532              	.LVL83:
 795:Drivers/STM32F1xx_HAL_Driver/Src/stm32f1xx_hal_dma.c ****   
 2533              		.loc 1 795 3 is_stmt 1 view .LVU645
 795:Drivers/STM32F1xx_HAL_Driver/Src/stm32f1xx_hal_dma.c ****   
 2534              		.loc 1 795 3 view .LVU646
 2535 001a 0022     		movs	r2, #0
 2536 001c 83F82020 		strb	r2, [r3, #32]
 795:Drivers/STM32F1xx_HAL_Driver/Src/stm32f1xx_hal_dma.c ****   
 2537              		.loc 1 795 3 view .LVU647
 797:Drivers/STM32F1xx_HAL_Driver/Src/stm32f1xx_hal_dma.c **** }
 2538              		.loc 1 797 3 view .LVU648
 797:Drivers/STM32F1xx_HAL_Driver/Src/stm32f1xx_hal_dma.c **** }
 2539              		.loc 1 797 10 is_stmt 0 view .LVU649
 2540 0020 7047     		bx	lr
 2541              	.LVL84:
 2542              	.L292:
 759:Drivers/STM32F1xx_HAL_Driver/Src/stm32f1xx_hal_dma.c ****     {
 2543              		.loc 1 759 5 is_stmt 1 view .LVU650
 2544 0022 0429     		cmp	r1, #4
 2545 0024 F9D8     		bhi	.L283
ARM GAS  /var/folders/2w/5wbrmvx534s_vk8svtxz852c0000gn/T//cccJC0NJ.s 			page 72


 2546 0026 DFE801F0 		tbb	[pc, r1]
 2547              	.L285:
 2548 002a 03       		.byte	(.L289-.L285)/2
 2549 002b 07       		.byte	(.L288-.L285)/2
 2550 002c 0A       		.byte	(.L287-.L285)/2
 2551 002d 0D       		.byte	(.L286-.L285)/2
 2552 002e 10       		.byte	(.L284-.L285)/2
 2553 002f 00       		.p2align 1
 2554              	.L289:
 762:Drivers/STM32F1xx_HAL_Driver/Src/stm32f1xx_hal_dma.c ****       break;
 2555              		.loc 1 762 7 view .LVU651
 762:Drivers/STM32F1xx_HAL_Driver/Src/stm32f1xx_hal_dma.c ****       break;
 2556              		.loc 1 762 30 is_stmt 0 view .LVU652
 2557 0030 0022     		movs	r2, #0
 2558 0032 9A62     		str	r2, [r3, #40]
 763:Drivers/STM32F1xx_HAL_Driver/Src/stm32f1xx_hal_dma.c **** 
 2559              		.loc 1 763 7 is_stmt 1 view .LVU653
 752:Drivers/STM32F1xx_HAL_Driver/Src/stm32f1xx_hal_dma.c **** 
 2560              		.loc 1 752 21 is_stmt 0 view .LVU654
 2561 0034 0846     		mov	r0, r1
 763:Drivers/STM32F1xx_HAL_Driver/Src/stm32f1xx_hal_dma.c **** 
 2562              		.loc 1 763 7 view .LVU655
 2563 0036 F0E7     		b	.L283
 2564              	.L288:
 766:Drivers/STM32F1xx_HAL_Driver/Src/stm32f1xx_hal_dma.c ****       break;         
 2565              		.loc 1 766 7 is_stmt 1 view .LVU656
 766:Drivers/STM32F1xx_HAL_Driver/Src/stm32f1xx_hal_dma.c ****       break;         
 2566              		.loc 1 766 34 is_stmt 0 view .LVU657
 2567 0038 0020     		movs	r0, #0
 2568 003a D862     		str	r0, [r3, #44]
 767:Drivers/STM32F1xx_HAL_Driver/Src/stm32f1xx_hal_dma.c **** 
 2569              		.loc 1 767 7 is_stmt 1 view .LVU658
 2570 003c EDE7     		b	.L283
 2571              	.L287:
 770:Drivers/STM32F1xx_HAL_Driver/Src/stm32f1xx_hal_dma.c ****       break;         
 2572              		.loc 1 770 7 view .LVU659
 770:Drivers/STM32F1xx_HAL_Driver/Src/stm32f1xx_hal_dma.c ****       break;         
 2573              		.loc 1 770 31 is_stmt 0 view .LVU660
 2574 003e 0020     		movs	r0, #0
 2575 0040 1863     		str	r0, [r3, #48]
 771:Drivers/STM32F1xx_HAL_Driver/Src/stm32f1xx_hal_dma.c **** 
 2576              		.loc 1 771 7 is_stmt 1 view .LVU661
 2577 0042 EAE7     		b	.L283
 2578              	.L286:
 774:Drivers/STM32F1xx_HAL_Driver/Src/stm32f1xx_hal_dma.c ****       break; 
 2579              		.loc 1 774 7 view .LVU662
 774:Drivers/STM32F1xx_HAL_Driver/Src/stm32f1xx_hal_dma.c ****       break; 
 2580              		.loc 1 774 31 is_stmt 0 view .LVU663
 2581 0044 0020     		movs	r0, #0
 2582 0046 5863     		str	r0, [r3, #52]
 775:Drivers/STM32F1xx_HAL_Driver/Src/stm32f1xx_hal_dma.c **** 
 2583              		.loc 1 775 7 is_stmt 1 view .LVU664
 2584 0048 E7E7     		b	.L283
 2585              	.L284:
 778:Drivers/STM32F1xx_HAL_Driver/Src/stm32f1xx_hal_dma.c ****       hdma->XferHalfCpltCallback = NULL;
 2586              		.loc 1 778 7 view .LVU665
 778:Drivers/STM32F1xx_HAL_Driver/Src/stm32f1xx_hal_dma.c ****       hdma->XferHalfCpltCallback = NULL;
ARM GAS  /var/folders/2w/5wbrmvx534s_vk8svtxz852c0000gn/T//cccJC0NJ.s 			page 73


 2587              		.loc 1 778 30 is_stmt 0 view .LVU666
 2588 004a 0020     		movs	r0, #0
 2589 004c 9862     		str	r0, [r3, #40]
 779:Drivers/STM32F1xx_HAL_Driver/Src/stm32f1xx_hal_dma.c ****       hdma->XferErrorCallback = NULL;
 2590              		.loc 1 779 7 is_stmt 1 view .LVU667
 779:Drivers/STM32F1xx_HAL_Driver/Src/stm32f1xx_hal_dma.c ****       hdma->XferErrorCallback = NULL;
 2591              		.loc 1 779 34 is_stmt 0 view .LVU668
 2592 004e D862     		str	r0, [r3, #44]
 780:Drivers/STM32F1xx_HAL_Driver/Src/stm32f1xx_hal_dma.c ****       hdma->XferAbortCallback = NULL;
 2593              		.loc 1 780 7 is_stmt 1 view .LVU669
 780:Drivers/STM32F1xx_HAL_Driver/Src/stm32f1xx_hal_dma.c ****       hdma->XferAbortCallback = NULL;
 2594              		.loc 1 780 31 is_stmt 0 view .LVU670
 2595 0050 1863     		str	r0, [r3, #48]
 781:Drivers/STM32F1xx_HAL_Driver/Src/stm32f1xx_hal_dma.c ****       break; 
 2596              		.loc 1 781 7 is_stmt 1 view .LVU671
 781:Drivers/STM32F1xx_HAL_Driver/Src/stm32f1xx_hal_dma.c ****       break; 
 2597              		.loc 1 781 31 is_stmt 0 view .LVU672
 2598 0052 5863     		str	r0, [r3, #52]
 782:Drivers/STM32F1xx_HAL_Driver/Src/stm32f1xx_hal_dma.c **** 
 2599              		.loc 1 782 7 is_stmt 1 view .LVU673
 2600 0054 E1E7     		b	.L283
 2601              	.LVL85:
 2602              	.L290:
 755:Drivers/STM32F1xx_HAL_Driver/Src/stm32f1xx_hal_dma.c ****   
 2603              		.loc 1 755 3 is_stmt 0 view .LVU674
 2604 0056 0220     		movs	r0, #2
 2605              	.LVL86:
 798:Drivers/STM32F1xx_HAL_Driver/Src/stm32f1xx_hal_dma.c ****   
 2606              		.loc 1 798 1 view .LVU675
 2607 0058 7047     		bx	lr
 2608              		.cfi_endproc
 2609              	.LFE75:
 2611              		.section	.text.HAL_DMA_GetState,"ax",%progbits
 2612              		.align	1
 2613              		.global	HAL_DMA_GetState
 2614              		.syntax unified
 2615              		.thumb
 2616              		.thumb_func
 2618              	HAL_DMA_GetState:
 2619              	.LVL87:
 2620              	.LFB76:
 827:Drivers/STM32F1xx_HAL_Driver/Src/stm32f1xx_hal_dma.c ****   /* Return DMA handle state */
 2621              		.loc 1 827 1 is_stmt 1 view -0
 2622              		.cfi_startproc
 2623              		@ args = 0, pretend = 0, frame = 0
 2624              		@ frame_needed = 0, uses_anonymous_args = 0
 2625              		@ link register save eliminated.
 829:Drivers/STM32F1xx_HAL_Driver/Src/stm32f1xx_hal_dma.c **** }
 2626              		.loc 1 829 3 view .LVU677
 830:Drivers/STM32F1xx_HAL_Driver/Src/stm32f1xx_hal_dma.c **** 
 2627              		.loc 1 830 1 is_stmt 0 view .LVU678
 2628 0000 90F82100 		ldrb	r0, [r0, #33]	@ zero_extendqisi2
 2629              	.LVL88:
 830:Drivers/STM32F1xx_HAL_Driver/Src/stm32f1xx_hal_dma.c **** 
 2630              		.loc 1 830 1 view .LVU679
 2631 0004 7047     		bx	lr
 2632              		.cfi_endproc
ARM GAS  /var/folders/2w/5wbrmvx534s_vk8svtxz852c0000gn/T//cccJC0NJ.s 			page 74


 2633              	.LFE76:
 2635              		.section	.text.HAL_DMA_GetError,"ax",%progbits
 2636              		.align	1
 2637              		.global	HAL_DMA_GetError
 2638              		.syntax unified
 2639              		.thumb
 2640              		.thumb_func
 2642              	HAL_DMA_GetError:
 2643              	.LVL89:
 2644              	.LFB77:
 839:Drivers/STM32F1xx_HAL_Driver/Src/stm32f1xx_hal_dma.c ****   return hdma->ErrorCode;
 2645              		.loc 1 839 1 is_stmt 1 view -0
 2646              		.cfi_startproc
 2647              		@ args = 0, pretend = 0, frame = 0
 2648              		@ frame_needed = 0, uses_anonymous_args = 0
 2649              		@ link register save eliminated.
 840:Drivers/STM32F1xx_HAL_Driver/Src/stm32f1xx_hal_dma.c **** }
 2650              		.loc 1 840 3 view .LVU681
 840:Drivers/STM32F1xx_HAL_Driver/Src/stm32f1xx_hal_dma.c **** }
 2651              		.loc 1 840 14 is_stmt 0 view .LVU682
 2652 0000 806B     		ldr	r0, [r0, #56]
 2653              	.LVL90:
 841:Drivers/STM32F1xx_HAL_Driver/Src/stm32f1xx_hal_dma.c **** 
 2654              		.loc 1 841 1 view .LVU683
 2655 0002 7047     		bx	lr
 2656              		.cfi_endproc
 2657              	.LFE77:
 2659              		.text
 2660              	.Letext0:
 2661              		.file 2 "/opt/homebrew/Cellar/arm-none-eabi-gcc/10.3-2021.10/gcc/arm-none-eabi/include/machine/_de
 2662              		.file 3 "/opt/homebrew/Cellar/arm-none-eabi-gcc/10.3-2021.10/gcc/arm-none-eabi/include/sys/_stdint
 2663              		.file 4 "Drivers/CMSIS/Device/ST/STM32F1xx/Include/stm32f103xe.h"
 2664              		.file 5 "Drivers/CMSIS/Device/ST/STM32F1xx/Include/stm32f1xx.h"
 2665              		.file 6 "Drivers/STM32F1xx_HAL_Driver/Inc/stm32f1xx_hal_def.h"
 2666              		.file 7 "Drivers/STM32F1xx_HAL_Driver/Inc/stm32f1xx_hal_dma.h"
 2667              		.file 8 "Drivers/STM32F1xx_HAL_Driver/Inc/stm32f1xx_hal.h"
ARM GAS  /var/folders/2w/5wbrmvx534s_vk8svtxz852c0000gn/T//cccJC0NJ.s 			page 75

